(dp1
S'output'
p2
S"<type 'exceptions.AttributeError'> 'NoneType' object has no attribute 'url'"
p3
sS'layer'
p4
S'/home/concordance/web2py/applications/test/controllers/show.py'
p5
sS'code'
p6
S'# coding: utf8\n# \xd0\xbf\xd0\xbe\xd0\xbf\xd1\x80\xd0\xbe\xd0\xb1\xd0\xbe\xd0\xb2\xd0\xb0\xd1\x82\xd1\x8c \xd1\x87\xd1\x82\xd0\xbe-\xd0\xbb\xd0\xb8\xd0\xb1\xd0\xbe \xd0\xb2\xd0\xb8\xd0\xb4\xd0\xb0\n\ndef show1():   # show text from file\n    texts = trymysql(trymysql.text1.id==request.args(0)).select().first()\n    f = open(texts.filename, \'rb\')\n    content = f.readlines()\n    image = d(d.pages.text==request.args(0)).select().first()\n    image = image.url\n    return dict(texts=texts, content=content, image=image)\n\ndef show2(): # color the verbs\n    words = trymysql(trymysql.allword.title==request.args(0)).select()\n    content = []\n    for row in words:\n        if row.partos==\'VERB\':\n            new_words=str(row.lemma)+str(\'&\')\n            content.append(new_words)\n        else:\n            content.append(row.lemma)\n    return dict(content=content)\n\ndef show3(): #delete words\n    texts = trymysql(trymysql.text1.id==request.args(0)).select().first()\n    rows = trymysql(trymysql.allword.title==request.args(0)).select()\n    text_view = []\n    for row in rows:\n        text_view.append((row.lemma, row.id))\n    options = [OPTION(row.lemma, _value=row.id) for row in rows]\n    form=FORM(TABLE(TR("\xd0\x92\xd1\x8b\xd0\xb1\xd0\xb5\xd1\x80\xd0\xb8\xd1\x82\xd0\xb5 \xd1\x82\xd0\xb5\xd0\xba\xd1\x81\xd1\x82"),\n                    TR("\xd0\x9d\xd0\xb0\xd0\xbf\xd1\x80\xd0\xb8\xd0\xbc\xd0\xb5\xd1\x80, \xd1\x82\xd0\xb0\xd0\xba:",SELECT(*options, _name="first")),\n                    TR("",INPUT(_type="submit",_value="SUBMIT"))))\n    if form.accepts(request,session):\n        response.flash="form accepted"\n    return dict(text_view=text_view, form=form)\n\ndef show_variants(): # doesn\'t work\n    texts = trymysql(trymysql.text1.id==request.args(0)).select().first()\n    filename = "/home/concordance/web2py/applications/test/uploads/xml//4/481.xml"\n    f = open(filename, \'rb\')\n    content = f.read()\n    #if texts.id in [all.title for all in trymysql(trymysql.variants.id>0).select()]:\n    #    word = trymysql(trymysql.variants.title==texts.id).select().first()\n     #   word=word[\'comment_text\']\n    return dict(content=content)\n\nresponse._vars=response._caller(show1)\n'
p7
sS'snapshot'
p8
(dp9
S'exception'
p10
(dp11
S'__hash__'
p12
S"<method-wrapper '__hash__' of exceptions.AttributeError object>"
p13
sS'__setattr__'
p14
S"<method-wrapper '__setattr__' of exceptions.AttributeError object>"
p15
sS'__reduce_ex__'
p16
S'<built-in method __reduce_ex__ of exceptions.AttributeError object>'
p17
sS'__getslice__'
p18
S"<method-wrapper '__getslice__' of exceptions.AttributeError object>"
p19
sS'__getitem__'
p20
S"<method-wrapper '__getitem__' of exceptions.AttributeError object>"
p21
sS'__setstate__'
p22
S'<built-in method __setstate__ of exceptions.AttributeError object>'
p23
sS'args'
p24
S'("\'NoneType\' object has no attribute \'url\'",)'
p25
sS'__reduce__'
p26
S'<built-in method __reduce__ of exceptions.AttributeError object>'
p27
sS'__str__'
p28
S"<method-wrapper '__str__' of exceptions.AttributeError object>"
p29
sS'__format__'
p30
S'<built-in method __format__ of exceptions.AttributeError object>'
p31
sS'__getattribute__'
p32
S"<method-wrapper '__getattribute__' of exceptions.AttributeError object>"
p33
sS'__class__'
p34
S"<type 'exceptions.AttributeError'>"
p35
sS'__unicode__'
p36
S'<built-in method __unicode__ of exceptions.AttributeError object>'
p37
sS'__delattr__'
p38
S"<method-wrapper '__delattr__' of exceptions.AttributeError object>"
p39
sS'__subclasshook__'
p40
S'<built-in method __subclasshook__ of type object>'
p41
sS'__repr__'
p42
S"<method-wrapper '__repr__' of exceptions.AttributeError object>"
p43
sS'__dict__'
p44
S'{}'
p45
sS'__sizeof__'
p46
S'<built-in method __sizeof__ of exceptions.AttributeError object>'
p47
sS'__doc__'
p48
S"'Attribute not found.'"
p49
sS'__init__'
p50
S"<method-wrapper '__init__' of exceptions.AttributeError object>"
p51
sS'__new__'
p52
S'<built-in method __new__ of type object>'
p53
ssS'evalue'
p54
S"'NoneType' object has no attribute 'url'"
p55
sS'request'
p56
cgluon.html
XML_unpickle
p57
(S's\xf2B\x00\x00<div><table><tr><td style="font-weight:bold;vertical-align:top;">ajax</td><td style="vertical-align:top;">:</td><td><div>False</div></td></tr><tr><td style="font-weight:bold;vertical-align:top;">application</td><td style="vertical-align:top;">:</td><td><div>test</div></td></tr><tr><td style="font-weight:bold;vertical-align:top;">args</td><td style="vertical-align:top;">:</td><td><div><table><tr><td><div>171</div></td></tr></table></div></td></tr><tr><td style="font-weight:bold;vertical-align:top;">cid</td><td style="vertical-align:top;">:</td><td><div>None</div></td></tr><tr><td style="font-weight:bold;vertical-align:top;">client</td><td style="vertical-align:top;">:</td><td><div>100.43.91.5</div></td></tr><tr><td style="font-weight:bold;vertical-align:top;">controller</td><td style="vertical-align:top;">:</td><td><div>show</div></td></tr><tr><td style="font-weight:bold;vertical-align:top;">cookies</td><td style="vertical-align:top;">:</td><td><div><table></table></div></td></tr><tr><td style="font-weight:bold;vertical-align:top;">env</td><td style="vertical-align:top;">:</td><td><div><table><tr><td style="font-weight:bold;vertical-align:top;">CONTENT_LENGTH</td><td style="vertical-align:top;">:</td><td><div></div></td></tr><tr><td style="font-weight:bold;vertical-align:top;">CONTENT_TYPE</td><td style="vertical-align:top;">:</td><td><div></div></td></tr><tr><td style="font-weight:bold;vertical-align:top;">DOCUMENT_ROOT</td><td style="vertical-align:top;">:</td><td><div>/usr/local/openresty/nginx/html</div></td></tr><tr><td style="font-weight:bold;vertical-align:top;">HTTP_ACCEPT</td><td style="vertical-align:top;">:</td><td><div>*/*</div></td></tr><tr><td style="font-weight:bold;vertical-align:top;">HTTP_ACCEPT_ENCODING</td><td style="vertical-align:top;">:</td><td><div>gzip,deflate</div></td></tr><tr><td style="font-weight:bold;vertical-align:top;">HTTP_ACCEPT_LANGUAGE</td><td style="vertical-align:top;">:</td><td><div>ru, uk;q=0.8, be;q=0.8, en;q=0.7, *;q=0.01</div></td></tr><tr><td style="font-weight:bold;vertical-align:top;">HTTP_CONNECTION</td><td style="vertical-align:top;">:</td><td><div>close</div></td></tr><tr><td style="font-weight:bold;vertical-align:top;">HTTP_FROM</td><td style="vertical-align:top;">:</td><td><div>support@search.yandex.ru</div></td></tr><tr><td style="font-weight:bold;vertical-align:top;">HTTP_HOST</td><td style="vertical-align:top;">:</td><td><div>concordance.pythonanywhere.com</div></td></tr><tr><td style="font-weight:bold;vertical-align:top;">HTTP_USER_AGENT</td><td style="vertical-align:top;">:</td><td><div>Mozilla/5.0 (compatible; YandexBot/3.0; +http://yandex.com/bots)</div></td></tr><tr><td style="font-weight:bold;vertical-align:top;">HTTP_X_FORWARDED_FOR</td><td style="vertical-align:top;">:</td><td><div>100.43.91.5</div></td></tr><tr><td style="font-weight:bold;vertical-align:top;">HTTP_X_REAL_IP</td><td style="vertical-align:top;">:</td><td><div>100.43.91.5</div></td></tr><tr><td style="font-weight:bold;vertical-align:top;">PATH_INFO</td><td style="vertical-align:top;">:</td><td><div>/test/show/show1/171</div></td></tr><tr><td style="font-weight:bold;vertical-align:top;">QUERY_STRING</td><td style="vertical-align:top;">:</td><td><div></div></td></tr><tr><td style="font-weight:bold;vertical-align:top;">REMOTE_ADDR</td><td style="vertical-align:top;">:</td><td><div>10.0.0.236</div></td></tr><tr><td style="font-weight:bold;vertical-align:top;">REMOTE_PORT</td><td style="vertical-align:top;">:</td><td><div>49955</div></td></tr><tr><td style="font-weight:bold;vertical-align:top;">REQUEST_METHOD</td><td style="vertical-align:top;">:</td><td><div>GET</div></td></tr><tr><td style="font-weight:bold;vertical-align:top;">REQUEST_URI</td><td style="vertical-align:top;">:</td><td><div>/test/show/show1/171</div></td></tr><tr><td style="font-weight:bold;vertical-align:top;">SCRIPT_NAME</td><td style="vertical-align:top;">:</td><td><div></div></td></tr><tr><td style="font-weight:bold;vertical-align:top;">SERVER_NAME</td><td style="vertical-align:top;">:</td><td><div>concordance.pythonanywhere.com</div></td></tr><tr><td style="font-weight:bold;vertical-align:top;">SERVER_PORT</td><td style="vertical-align:top;">:</td><td><div>80</div></td></tr><tr><td style="font-weight:bold;vertical-align:top;">SERVER_PROTOCOL</td><td style="vertical-align:top;">:</td><td><div>HTTP/1.1</div></td></tr><tr><td style="font-weight:bold;vertical-align:top;">app_folders</td><td style="vertical-align:top;">:</td><td><div>set([&#x27;/home/concordance/web2py/applications/admin/&#x27;, &#x27;/home/concordance/web2py/applications/test/&#x27;])</div></td></tr><tr><td style="font-weight:bold;vertical-align:top;">applications_parent</td><td style="vertical-align:top;">:</td><td><div>/home/concordance/web2py</div></td></tr><tr><td style="font-weight:bold;vertical-align:top;">content_length</td><td style="vertical-align:top;">:</td><td><div></div></td></tr><tr><td style="font-weight:bold;vertical-align:top;">content_type</td><td style="vertical-align:top;">:</td><td><div></div></td></tr><tr><td style="font-weight:bold;vertical-align:top;">db_sessions</td><td style="vertical-align:top;">:</td><td><div>set([])</div></td></tr><tr><td style="font-weight:bold;vertical-align:top;">debugging</td><td style="vertical-align:top;">:</td><td><div>True</div></td></tr><tr><td style="font-weight:bold;vertical-align:top;">document_root</td><td style="vertical-align:top;">:</td><td><div>/usr/local/openresty/nginx/html</div></td></tr><tr><td style="font-weight:bold;vertical-align:top;">gluon_parent</td><td style="vertical-align:top;">:</td><td><div>/home/concordance/web2py</div></td></tr><tr><td style="font-weight:bold;vertical-align:top;">http_accept</td><td style="vertical-align:top;">:</td><td><div>*/*</div></td></tr><tr><td style="font-weight:bold;vertical-align:top;">http_accept_encoding</td><td style="vertical-align:top;">:</td><td><div>gzip,deflate</div></td></tr><tr><td style="font-weight:bold;vertical-align:top;">http_accept_language</td><td style="vertical-align:top;">:</td><td><div>ru, uk;q=0.8, be;q=0.8, en;q=0.7, *;q=0.01</div></td></tr><tr><td style="font-weight:bold;vertical-align:top;">http_connection</td><td style="vertical-align:top;">:</td><td><div>close</div></td></tr><tr><td style="font-weight:bold;vertical-align:top;">http_from</td><td style="vertical-align:top;">:</td><td><div>support@search.yandex.ru</div></td></tr><tr><td style="font-weight:bold;vertical-align:top;">http_host</td><td style="vertical-align:top;">:</td><td><div>concordance.pythonanywhere.com</div></td></tr><tr><td style="font-weight:bold;vertical-align:top;">http_user_agent</td><td style="vertical-align:top;">:</td><td><div>Mozilla/5.0 (compatible; YandexBot/3.0; +http://yandex.com/bots)</div></td></tr><tr><td style="font-weight:bold;vertical-align:top;">http_x_forwarded_for</td><td style="vertical-align:top;">:</td><td><div>100.43.91.5</div></td></tr><tr><td style="font-weight:bold;vertical-align:top;">http_x_real_ip</td><td style="vertical-align:top;">:</td><td><div>100.43.91.5</div></td></tr><tr><td style="font-weight:bold;vertical-align:top;">is_jython</td><td style="vertical-align:top;">:</td><td><div>False</div></td></tr><tr><td style="font-weight:bold;vertical-align:top;">is_pypy</td><td style="vertical-align:top;">:</td><td><div>False</div></td></tr><tr><td style="font-weight:bold;vertical-align:top;">is_source</td><td style="vertical-align:top;">:</td><td><div>True</div></td></tr><tr><td style="font-weight:bold;vertical-align:top;">local_hosts</td><td style="vertical-align:top;">:</td><td><div><table><tr><td><div>::ffff:127.0.0.1</div></td></tr><tr><td><div>::1</div></td></tr><tr><td><div>giles-liveweb6</div></td></tr><tr><td><div>50.19.109.98</div></td></tr><tr><td><div>127.0.0.1</div></td></tr><tr><td><div>concordance.pythonanywhere.com</div></td></tr><tr><td><div>localhost</div></td></tr></table></div></td></tr><tr><td style="font-weight:bold;vertical-align:top;">path_info</td><td style="vertical-align:top;">:</td><td><div>/test/show/show1/171</div></td></tr><tr><td style="font-weight:bold;vertical-align:top;">query_string</td><td style="vertical-align:top;">:</td><td><div></div></td></tr><tr><td style="font-weight:bold;vertical-align:top;">remote_addr</td><td style="vertical-align:top;">:</td><td><div>10.0.0.236</div></td></tr><tr><td style="font-weight:bold;vertical-align:top;">remote_port</td><td style="vertical-align:top;">:</td><td><div>49955</div></td></tr><tr><td style="font-weight:bold;vertical-align:top;">request_method</td><td style="vertical-align:top;">:</td><td><div>GET</div></td></tr><tr><td style="font-weight:bold;vertical-align:top;">request_uri</td><td style="vertical-align:top;">:</td><td><div>/test/show/show1/171</div></td></tr><tr><td style="font-weight:bold;vertical-align:top;">script_name</td><td style="vertical-align:top;">:</td><td><div></div></td></tr><tr><td style="font-weight:bold;vertical-align:top;">server_name</td><td style="vertical-align:top;">:</td><td><div>concordance.pythonanywhere.com</div></td></tr><tr><td style="font-weight:bold;vertical-align:top;">server_port</td><td style="vertical-align:top;">:</td><td><div>80</div></td></tr><tr><td style="font-weight:bold;vertical-align:top;">server_protocol</td><td style="vertical-align:top;">:</td><td><div>HTTP/1.1</div></td></tr><tr><td style="font-weight:bold;vertical-align:top;">uwsgi.node</td><td style="vertical-align:top;">:</td><td><div>giles-liveweb6</div></td></tr><tr><td style="font-weight:bold;vertical-align:top;">uwsgi.version</td><td style="vertical-align:top;">:</td><td><div>2.0.5.1</div></td></tr><tr><td style="font-weight:bold;vertical-align:top;">uwsgi_node</td><td style="vertical-align:top;">:</td><td><div>giles-liveweb6</div></td></tr><tr><td style="font-weight:bold;vertical-align:top;">uwsgi_version</td><td style="vertical-align:top;">:</td><td><div>2.0.5.1</div></td></tr><tr><td style="font-weight:bold;vertical-align:top;">web2py_original_uri</td><td style="vertical-align:top;">:</td><td><div>/test/show/show1/171</div></td></tr><tr><td style="font-weight:bold;vertical-align:top;">web2py_path</td><td style="vertical-align:top;">:</td><td><div>/home/concordance/web2py</div></td></tr><tr><td style="font-weight:bold;vertical-align:top;">web2py_version</td><td style="vertical-align:top;">:</td><td><div>2.9.5-stable+timestamp.2014.03.16.02.35.39</div></td></tr><tr><td style="font-weight:bold;vertical-align:top;">wsgi.errors</td><td style="vertical-align:top;">:</td><td><div>&lt;uwsgi_file__bin_user_wsgi_wrapper.ErrorLogFile object at 0x7ff1d2ff8150&gt;</div></td></tr><tr><td style="font-weight:bold;vertical-align:top;">wsgi.file_wrapper</td><td style="vertical-align:top;">:</td><td><div>&lt;built-in function uwsgi_sendfile&gt;</div></td></tr><tr><td style="font-weight:bold;vertical-align:top;">wsgi.input</td><td style="vertical-align:top;">:</td><td><div>&lt;uwsgi._Input object at 0x7ff1b4318270&gt;</div></td></tr><tr><td style="font-weight:bold;vertical-align:top;">wsgi.multiprocess</td><td style="vertical-align:top;">:</td><td><div>True</div></td></tr><tr><td style="font-weight:bold;vertical-align:top;">wsgi.multithread</td><td style="vertical-align:top;">:</td><td><div>False</div></td></tr><tr><td style="font-weight:bold;vertical-align:top;">wsgi.run_once</td><td style="vertical-align:top;">:</td><td><div>False</div></td></tr><tr><td style="font-weight:bold;vertical-align:top;">wsgi.url_scheme</td><td style="vertical-align:top;">:</td><td><div>http</div></td></tr><tr><td style="font-weight:bold;vertical-align:top;">wsgi.version</td><td style="vertical-align:top;">:</td><td><div><table><tr><td><div>1</div></td></tr><tr><td><div>0</div></td></tr></table></div></td></tr><tr><td style="font-weight:bold;vertical-align:top;">wsgi_errors</td><td style="vertical-align:top;">:</td><td><div>&lt;uwsgi_file__bin_user_wsgi_wrapper.ErrorLogFile object at 0x7ff1d2ff8150&gt;</div></td></tr><tr><td style="font-weight:bold;vertical-align:top;">wsgi_file_wrapper</td><td style="vertical-align:top;">:</td><td><div>&lt;built-in function uwsgi_sendfile&gt;</div></td></tr><tr><td style="font-weight:bold;vertical-align:top;">wsgi_input</td><td style="vertical-align:top;">:</td><td><div>&lt;uwsgi._Input object at 0x7ff1b4318270&gt;</div></td></tr><tr><td style="font-weight:bold;vertical-align:top;">wsgi_multiprocess</td><td style="vertical-align:top;">:</td><td><div>True</div></td></tr><tr><td style="font-weight:bold;vertical-align:top;">wsgi_multithread</td><td style="vertical-align:top;">:</td><td><div>False</div></td></tr><tr><td style="font-weight:bold;vertical-align:top;">wsgi_run_once</td><td style="vertical-align:top;">:</td><td><div>False</div></td></tr><tr><td style="font-weight:bold;vertical-align:top;">wsgi_url_scheme</td><td style="vertical-align:top;">:</td><td><div>http</div></td></tr><tr><td style="font-weight:bold;vertical-align:top;">wsgi_version</td><td style="vertical-align:top;">:</td><td><div><table><tr><td><div>1</div></td></tr><tr><td><div>0</div></td></tr></table></div></td></tr></table></div></td></tr><tr><td style="font-weight:bold;vertical-align:top;">extension</td><td style="vertical-align:top;">:</td><td><div>html</div></td></tr><tr><td style="font-weight:bold;vertical-align:top;">folder</td><td style="vertical-align:top;">:</td><td><div>/home/concordance/web2py/applications/test/</div></td></tr><tr><td style="font-weight:bold;vertical-align:top;">function</td><td style="vertical-align:top;">:</td><td><div>show1</div></td></tr><tr><td style="font-weight:bold;vertical-align:top;">global_settings</td><td style="vertical-align:top;">:</td><td><div><table><tr><td style="font-weight:bold;vertical-align:top;">app_folders</td><td style="vertical-align:top;">:</td><td><div>set([&#x27;/home/concordance/web2py/applications/admin/&#x27;, &#x27;/home/concordance/web2py/applications/test/&#x27;])</div></td></tr><tr><td style="font-weight:bold;vertical-align:top;">applications_parent</td><td style="vertical-align:top;">:</td><td><div>/home/concordance/web2py</div></td></tr><tr><td style="font-weight:bold;vertical-align:top;">db_sessions</td><td style="vertical-align:top;">:</td><td><div>set([])</div></td></tr><tr><td style="font-weight:bold;vertical-align:top;">debugging</td><td style="vertical-align:top;">:</td><td><div>True</div></td></tr><tr><td style="font-weight:bold;vertical-align:top;">gluon_parent</td><td style="vertical-align:top;">:</td><td><div>/home/concordance/web2py</div></td></tr><tr><td style="font-weight:bold;vertical-align:top;">is_jython</td><td style="vertical-align:top;">:</td><td><div>False</div></td></tr><tr><td style="font-weight:bold;vertical-align:top;">is_pypy</td><td style="vertical-align:top;">:</td><td><div>False</div></td></tr><tr><td style="font-weight:bold;vertical-align:top;">is_source</td><td style="vertical-align:top;">:</td><td><div>True</div></td></tr><tr><td style="font-weight:bold;vertical-align:top;">local_hosts</td><td style="vertical-align:top;">:</td><td><div><table><tr><td><div>::ffff:127.0.0.1</div></td></tr><tr><td><div>::1</div></td></tr><tr><td><div>giles-liveweb6</div></td></tr><tr><td><div>50.19.109.98</div></td></tr><tr><td><div>127.0.0.1</div></td></tr><tr><td><div>concordance.pythonanywhere.com</div></td></tr><tr><td><div>localhost</div></td></tr></table></div></td></tr><tr><td style="font-weight:bold;vertical-align:top;">web2py_version</td><td style="vertical-align:top;">:</td><td><div>2.9.5-stable+timestamp.2014.03.16.02.35.39</div></td></tr></table></div></td></tr><tr><td style="font-weight:bold;vertical-align:top;">is_https</td><td style="vertical-align:top;">:</td><td><div>False</div></td></tr><tr><td style="font-weight:bold;vertical-align:top;">is_local</td><td style="vertical-align:top;">:</td><td><div>False</div></td></tr><tr><td style="font-weight:bold;vertical-align:top;">is_restful</td><td style="vertical-align:top;">:</td><td><div>False</div></td></tr><tr><td style="font-weight:bold;vertical-align:top;">now</td><td style="vertical-align:top;">:</td><td><div>datetime.datetime(2017, 1, 16, 11, 12, 28, 652592)</div></td></tr><tr><td style="font-weight:bold;vertical-align:top;">raw_args</td><td style="vertical-align:top;">:</td><td><div>171</div></td></tr><tr><td style="font-weight:bold;vertical-align:top;">raw_extension</td><td style="vertical-align:top;">:</td><td><div>None</div></td></tr><tr><td style="font-weight:bold;vertical-align:top;">url</td><td style="vertical-align:top;">:</td><td><div>/test/show/show1/171</div></td></tr><tr><td style="font-weight:bold;vertical-align:top;">utcnow</td><td style="vertical-align:top;">:</td><td><div>datetime.datetime(2017, 1, 16, 11, 12, 28, 652611)</div></td></tr><tr><td style="font-weight:bold;vertical-align:top;">uuid</td><td style="vertical-align:top;">:</td><td><div>test/100.43.91.5.2017-01-16.11-12-28.2ce7b3ec-33cf-4c9e-aff3-99f5c997dc1f</div></td></tr><tr><td style="font-weight:bold;vertical-align:top;">wsgi</td><td style="vertical-align:top;">:</td><td><div>&lt;gluon.main.LazyWSGI object at 0x7ff1b41fb150&gt;</div></td></tr></table></div>'
tRp58
sS'frames'
p59
(lp60
(dp61
S'file'
p62
S'/home/concordance/web2py/gluon/restricted.py'
p63
sS'dump'
p64
(dp65
S'environment'
p66
S"{'A': <class 'gluon.html.A'>, 'ANY_OF': <class 'gluon.validators.ANY_OF'>, 'Auth': <class 'gluon.tools.Auth'>, 'B': <class 'gluon.html.B'>, 'BEAUTIFY': <class 'gluon.html.BEAUTIFY'>, 'BODY': <class 'gluon.html.BODY'>, 'BR': <class 'gluon.html.BR'>, 'BUTTON': <class 'gluon.html.BUTTON'>, 'CAT': <class 'gluon.html.CAT'>, 'CENTER': <class 'gluon.html.CENTER'>, ...}"
p67
sS'ccode'
p68
S'<code object <module> at 0x7ff1b4ab8330, file "/...y/applications/test/controllers/show.py", line 4>'
p69
ssS'lnum'
p70
I220
sS'lines'
p71
(dp72
I224
S'        # do not encapsulate (obfuscate) the original RestrictedError'
p73
sI215
S'    try:'
p74
sI216
S'        if isinstance(code, types.CodeType):'
p75
sI217
S'            ccode = code'
p76
sI218
S'        else:'
p77
sI219
S'            ccode = compile2(code, layer)'
p78
sI220
S'        exec ccode in environment'
p79
sI221
S'    except HTTP:'
p80
sI222
S'        raise'
p81
sI223
S'    except RestrictedError:'
p82
ssS'call'
p83
S"(code='# coding: utf8\\n# \\xd0\\xbf\\xd0\\xbe\\xd0\\xbf\\xd1\\x80\\xd0\\xbe\\xd0\\xb1\\xd0\\xbe\\xd0\\xb2\\xd0\\xb0\\xd1\\x82\\xd1\\x8c \\xd1\\x87\\xd1\\x82\\xd0\\xbe-\\xd0...content)\\n\\nresponse._vars=response._caller(show1)\\n', environment={'A': <class 'gluon.html.A'>, 'ANY_OF': <class 'gluon.validators.ANY_OF'>, 'Auth': <class 'gluon.tools.Auth'>, 'B': <class 'gluon.html.B'>, 'BEAUTIFY': <class 'gluon.html.BEAUTIFY'>, 'BODY': <class 'gluon.html.BODY'>, 'BR': <class 'gluon.html.BR'>, 'BUTTON': <class 'gluon.html.BUTTON'>, 'CAT': <class 'gluon.html.CAT'>, 'CENTER': <class 'gluon.html.CENTER'>, ...}, layer='/home/concordance/web2py/applications/test/controllers/show.py')"
p84
sS'func'
p85
S'restricted'
p86
sa(dp87
g62
S'/home/concordance/web2py/applications/test/controllers/show.py'
p88
sg64
(dp89
sg70
I47
sg71
(dp90
I36
S''
sI37
S"def show_variants(): # doesn't work"
p91
sI38
S'    texts = trymysql(trymysql.text1.id==request.args(0)).select().first()'
p92
sI39
S'    filename = "/home/concordance/web2py/applications/test/uploads/xml//4/481.xml"'
p93
sI40
S"    f = open(filename, 'rb')"
p94
sI41
S'    content = f.read()'
p95
sI42
S'    #if texts.id in [all.title for all in trymysql(trymysql.variants.id>0).select()]:'
p96
sI43
S'    #    word = trymysql(trymysql.variants.title==texts.id).select().first()'
p97
sI44
S"     #   word=word['comment_text']"
p98
sI45
S'    return dict(content=content)'
p99
ssg83
S'()'
p100
sg85
S'<module>'
p101
sa(dp102
g62
S'/home/concordance/web2py/gluon/globals.py'
p103
sg64
(dp104
S'self'
p105
S'undefined'
p106
sS'f'
S'<function show1>'
p107
ssg70
I385
sg71
(dp108
I384
S'        self._vars = None'
p109
sI385
S'        self._caller = lambda f: f()'
p110
sI386
S'        self._view_environment = None'
p111
sI387
S'        self._custom_commit = None'
p112
sI388
S'        self._custom_rollback = None'
p113
sI389
S''
sI380
S'        self.menu = []             # used by the default view layout'
p114
sI381
S'        self.files = []            # used by web2py_ajax.html'
p115
sI382
S'        self.generic_patterns = []  # patterns to allow generic views'
p116
sI383
S"        self.delimiters = ('{{', '}}')"
p117
ssg83
S'(f=<function show1>)'
p118
sg85
S'<lambda>'
p119
sa(dp120
g62
S'/home/concordance/web2py/applications/test/controllers/show.py'
p121
sg64
(dp122
S'image'
p123
S'None'
p124
sS'image.url'
p125
g106
ssg70
I9
sg71
(dp126
I4
S'def show1():   # show text from file'
p127
sI5
S'    texts = trymysql(trymysql.text1.id==request.args(0)).select().first()'
p128
sI6
S"    f = open(texts.filename, 'rb')"
p129
sI7
S'    content = f.readlines()'
p130
sI8
S'    image = d(d.pages.text==request.args(0)).select().first()'
p131
sI9
S'    image = image.url'
p132
sI10
S'    return dict(texts=texts, content=content, image=image)'
p133
sI11
S''
sI12
S'def show2(): # color the verbs'
p134
sI13
S'    words = trymysql(trymysql.allword.title==request.args(0)).select()'
p135
ssg83
S'()'
p136
sg85
S'show1'
p137
sasS'pyver'
p138
S'Python 2.7.6: /usr/local/bin/uwsgi (prefix: /usr)'
p139
sS'session'
p140
g57
(S's\x1a\x00\x00\x00<div><table></table></div>'
tRp141
sS'etype'
p142
S"<type 'exceptions.AttributeError'>"
p143
sS'date'
p144
S'Mon Jan 16 11:12:28 2017'
p145
sS'response'
p146
g57
(S's:\x1d\x00\x00<div><table><tr><td style="font-weight:bold;vertical-align:top;">body</td><td style="vertical-align:top;">:</td><td><div>&lt;cStringIO.StringO object at 0x7ff1b407f180&gt;</div></td></tr><tr><td style="font-weight:bold;vertical-align:top;">cookies</td><td style="vertical-align:top;">:</td><td><div><table><tr><td style="font-weight:bold;vertical-align:top;">session_id_test</td><td style="vertical-align:top;">:</td><td><div>100.43.91.5-72186489-0266-40d3-8ed5-912b229600ae<table><tr><td style="font-weight:bold;vertical-align:top;">comment</td><td style="vertical-align:top;">:</td><td><div></div></td></tr><tr><td style="font-weight:bold;vertical-align:top;">domain</td><td style="vertical-align:top;">:</td><td><div></div></td></tr><tr><td style="font-weight:bold;vertical-align:top;">expires</td><td style="vertical-align:top;">:</td><td><div></div></td></tr><tr><td style="font-weight:bold;vertical-align:top;">httponly</td><td style="vertical-align:top;">:</td><td><div></div></td></tr><tr><td style="font-weight:bold;vertical-align:top;">max-age</td><td style="vertical-align:top;">:</td><td><div></div></td></tr><tr><td style="font-weight:bold;vertical-align:top;">path</td><td style="vertical-align:top;">:</td><td><div>/</div></td></tr><tr><td style="font-weight:bold;vertical-align:top;">secure</td><td style="vertical-align:top;">:</td><td><div></div></td></tr><tr><td style="font-weight:bold;vertical-align:top;">version</td><td style="vertical-align:top;">:</td><td><div></div></td></tr></table></div></td></tr></table></div></td></tr><tr><td style="font-weight:bold;vertical-align:top;">delimiters</td><td style="vertical-align:top;">:</td><td><div><table><tr><td><div>{{</div></td></tr><tr><td><div>}}</div></td></tr></table></div></td></tr><tr><td style="font-weight:bold;vertical-align:top;">files</td><td style="vertical-align:top;">:</td><td><div><table></table></div></td></tr><tr><td style="font-weight:bold;vertical-align:top;">flash</td><td style="vertical-align:top;">:</td><td><div></div></td></tr><tr><td style="font-weight:bold;vertical-align:top;">generic_patterns</td><td style="vertical-align:top;">:</td><td><div><table></table></div></td></tr><tr><td style="font-weight:bold;vertical-align:top;">google_analytics_id</td><td style="vertical-align:top;">:</td><td><div>UA-52567545-1</div></td></tr><tr><td style="font-weight:bold;vertical-align:top;">headers</td><td style="vertical-align:top;">:</td><td><div><table><tr><td style="font-weight:bold;vertical-align:top;">X-Powered-By</td><td style="vertical-align:top;">:</td><td><div>web2py</div></td></tr></table></div></td></tr><tr><td style="font-weight:bold;vertical-align:top;">logo</td><td style="vertical-align:top;">:</td><td><div><a class="brand" href="http://concordances.ru"><b>concor<span>dances</span></b>.ru</a></div></td></tr><tr><td style="font-weight:bold;vertical-align:top;">menu</td><td style="vertical-align:top;">:</td><td><div><table><tr><td><div><table><tr><td><div>Home</div></td></tr><tr><td><div>False</div></td></tr><tr><td><div>/test/default/index</div></td></tr><tr><td><div><table></table></div></td></tr></table></div></td></tr><tr><td><div><table><tr><td><div><span class="highlighted">web2py</span></div></td></tr><tr><td><div>False</div></td></tr><tr><td><div>http://concordances.ru</div></td></tr><tr><td><div><table><tr><td><div><table><tr><td><div>\xd0\x9e \xd0\xbf\xd1\x80\xd0\xbe\xd0\xb5\xd0\xba\xd1\x82\xd0\xb5</div></td></tr><tr><td><div>False</div></td></tr><tr><td><div>/admin/default/about/test</div></td></tr></table></div></td></tr><tr><td><div><table><tr><td><div>\xd0\x90\xd0\xb4\xd0\xbc\xd0\xb8\xd0\xbd\xd0\xba\xd0\xb0</div></td></tr><tr><td><div>False</div></td></tr><tr><td><div>/admin/default/edit/test/controllers/show.py</div></td></tr></table></div></td></tr></table></div></td></tr></table></div></td></tr></table></div></td></tr><tr><td style="font-weight:bold;vertical-align:top;">meta</td><td style="vertical-align:top;">:</td><td><div><table><tr><td style="font-weight:bold;vertical-align:top;">author</td><td style="vertical-align:top;">:</td><td><div>Maria Levchenko &lt;marylevchenko@gmail.com&gt;</div></td></tr><tr><td style="font-weight:bold;vertical-align:top;">generator</td><td style="vertical-align:top;">:</td><td><div>\xd0\xa7\xd0\xb0\xd1\x81\xd1\x82\xd0\xbe\xd1\x82\xd0\xbd\xd1\x8b\xd0\xb9 \xd1\x81\xd0\xbb\xd0\xbe\xd0\xb2\xd0\xb0\xd1\x80\xd1\x8c \xd1\x80\xd1\x83\xd1\x81\xd1\x81\xd0\xba\xd0\xbe\xd0\xb9 \xd0\xbb\xd0\xb8\xd1\x82\xd0\xb5\xd1\x80\xd0\xb0\xd1\x82\xd1\x83\xd1\x80\xd1\x8b</div></td></tr><tr><td style="font-weight:bold;vertical-align:top;">keywords</td><td style="vertical-align:top;">:</td><td><div>concordance, natural language processing, critics</div></td></tr></table></div></td></tr><tr><td style="font-weight:bold;vertical-align:top;">models_to_run</td><td style="vertical-align:top;">:</td><td><div><table><tr><td><div>^\\w+\\.py$</div></td></tr><tr><td><div>^show/\\w+\\.py$</div></td></tr><tr><td><div>^show/show1/\\w+\\.py$</div></td></tr></table></div></td></tr><tr><td style="font-weight:bold;vertical-align:top;">postprocessing</td><td style="vertical-align:top;">:</td><td><div><table></table></div></td></tr><tr><td style="font-weight:bold;vertical-align:top;">session_client</td><td style="vertical-align:top;">:</td><td><div>100.43.91.5</div></td></tr><tr><td style="font-weight:bold;vertical-align:top;">session_cookie_compression_level</td><td style="vertical-align:top;">:</td><td><div>None</div></td></tr><tr><td style="font-weight:bold;vertical-align:top;">session_cookie_expires</td><td style="vertical-align:top;">:</td><td><div>None</div></td></tr><tr><td style="font-weight:bold;vertical-align:top;">session_cookie_key</td><td style="vertical-align:top;">:</td><td><div>None</div></td></tr><tr><td style="font-weight:bold;vertical-align:top;">session_data_name</td><td style="vertical-align:top;">:</td><td><div>session_data_test</div></td></tr><tr><td style="font-weight:bold;vertical-align:top;">session_file</td><td style="vertical-align:top;">:</td><td><div>None</div></td></tr><tr><td style="font-weight:bold;vertical-align:top;">session_filename</td><td style="vertical-align:top;">:</td><td><div>/home/concordance/web2py/applications/test/sessions/100.43.91.5-72186489-0266-40d3-8ed5-912b229600ae</div></td></tr><tr><td style="font-weight:bold;vertical-align:top;">session_hash</td><td style="vertical-align:top;">:</td><td><div>106f4c22ca06cc343e42b73a0d8492f6</div></td></tr><tr><td style="font-weight:bold;vertical-align:top;">session_id</td><td style="vertical-align:top;">:</td><td><div>100.43.91.5-72186489-0266-40d3-8ed5-912b229600ae</div></td></tr><tr><td style="font-weight:bold;vertical-align:top;">session_id_name</td><td style="vertical-align:top;">:</td><td><div>session_id_test</div></td></tr><tr><td style="font-weight:bold;vertical-align:top;">session_masterapp</td><td style="vertical-align:top;">:</td><td><div>test</div></td></tr><tr><td style="font-weight:bold;vertical-align:top;">session_new</td><td style="vertical-align:top;">:</td><td><div>True</div></td></tr><tr><td style="font-weight:bold;vertical-align:top;">session_storage_type</td><td style="vertical-align:top;">:</td><td><div>file</div></td></tr><tr><td style="font-weight:bold;vertical-align:top;">status</td><td style="vertical-align:top;">:</td><td><div>200</div></td></tr><tr><td style="font-weight:bold;vertical-align:top;">subtitle</td><td style="vertical-align:top;">:</td><td><div></div></td></tr><tr><td style="font-weight:bold;vertical-align:top;">title</td><td style="vertical-align:top;">:</td><td><div>Test</div></td></tr><tr><td style="font-weight:bold;vertical-align:top;">view</td><td style="vertical-align:top;">:</td><td><div>show/show1.html</div></td></tr></table></div>'
tRp147
sS'locals'
p148
(dp149
S'content'
p150
S"['\\xd0\\xa3\\xd1\\x88\\xd0\\xbb\\xd0\\xb8 \\xd0\\xb2 \\xd1\\x82\\xd1\\x83\\xd0\\xbc\\xd0\\xb0\\xd0\\xbd \\xd0\\xbc\\xd0\\xb5\\xd1\\x87\\xd1\\x82\\xd0\\xb0\\xd0\\xbd\\xd0\\xb8\\xd1\\x8f, \\r\\n', '\\xd0\\x97\\xd0\\xb0\\xd0\\xb1\\xd1\\x8b\\xd0\\xbb\\xd0\\xb8\\xd1\\x81\\xd1\\x8c \\xd0\\xb2\\xd1\\x81\\xd0\\xb5 \\xd1\\x81\\xd0\\xbb\\xd0\\xbe\\xd0\\xb2\\xd0\\xb0. \\r\\n', '\\xd0\\x92\\xd1\\x81\\xd1\\x8f \\xd0\\xb2 \\xd1\\x80\\xd0\\xbe\\xd0\\xb7\\xd0\\xbe\\xd0\\xb2\\xd0\\xbe\\xd0\\xbc \\xd1\\x81\\xd0\\xb8\\xd1\\x8f\\xd0\\xbd\\xd0\\xb8\\xd0\\xb8 \\r\\n', '\\xd0\\x92\\xd0\\xbe\\xd1\\x81\\xd0\\xba\\xd1\\x80\\xd0\\xb5\\xd1\\x81\\xd0\\xbb\\xd0\\xb0 \\xd1\\x81\\xd0\\xb8\\xd0\\xbd\\xd0\\xb5\\xd0\\xb2\\xd0\\xb0.\\r\\n', '\\r\\n', '\\xd0\\xa3\\xd0\\xbc\\xd1\\x87\\xd0\\xb0\\xd0\\xbb\\xd0\\xb8\\xd1\\x81\\xd1\\x8c \\xd1\\x82\\xd1\\x83\\xd1\\x87\\xd0\\xb8 \\xd0\\xb3\\xd1\\x80\\xd0\\xbe\\xd0\\xb7\\xd0\\xbd\\xd1\\x8b\\xd0\\xb5 \\r\\n', '\\xd0\\x98 \\xd0\\xbf\\xd1\\x80\\xd0\\xbe\\xd0\\xbb\\xd0\\xb8\\xd0\\xbb\\xd0\\xb8\\xd1\\x81\\xd1\\x8c \\xd0\\xb4\\xd0\\xbe\\xd0\\xb6\\xd0\\xb4\\xd0\\xb8. \\r\\n', '\\xd0\\x92\\xd0\\xb5\\xd0\\xbb\\xd0\\xb8\\xd0\\xba\\xd0\\xbe\\xd0\\xb5, \\xd0\\xb1\\xd0\\xb5\\xd1\\x81\\xd1\\x81\\xd0\\xbb\\xd0\\xb5\\xd0\\xb7\\xd0\\xbd\\xd0\\xbe\\xd0\\xb5!.. \\r\\n', '\\xd0\\x9d\\xd0\\xb0\\xd0\\xb4\\xd0\\xb5\\xd0\\xb9\\xd1\\x81\\xd1\\x8f, \\xd0\\xb2\\xd0\\xb5\\xd1\\x80\\xd1\\x8c \\xd0\\xb8 \\xd0\\xb6\\xd0\\xb4\\xd0\\xb8.']"
p151
sS'texts'
p152
S"<Row {'dmonth_writing': None, 'dyear_writing': N...: '', 'v': '', 'epigraph': '', 'group_text': 2L}>"
p153
sS'image'
p154
S'None'
p155
sS'f'
S"<open file '/home/concordance/web2py/applications/test/uploads/1_96_171.txt', mode 'rb'>"
p156
sssS'traceback'
p157
S'Traceback (most recent call last):\n  File "/home/concordance/web2py/gluon/restricted.py", line 220, in restricted\n    exec ccode in environment\n  File "/home/concordance/web2py/applications/test/controllers/show.py", line 47, in <module>\n  File "/home/concordance/web2py/gluon/globals.py", line 385, in <lambda>\n    self._caller = lambda f: f()\n  File "/home/concordance/web2py/applications/test/controllers/show.py", line 9, in show1\n    image = image.url\nAttributeError: \'NoneType\' object has no attribute \'url\'\n'
p158
s.