(dp1
S'output'
p2
S'<type \'exceptions.TypeError\'> can only concatenate list (not "str") to list'
p3
sS'layer'
p4
S'/home/concordance/web2py/applications/test/controllers/morpho.py'
p5
sS'code'
p6
S'# coding: utf8\nimport pymorphy2\nmorph = pymorphy2.MorphAnalyzer()\n\nnames = [\'Abbr\', \'Name\', \'Surn\', \'Patr\', \'Geox\', \'Init\']\nstyle = [\'Infr\', \'Slng\', \'Arch\', \'Litr\', \'Erro\', \'Dist\']\nother = [\'Ques\', \'Dmns\', \'Prnt\', \'Prdx\', \'Af-p\', \'Anph\', \'Inmx\', \'V-be\', \'V-en\', \'V-ie\', \'V-bi\', \'V-ey\', \'V-oy\', \'Cmp2\', \'V-ej\', \'Fimp\', \'Coun\', \'Coll\', \'V-sh\', \'Vpre\', \'Supr\', \'Qual\', \'Apro\', \'Anum\', \'Poss\']\npartos = [\'NOUN\', \'ADJF\', \'ADJS\', \'VERB\', \'INFN\', \'GRND\', \'PRTF\', \'PRTS\', \'ADVB\', \'PREP\', \'CONJ\', \'NPRO\', \'PRCL\' ]\nanimacy = [\'anim\', \'inan\']\ngender = [\'masc\', \'femn\', \'neut\', \'Ms-f\']\nnumber = [\'sing\', \'plur\', \'Sgtm\', \'Pltm\']\ncase = [\'nomn\', \'gent\', \'datv\', \'accs\', \'ablt\', \'loct\', \'voct\', \'gen1\', \'gen2\', \'acc2\', \'loc1\', \'loc2\']\naspect = [\'perf\', \'impf\']\ntrans = [\'tran\', \'intr\']\nperson = [\'1per\', \'2per\', \'3per\']\ntenses = [\'past\', \'pres\', \'futr\']\nmood = [\'indc\', \'impr\']\nvoice = [\'actv\', \'pssv\']\n\ndef index():\n    authors = trymysql().select(trymysql.author.ALL, orderby=trymysql.author.id)\n    return dict(authors=authors)\n\ndef index1():\n    titles = [x for x in range(3335,3500)]\n    texts = trymysql(trymysql.allword.title.belongs(titles)).select()\n    for all in texts:\n        the_word = all.lemma.decode("utf-8")\n        normal = morph.parse(the_word)[0]\n        parsed_other = parse_tags(normal.tag, other)[\'result\']\n        parsed_style = parse_tags(normal.tag, style)[\'result\']\n        parsed_name = parse_tags(normal.tag, names)[\'result\']\n        if all.partos != \'None\' and all.partos != \'PNCT\':\n            all.update_record(anim = str(normal.tag.animacy), gendr=str(normal.tag.gender), number = str(normal.tag.number), cas = str(normal.tag.case), tense = str(normal.tag.tense), aspect = str(normal.tag.aspect), person = str(normal.tag.person), transitivity= str(normal.tag.transitivity), mood = str(normal.tag.mood), involvment = str(normal.tag.involvement), voice = str(normal.tag.voice), sobstv=parsed_name, style = parsed_style, other = parsed_other)\n    return dict(parsed_other=parsed_other)\n\ndef parse_tags(tags, list_tags):\n    parsed = [x for x in list_tags if x in tags]\n    result = \'None\'\n    for all in parsed:\n        if all != \'None\':\n            result = str(all)\n    return dict(result=result)\n\ndef count_partos(): # count categories by author\n    new = []\n    authors = [1,4,5,7,8,9,10,11, 12]\n    for each in authors:\n        family = trymysql(trymysql.author.id==each).select()[0]\n        result = [family[\'family\']]\n        for all in case:\n            count = trymysql((trymysql.allword.author==each)&(trymysql.allword.cas==all)).count()\n            total = trymysql((trymysql.allword.author==each)&(trymysql.allword.cas!=\'None\')).count()\n            proc = round((float((count)*1.0)/int(total))*100, 3)\n            result.append(proc)\n        for all in partos:\n            count = trymysql((trymysql.allword.author==each)&(trymysql.allword.partos==all)).count()\n            total = trymysql((trymysql.allword.author==each)&(trymysql.allword.partos.belongs(partos))).count()\n            proc = round((float((count)*1.0)/int(total))*100, 2)\n            result.append(proc)\n        for all in person:\n            count = trymysql((trymysql.allword.author==each)&(trymysql.allword.person==all)).count()\n            total = trymysql((trymysql.allword.author==each)&(trymysql.allword.person!=\'None\')).count()\n            proc = round((float((count)*1.0)/int(total))*100, 2)\n            result.append(proc)\n        new.append(result)\n    new_tense = []\n    for every in authors:\n        family = trymysql(trymysql.author.id==every).select()[0]\n        total = trymysql((trymysql.allword.author==every)&(trymysql.allword.tense!=\'None\')).count()\n        tense = [round(float(trymysql((trymysql.allword.author==every)&(trymysql.allword.tense==all)).count())*1.0/int(total)*100,2) for all in tenses]\n        new_tense.append((family[\'family\'],tense))\n    return dict(new=new, new_tense=new_tense)\n\ndef count_tense_group():\n    groups = [row.id for row in trymysql(trymysql.group_text.author==request.args(0)).select()]\n    new=[]\n    spisok = []\n    if len(groups)==0:\n        total = trymysql((trymysql.allword.author==request.args(0))&(trymysql.allword.tense!=\'None\')).count()\n        tense = [round(float(trymysql((trymysql.allword.author==request.args(0))&(trymysql.allword.tense==all)).count())*1.0/int(total)*100,2) for all in tenses]\n        new.append(tense)\n    for every in groups:\n        titles = [row.id for row in trymysql(trymysql.text1.group_text==every).select()]\n        total = trymysql((trymysql.allword.title.belongs(titles))&(trymysql.allword.tense!=\'None\')).count()\n        tense = [round(float(trymysql((trymysql.allword.title.belongs(titles))&(trymysql.allword.tense==all)).count())*1.0/int(total)*100,2) for all in tenses]\n        name = trymysql(trymysql.group_text.id==every).select()[0]\n        new.append((name[\'title\'], tense))\n    return dict(new=new)\n\ndef search():\n    form=FORM(TABLE(TR("\xd0\x92\xd1\x8b\xd0\xb1\xd0\xb5\xd1\x80\xd0\xb8\xd1\x82\xd0\xb5 \xd1\x87\xd0\xb0\xd1\x81\xd1\x82\xd1\x8c \xd1\x80\xd0\xb5\xd1\x87\xd0\xb8",SELECT(*partos, _name="first")),\n                    TR("\xd0\x92\xd1\x8b\xd0\xb1\xd0\xb5\xd1\x80\xd0\xb8\xd1\x82\xd0\xb5 \xd0\xbf\xd0\xb0\xd0\xb4\xd0\xb5\xd0\xb6",SELECT(*case, _name="second")),\n                    TR("",INPUT(_type="submit",_value="SUBMIT"))))\n    if form.process(formname=\'form_one\').accepted:\n        redirect(URL(\'search_result\', args = [form.vars[\'first\'], form.vars[\'second\']]))\n        response.flash="form accepted"\n    return dict(form=form)\n\ndef search_result():\n    selected_partos = request.args(0)\n    selected_form = request.args(1)\n    words = trymysql((trymysql.allword.partos==request.args(0))&(trymysql.allword.cas==request.args(1))).select()\n    strings =[]\n    for all in words[:30]:\n        location = all.text_location\n        title1 = trymysql(trymysql.text1.id==int(all.title)).select()[0]\n        title=title1.title\n        author= (title1.author.name, title1.author.family)\n        string=[]\n        for x in range(all.id-6, all.id+6):\n            for_string = trymysql(trymysql.allword.id==x).select()[0]\n            if for_string.lemma=="," or for_string.lemma==\'.\' or for_string.lemma==":" or "!" in for_string.lemma:\n                s=str(for_string.lemma)\n            else:\n                if x == all.id:\n                    s=str(for_string.lemma) + str(\'&\')\n                else:\n                    s=" " + str(for_string.lemma)\n            string.append(s)\n        strings.append((string +"...", title, author, int(title1.id)))\n    return dict(p = selected_partos, f = selected_form, strings=strings)\n    \ndef draft():\n    base_id=[int(all.id) for all in trymysql(trymysql.text1.group_text==request.args(0)).select()]\n    base_id0=[int(all.id) for all in trymysql(trymysql.text1.group_text==request.args(1)).select()]\n    colours=[trymysql((trymysql.allword.word==all)&(trymysql.allword.title.belongs(base_id))).count() for all in color]\n    colours2=[trymysql((trymysql.allword.word==all)&(trymysql.allword.title.belongs(base_id0))).count() for all in color]\n    all_colours = sum([int(x) for x in colours])\n    all_colours2 = sum([int(x) for x in colours2])\n    title_1 = trymysql(trymysql.group_text.id==request.args(0)).select().first()\n    title_2 = trymysql(trymysql.group_text.id==request.args(1)).select().first()\n    return dict(colours=colours, colours2=colours2, all_colours=all_colours, all_colours2=all_colours2, title1=title_1.title, author1=title_1.author.family, title2=title_2.title, author2=title_2.author.family)\n\nresponse._vars=response._caller(search_result)\n'
p7
sS'snapshot'
p8
(dp9
S'exception'
p10
(dp11
S'__hash__'
p12
S"<method-wrapper '__hash__' of exceptions.TypeError object>"
p13
sS'__setattr__'
p14
S"<method-wrapper '__setattr__' of exceptions.TypeError object>"
p15
sS'__reduce_ex__'
p16
S'<built-in method __reduce_ex__ of exceptions.TypeError object>'
p17
sS'__getslice__'
p18
S"<method-wrapper '__getslice__' of exceptions.TypeError object>"
p19
sS'__getitem__'
p20
S"<method-wrapper '__getitem__' of exceptions.TypeError object>"
p21
sS'__setstate__'
p22
S'<built-in method __setstate__ of exceptions.TypeError object>'
p23
sS'args'
p24
S'(\'can only concatenate list (not "str") to list\',)'
p25
sS'__reduce__'
p26
S'<built-in method __reduce__ of exceptions.TypeError object>'
p27
sS'__str__'
p28
S"<method-wrapper '__str__' of exceptions.TypeError object>"
p29
sS'__format__'
p30
S'<built-in method __format__ of exceptions.TypeError object>'
p31
sS'__getattribute__'
p32
S"<method-wrapper '__getattribute__' of exceptions.TypeError object>"
p33
sS'__class__'
p34
S"<type 'exceptions.TypeError'>"
p35
sS'__unicode__'
p36
S'<built-in method __unicode__ of exceptions.TypeError object>'
p37
sS'__delattr__'
p38
S"<method-wrapper '__delattr__' of exceptions.TypeError object>"
p39
sS'__subclasshook__'
p40
S'<built-in method __subclasshook__ of type object>'
p41
sS'__repr__'
p42
S"<method-wrapper '__repr__' of exceptions.TypeError object>"
p43
sS'__dict__'
p44
S'{}'
p45
sS'__sizeof__'
p46
S'<built-in method __sizeof__ of exceptions.TypeError object>'
p47
sS'__doc__'
p48
S"'Inappropriate argument type.'"
p49
sS'__init__'
p50
S"<method-wrapper '__init__' of exceptions.TypeError object>"
p51
sS'__new__'
p52
S'<built-in method __new__ of type object>'
p53
ssS'evalue'
p54
S'can only concatenate list (not "str") to list'
p55
sS'request'
p56
cgluon.html
XML_unpickle
p57
(S's\x0ce\x00\x00<div><table><tr><td style="font-weight:bold;vertical-align:top;">ajax</td><td style="vertical-align:top;">:</td><td><div>False</div></td></tr><tr><td style="font-weight:bold;vertical-align:top;">application</td><td style="vertical-align:top;">:</td><td><div>test</div></td></tr><tr><td style="font-weight:bold;vertical-align:top;">args</td><td style="vertical-align:top;">:</td><td><div><table><tr><td><div>NOUN</div></td></tr><tr><td><div>voct</div></td></tr></table></div></td></tr><tr><td style="font-weight:bold;vertical-align:top;">cid</td><td style="vertical-align:top;">:</td><td><div>None</div></td></tr><tr><td style="font-weight:bold;vertical-align:top;">client</td><td style="vertical-align:top;">:</td><td><div>109.172.15.35</div></td></tr><tr><td style="font-weight:bold;vertical-align:top;">controller</td><td style="vertical-align:top;">:</td><td><div>morpho</div></td></tr><tr><td style="font-weight:bold;vertical-align:top;">cookies</td><td style="vertical-align:top;">:</td><td><div><table><tr><td style="font-weight:bold;vertical-align:top;">session_id_admin</td><td style="vertical-align:top;">:</td><td><div>93.185.176.186-5307d37a-6252-4082-a4b4-427f83975220<table><tr><td style="font-weight:bold;vertical-align:top;">comment</td><td style="vertical-align:top;">:</td><td><div></div></td></tr><tr><td style="font-weight:bold;vertical-align:top;">domain</td><td style="vertical-align:top;">:</td><td><div></div></td></tr><tr><td style="font-weight:bold;vertical-align:top;">expires</td><td style="vertical-align:top;">:</td><td><div></div></td></tr><tr><td style="font-weight:bold;vertical-align:top;">httponly</td><td style="vertical-align:top;">:</td><td><div></div></td></tr><tr><td style="font-weight:bold;vertical-align:top;">max-age</td><td style="vertical-align:top;">:</td><td><div></div></td></tr><tr><td style="font-weight:bold;vertical-align:top;">path</td><td style="vertical-align:top;">:</td><td><div></div></td></tr><tr><td style="font-weight:bold;vertical-align:top;">secure</td><td style="vertical-align:top;">:</td><td><div></div></td></tr><tr><td style="font-weight:bold;vertical-align:top;">version</td><td style="vertical-align:top;">:</td><td><div></div></td></tr></table></div></td></tr><tr><td style="font-weight:bold;vertical-align:top;">session_id_books</td><td style="vertical-align:top;">:</td><td><div>109.172.15.35-81f6382a-d143-45a6-b4f2-445510872b2d<table><tr><td style="font-weight:bold;vertical-align:top;">comment</td><td style="vertical-align:top;">:</td><td><div></div></td></tr><tr><td style="font-weight:bold;vertical-align:top;">domain</td><td style="vertical-align:top;">:</td><td><div></div></td></tr><tr><td style="font-weight:bold;vertical-align:top;">expires</td><td style="vertical-align:top;">:</td><td><div></div></td></tr><tr><td style="font-weight:bold;vertical-align:top;">httponly</td><td style="vertical-align:top;">:</td><td><div></div></td></tr><tr><td style="font-weight:bold;vertical-align:top;">max-age</td><td style="vertical-align:top;">:</td><td><div></div></td></tr><tr><td style="font-weight:bold;vertical-align:top;">path</td><td style="vertical-align:top;">:</td><td><div></div></td></tr><tr><td style="font-weight:bold;vertical-align:top;">secure</td><td style="vertical-align:top;">:</td><td><div></div></td></tr><tr><td style="font-weight:bold;vertical-align:top;">version</td><td style="vertical-align:top;">:</td><td><div></div></td></tr></table></div></td></tr><tr><td style="font-weight:bold;vertical-align:top;">session_id_test</td><td style="vertical-align:top;">:</td><td><div>109.172.15.35-5ef601f3-bdeb-431b-aa6e-e898a40b838a<table><tr><td style="font-weight:bold;vertical-align:top;">comment</td><td style="vertical-align:top;">:</td><td><div></div></td></tr><tr><td style="font-weight:bold;vertical-align:top;">domain</td><td style="vertical-align:top;">:</td><td><div></div></td></tr><tr><td style="font-weight:bold;vertical-align:top;">expires</td><td style="vertical-align:top;">:</td><td><div></div></td></tr><tr><td style="font-weight:bold;vertical-align:top;">httponly</td><td style="vertical-align:top;">:</td><td><div></div></td></tr><tr><td style="font-weight:bold;vertical-align:top;">max-age</td><td style="vertical-align:top;">:</td><td><div></div></td></tr><tr><td style="font-weight:bold;vertical-align:top;">path</td><td style="vertical-align:top;">:</td><td><div></div></td></tr><tr><td style="font-weight:bold;vertical-align:top;">secure</td><td style="vertical-align:top;">:</td><td><div></div></td></tr><tr><td style="font-weight:bold;vertical-align:top;">version</td><td style="vertical-align:top;">:</td><td><div></div></td></tr></table></div></td></tr><tr><td style="font-weight:bold;vertical-align:top;">session_id_welcome</td><td style="vertical-align:top;">:</td><td><div>109.172.15.35-e4501077-0fc4-4740-b67c-af19a127bbaa<table><tr><td style="font-weight:bold;vertical-align:top;">comment</td><td style="vertical-align:top;">:</td><td><div></div></td></tr><tr><td style="font-weight:bold;vertical-align:top;">domain</td><td style="vertical-align:top;">:</td><td><div></div></td></tr><tr><td style="font-weight:bold;vertical-align:top;">expires</td><td style="vertical-align:top;">:</td><td><div></div></td></tr><tr><td style="font-weight:bold;vertical-align:top;">httponly</td><td style="vertical-align:top;">:</td><td><div></div></td></tr><tr><td style="font-weight:bold;vertical-align:top;">max-age</td><td style="vertical-align:top;">:</td><td><div></div></td></tr><tr><td style="font-weight:bold;vertical-align:top;">path</td><td style="vertical-align:top;">:</td><td><div></div></td></tr><tr><td style="font-weight:bold;vertical-align:top;">secure</td><td style="vertical-align:top;">:</td><td><div></div></td></tr><tr><td style="font-weight:bold;vertical-align:top;">version</td><td style="vertical-align:top;">:</td><td><div></div></td></tr></table></div></td></tr><tr><td style="font-weight:bold;vertical-align:top;">sessionid</td><td style="vertical-align:top;">:</td><td><div>e939ace853bb6db68047bfaedf425d47<table><tr><td style="font-weight:bold;vertical-align:top;">comment</td><td style="vertical-align:top;">:</td><td><div></div></td></tr><tr><td style="font-weight:bold;vertical-align:top;">domain</td><td style="vertical-align:top;">:</td><td><div></div></td></tr><tr><td style="font-weight:bold;vertical-align:top;">expires</td><td style="vertical-align:top;">:</td><td><div></div></td></tr><tr><td style="font-weight:bold;vertical-align:top;">httponly</td><td style="vertical-align:top;">:</td><td><div></div></td></tr><tr><td style="font-weight:bold;vertical-align:top;">max-age</td><td style="vertical-align:top;">:</td><td><div></div></td></tr><tr><td style="font-weight:bold;vertical-align:top;">path</td><td style="vertical-align:top;">:</td><td><div></div></td></tr><tr><td style="font-weight:bold;vertical-align:top;">secure</td><td style="vertical-align:top;">:</td><td><div></div></td></tr><tr><td style="font-weight:bold;vertical-align:top;">version</td><td style="vertical-align:top;">:</td><td><div></div></td></tr></table></div></td></tr></table></div></td></tr><tr><td style="font-weight:bold;vertical-align:top;">env</td><td style="vertical-align:top;">:</td><td><div><table><tr><td style="font-weight:bold;vertical-align:top;">CONTENT_LENGTH</td><td style="vertical-align:top;">:</td><td><div></div></td></tr><tr><td style="font-weight:bold;vertical-align:top;">CONTENT_TYPE</td><td style="vertical-align:top;">:</td><td><div></div></td></tr><tr><td style="font-weight:bold;vertical-align:top;">DOCUMENT_ROOT</td><td style="vertical-align:top;">:</td><td><div>/usr/local/openresty/nginx/html</div></td></tr><tr><td style="font-weight:bold;vertical-align:top;">HTTPS</td><td style="vertical-align:top;">:</td><td><div>on</div></td></tr><tr><td style="font-weight:bold;vertical-align:top;">HTTP_ACCEPT</td><td style="vertical-align:top;">:</td><td><div>text/html,application/xhtml+xml,application/xml;q=0.9,image/webp,*/*;q=0.8</div></td></tr><tr><td style="font-weight:bold;vertical-align:top;">HTTP_ACCEPT_ENCODING</td><td style="vertical-align:top;">:</td><td><div>gzip, deflate, sdch</div></td></tr><tr><td style="font-weight:bold;vertical-align:top;">HTTP_ACCEPT_LANGUAGE</td><td style="vertical-align:top;">:</td><td><div>ru,en;q=0.8,en-US;q=0.6</div></td></tr><tr><td style="font-weight:bold;vertical-align:top;">HTTP_CACHE_CONTROL</td><td style="vertical-align:top;">:</td><td><div>max-age=0</div></td></tr><tr><td style="font-weight:bold;vertical-align:top;">HTTP_CONNECTION</td><td style="vertical-align:top;">:</td><td><div>close</div></td></tr><tr><td style="font-weight:bold;vertical-align:top;">HTTP_COOKIE</td><td style="vertical-align:top;">:</td><td><div>sessionid=e939ace853bb6db68047bfaedf425d47; session_id_welcome=109.172.15.35-e4501077-0fc4-4740-b67c-af19a127bbaa; session_id_books=109.172.15.35-81f6382a-d143-45a6-b4f2-445510872b2d; __utma=133430031.117798768.1404299048.1426480086.1426498492.23; __utmc=133430031; __utmz=133430031.1404299048.1.1.utmcsr=(direct)|utmccn=(direct)|utmcmd=(none); __utmt=1; __utma=134993891.745451564.1404743691.1426532956.1426583025.57; __utmb=134993891.8.10.1426583025; __utmc=134993891; __utmz=134993891.1404743691.1.1.utmcsr=(direct)|utmccn=(direct)|utmcmd=(none); session_id_test=109.172.15.35-5ef601f3-bdeb-431b-aa6e-e898a40b838a; session_id_admin=93.185.176.186-5307d37a-6252-4082-a4b4-427f83975220</div></td></tr><tr><td style="font-weight:bold;vertical-align:top;">HTTP_HOST</td><td style="vertical-align:top;">:</td><td><div>concordance.pythonanywhere.com</div></td></tr><tr><td style="font-weight:bold;vertical-align:top;">HTTP_REFERER</td><td style="vertical-align:top;">:</td><td><div>https://concordance.pythonanywhere.com/test/morpho/search.html</div></td></tr><tr><td style="font-weight:bold;vertical-align:top;">HTTP_USER_AGENT</td><td style="vertical-align:top;">:</td><td><div>Mozilla/5.0 (Windows NT 6.1; WOW64) AppleWebKit/537.36 (KHTML, like Gecko) Chrome/41.0.2272.89 Safari/537.36</div></td></tr><tr><td style="font-weight:bold;vertical-align:top;">HTTP_X_FORWARDED_FOR</td><td style="vertical-align:top;">:</td><td><div>109.172.15.35</div></td></tr><tr><td style="font-weight:bold;vertical-align:top;">HTTP_X_REAL_IP</td><td style="vertical-align:top;">:</td><td><div>109.172.15.35</div></td></tr><tr><td style="font-weight:bold;vertical-align:top;">PATH_INFO</td><td style="vertical-align:top;">:</td><td><div>/test/morpho/search_result/NOUN/voct</div></td></tr><tr><td style="font-weight:bold;vertical-align:top;">QUERY_STRING</td><td style="vertical-align:top;">:</td><td><div></div></td></tr><tr><td style="font-weight:bold;vertical-align:top;">REMOTE_ADDR</td><td style="vertical-align:top;">:</td><td><div>10.157.107.232</div></td></tr><tr><td style="font-weight:bold;vertical-align:top;">REMOTE_PORT</td><td style="vertical-align:top;">:</td><td><div>39637</div></td></tr><tr><td style="font-weight:bold;vertical-align:top;">REQUEST_METHOD</td><td style="vertical-align:top;">:</td><td><div>GET</div></td></tr><tr><td style="font-weight:bold;vertical-align:top;">REQUEST_URI</td><td style="vertical-align:top;">:</td><td><div>/test/morpho/search_result/NOUN/voct</div></td></tr><tr><td style="font-weight:bold;vertical-align:top;">SCRIPT_NAME</td><td style="vertical-align:top;">:</td><td><div></div></td></tr><tr><td style="font-weight:bold;vertical-align:top;">SERVER_NAME</td><td style="vertical-align:top;">:</td><td><div>concordance.pythonanywhere.com</div></td></tr><tr><td style="font-weight:bold;vertical-align:top;">SERVER_PORT</td><td style="vertical-align:top;">:</td><td><div>443</div></td></tr><tr><td style="font-weight:bold;vertical-align:top;">SERVER_PROTOCOL</td><td style="vertical-align:top;">:</td><td><div>HTTP/1.1</div></td></tr><tr><td style="font-weight:bold;vertical-align:top;">app_folders</td><td style="vertical-align:top;">:</td><td><div>set([&#x27;/home/concordance/web2py/applications/admin/&#x27;, &#x27;/home/concordance/web2py/applications/test/&#x27;])</div></td></tr><tr><td style="font-weight:bold;vertical-align:top;">applications_parent</td><td style="vertical-align:top;">:</td><td><div>/home/concordance/web2py</div></td></tr><tr><td style="font-weight:bold;vertical-align:top;">content_length</td><td style="vertical-align:top;">:</td><td><div></div></td></tr><tr><td style="font-weight:bold;vertical-align:top;">content_type</td><td style="vertical-align:top;">:</td><td><div></div></td></tr><tr><td style="font-weight:bold;vertical-align:top;">db_sessions</td><td style="vertical-align:top;">:</td><td><div>set([])</div></td></tr><tr><td style="font-weight:bold;vertical-align:top;">debugging</td><td style="vertical-align:top;">:</td><td><div>True</div></td></tr><tr><td style="font-weight:bold;vertical-align:top;">document_root</td><td style="vertical-align:top;">:</td><td><div>/usr/local/openresty/nginx/html</div></td></tr><tr><td style="font-weight:bold;vertical-align:top;">gluon_parent</td><td style="vertical-align:top;">:</td><td><div>/home/concordance/web2py</div></td></tr><tr><td style="font-weight:bold;vertical-align:top;">http_accept</td><td style="vertical-align:top;">:</td><td><div>text/html,application/xhtml+xml,application/xml;q=0.9,image/webp,*/*;q=0.8</div></td></tr><tr><td style="font-weight:bold;vertical-align:top;">http_accept_encoding</td><td style="vertical-align:top;">:</td><td><div>gzip, deflate, sdch</div></td></tr><tr><td style="font-weight:bold;vertical-align:top;">http_accept_language</td><td style="vertical-align:top;">:</td><td><div>ru,en;q=0.8,en-US;q=0.6</div></td></tr><tr><td style="font-weight:bold;vertical-align:top;">http_cache_control</td><td style="vertical-align:top;">:</td><td><div>max-age=0</div></td></tr><tr><td style="font-weight:bold;vertical-align:top;">http_connection</td><td style="vertical-align:top;">:</td><td><div>close</div></td></tr><tr><td style="font-weight:bold;vertical-align:top;">http_cookie</td><td style="vertical-align:top;">:</td><td><div>sessionid=e939ace853bb6db68047bfaedf425d47; session_id_welcome=109.172.15.35-e4501077-0fc4-4740-b67c-af19a127bbaa; session_id_books=109.172.15.35-81f6382a-d143-45a6-b4f2-445510872b2d; __utma=133430031.117798768.1404299048.1426480086.1426498492.23; __utmc=133430031; __utmz=133430031.1404299048.1.1.utmcsr=(direct)|utmccn=(direct)|utmcmd=(none); __utmt=1; __utma=134993891.745451564.1404743691.1426532956.1426583025.57; __utmb=134993891.8.10.1426583025; __utmc=134993891; __utmz=134993891.1404743691.1.1.utmcsr=(direct)|utmccn=(direct)|utmcmd=(none); session_id_test=109.172.15.35-5ef601f3-bdeb-431b-aa6e-e898a40b838a; session_id_admin=93.185.176.186-5307d37a-6252-4082-a4b4-427f83975220</div></td></tr><tr><td style="font-weight:bold;vertical-align:top;">http_host</td><td style="vertical-align:top;">:</td><td><div>concordance.pythonanywhere.com</div></td></tr><tr><td style="font-weight:bold;vertical-align:top;">http_referer</td><td style="vertical-align:top;">:</td><td><div>https://concordance.pythonanywhere.com/test/morpho/search.html</div></td></tr><tr><td style="font-weight:bold;vertical-align:top;">http_user_agent</td><td style="vertical-align:top;">:</td><td><div>Mozilla/5.0 (Windows NT 6.1; WOW64) AppleWebKit/537.36 (KHTML, like Gecko) Chrome/41.0.2272.89 Safari/537.36</div></td></tr><tr><td style="font-weight:bold;vertical-align:top;">http_x_forwarded_for</td><td style="vertical-align:top;">:</td><td><div>109.172.15.35</div></td></tr><tr><td style="font-weight:bold;vertical-align:top;">http_x_real_ip</td><td style="vertical-align:top;">:</td><td><div>109.172.15.35</div></td></tr><tr><td style="font-weight:bold;vertical-align:top;">https</td><td style="vertical-align:top;">:</td><td><div>on</div></td></tr><tr><td style="font-weight:bold;vertical-align:top;">is_jython</td><td style="vertical-align:top;">:</td><td><div>False</div></td></tr><tr><td style="font-weight:bold;vertical-align:top;">is_pypy</td><td style="vertical-align:top;">:</td><td><div>False</div></td></tr><tr><td style="font-weight:bold;vertical-align:top;">is_source</td><td style="vertical-align:top;">:</td><td><div>True</div></td></tr><tr><td style="font-weight:bold;vertical-align:top;">local_hosts</td><td style="vertical-align:top;">:</td><td><div><table><tr><td><div>giles-liveweb1</div></td></tr><tr><td><div>::ffff:127.0.0.1</div></td></tr><tr><td><div>::1</div></td></tr><tr><td><div>50.19.109.98</div></td></tr><tr><td><div>localhost</div></td></tr><tr><td><div>concordance.pythonanywhere.com</div></td></tr><tr><td><div>127.0.0.1</div></td></tr></table></div></td></tr><tr><td style="font-weight:bold;vertical-align:top;">path_info</td><td style="vertical-align:top;">:</td><td><div>/test/morpho/search_result/NOUN/voct</div></td></tr><tr><td style="font-weight:bold;vertical-align:top;">query_string</td><td style="vertical-align:top;">:</td><td><div></div></td></tr><tr><td style="font-weight:bold;vertical-align:top;">remote_addr</td><td style="vertical-align:top;">:</td><td><div>10.157.107.232</div></td></tr><tr><td style="font-weight:bold;vertical-align:top;">remote_port</td><td style="vertical-align:top;">:</td><td><div>39637</div></td></tr><tr><td style="font-weight:bold;vertical-align:top;">request_method</td><td style="vertical-align:top;">:</td><td><div>GET</div></td></tr><tr><td style="font-weight:bold;vertical-align:top;">request_uri</td><td style="vertical-align:top;">:</td><td><div>/test/morpho/search_result/NOUN/voct</div></td></tr><tr><td style="font-weight:bold;vertical-align:top;">script_name</td><td style="vertical-align:top;">:</td><td><div></div></td></tr><tr><td style="font-weight:bold;vertical-align:top;">server_name</td><td style="vertical-align:top;">:</td><td><div>concordance.pythonanywhere.com</div></td></tr><tr><td style="font-weight:bold;vertical-align:top;">server_port</td><td style="vertical-align:top;">:</td><td><div>443</div></td></tr><tr><td style="font-weight:bold;vertical-align:top;">server_protocol</td><td style="vertical-align:top;">:</td><td><div>HTTP/1.1</div></td></tr><tr><td style="font-weight:bold;vertical-align:top;">uwsgi.node</td><td style="vertical-align:top;">:</td><td><div>giles-liveweb1</div></td></tr><tr><td style="font-weight:bold;vertical-align:top;">uwsgi.version</td><td style="vertical-align:top;">:</td><td><div>2.0.5.1</div></td></tr><tr><td style="font-weight:bold;vertical-align:top;">uwsgi_node</td><td style="vertical-align:top;">:</td><td><div>giles-liveweb1</div></td></tr><tr><td style="font-weight:bold;vertical-align:top;">uwsgi_version</td><td style="vertical-align:top;">:</td><td><div>2.0.5.1</div></td></tr><tr><td style="font-weight:bold;vertical-align:top;">web2py_original_uri</td><td style="vertical-align:top;">:</td><td><div>/test/morpho/search_result/NOUN/voct</div></td></tr><tr><td style="font-weight:bold;vertical-align:top;">web2py_path</td><td style="vertical-align:top;">:</td><td><div>/home/concordance/web2py</div></td></tr><tr><td style="font-weight:bold;vertical-align:top;">web2py_version</td><td style="vertical-align:top;">:</td><td><div>2.9.5-stable+timestamp.2014.03.16.02.35.39</div></td></tr><tr><td style="font-weight:bold;vertical-align:top;">wsgi.errors</td><td style="vertical-align:top;">:</td><td><div>&lt;uwsgi_file__bin_user_wsgi_wrapper.ErrorLogFile object at 0x7f3fd70fae10&gt;</div></td></tr><tr><td style="font-weight:bold;vertical-align:top;">wsgi.file_wrapper</td><td style="vertical-align:top;">:</td><td><div>&lt;built-in function uwsgi_sendfile&gt;</div></td></tr><tr><td style="font-weight:bold;vertical-align:top;">wsgi.input</td><td style="vertical-align:top;">:</td><td><div>&lt;uwsgi._Input object at 0x7f3fc4594a08&gt;</div></td></tr><tr><td style="font-weight:bold;vertical-align:top;">wsgi.multiprocess</td><td style="vertical-align:top;">:</td><td><div>True</div></td></tr><tr><td style="font-weight:bold;vertical-align:top;">wsgi.multithread</td><td style="vertical-align:top;">:</td><td><div>False</div></td></tr><tr><td style="font-weight:bold;vertical-align:top;">wsgi.run_once</td><td style="vertical-align:top;">:</td><td><div>False</div></td></tr><tr><td style="font-weight:bold;vertical-align:top;">wsgi.url_scheme</td><td style="vertical-align:top;">:</td><td><div>https</div></td></tr><tr><td style="font-weight:bold;vertical-align:top;">wsgi.version</td><td style="vertical-align:top;">:</td><td><div><table><tr><td><div>1</div></td></tr><tr><td><div>0</div></td></tr></table></div></td></tr><tr><td style="font-weight:bold;vertical-align:top;">wsgi_errors</td><td style="vertical-align:top;">:</td><td><div>&lt;uwsgi_file__bin_user_wsgi_wrapper.ErrorLogFile object at 0x7f3fd70fae10&gt;</div></td></tr><tr><td style="font-weight:bold;vertical-align:top;">wsgi_file_wrapper</td><td style="vertical-align:top;">:</td><td><div>&lt;built-in function uwsgi_sendfile&gt;</div></td></tr><tr><td style="font-weight:bold;vertical-align:top;">wsgi_input</td><td style="vertical-align:top;">:</td><td><div>&lt;uwsgi._Input object at 0x7f3fc4594a08&gt;</div></td></tr><tr><td style="font-weight:bold;vertical-align:top;">wsgi_multiprocess</td><td style="vertical-align:top;">:</td><td><div>True</div></td></tr><tr><td style="font-weight:bold;vertical-align:top;">wsgi_multithread</td><td style="vertical-align:top;">:</td><td><div>False</div></td></tr><tr><td style="font-weight:bold;vertical-align:top;">wsgi_run_once</td><td style="vertical-align:top;">:</td><td><div>False</div></td></tr><tr><td style="font-weight:bold;vertical-align:top;">wsgi_url_scheme</td><td style="vertical-align:top;">:</td><td><div>https</div></td></tr><tr><td style="font-weight:bold;vertical-align:top;">wsgi_version</td><td style="vertical-align:top;">:</td><td><div><table><tr><td><div>1</div></td></tr><tr><td><div>0</div></td></tr></table></div></td></tr></table></div></td></tr><tr><td style="font-weight:bold;vertical-align:top;">extension</td><td style="vertical-align:top;">:</td><td><div>html</div></td></tr><tr><td style="font-weight:bold;vertical-align:top;">folder</td><td style="vertical-align:top;">:</td><td><div>/home/concordance/web2py/applications/test/</div></td></tr><tr><td style="font-weight:bold;vertical-align:top;">function</td><td style="vertical-align:top;">:</td><td><div>search_result</div></td></tr><tr><td style="font-weight:bold;vertical-align:top;">global_settings</td><td style="vertical-align:top;">:</td><td><div><table><tr><td style="font-weight:bold;vertical-align:top;">app_folders</td><td style="vertical-align:top;">:</td><td><div>set([&#x27;/home/concordance/web2py/applications/admin/&#x27;, &#x27;/home/concordance/web2py/applications/test/&#x27;])</div></td></tr><tr><td style="font-weight:bold;vertical-align:top;">applications_parent</td><td style="vertical-align:top;">:</td><td><div>/home/concordance/web2py</div></td></tr><tr><td style="font-weight:bold;vertical-align:top;">db_sessions</td><td style="vertical-align:top;">:</td><td><div>set([])</div></td></tr><tr><td style="font-weight:bold;vertical-align:top;">debugging</td><td style="vertical-align:top;">:</td><td><div>True</div></td></tr><tr><td style="font-weight:bold;vertical-align:top;">gluon_parent</td><td style="vertical-align:top;">:</td><td><div>/home/concordance/web2py</div></td></tr><tr><td style="font-weight:bold;vertical-align:top;">is_jython</td><td style="vertical-align:top;">:</td><td><div>False</div></td></tr><tr><td style="font-weight:bold;vertical-align:top;">is_pypy</td><td style="vertical-align:top;">:</td><td><div>False</div></td></tr><tr><td style="font-weight:bold;vertical-align:top;">is_source</td><td style="vertical-align:top;">:</td><td><div>True</div></td></tr><tr><td style="font-weight:bold;vertical-align:top;">local_hosts</td><td style="vertical-align:top;">:</td><td><div><table><tr><td><div>giles-liveweb1</div></td></tr><tr><td><div>::ffff:127.0.0.1</div></td></tr><tr><td><div>::1</div></td></tr><tr><td><div>50.19.109.98</div></td></tr><tr><td><div>localhost</div></td></tr><tr><td><div>concordance.pythonanywhere.com</div></td></tr><tr><td><div>127.0.0.1</div></td></tr></table></div></td></tr><tr><td style="font-weight:bold;vertical-align:top;">web2py_version</td><td style="vertical-align:top;">:</td><td><div>2.9.5-stable+timestamp.2014.03.16.02.35.39</div></td></tr></table></div></td></tr><tr><td style="font-weight:bold;vertical-align:top;">is_https</td><td style="vertical-align:top;">:</td><td><div>True</div></td></tr><tr><td style="font-weight:bold;vertical-align:top;">is_local</td><td style="vertical-align:top;">:</td><td><div>False</div></td></tr><tr><td style="font-weight:bold;vertical-align:top;">is_restful</td><td style="vertical-align:top;">:</td><td><div>False</div></td></tr><tr><td style="font-weight:bold;vertical-align:top;">now</td><td style="vertical-align:top;">:</td><td><div>datetime.datetime(2015, 3, 17, 9, 26, 32, 556519)</div></td></tr><tr><td style="font-weight:bold;vertical-align:top;">raw_args</td><td style="vertical-align:top;">:</td><td><div>NOUN/voct</div></td></tr><tr><td style="font-weight:bold;vertical-align:top;">raw_extension</td><td style="vertical-align:top;">:</td><td><div>None</div></td></tr><tr><td style="font-weight:bold;vertical-align:top;">url</td><td style="vertical-align:top;">:</td><td><div>/test/morpho/search_result/NOUN/voct</div></td></tr><tr><td style="font-weight:bold;vertical-align:top;">utcnow</td><td style="vertical-align:top;">:</td><td><div>datetime.datetime(2015, 3, 17, 9, 26, 32, 556537)</div></td></tr><tr><td style="font-weight:bold;vertical-align:top;">uuid</td><td style="vertical-align:top;">:</td><td><div>test/109.172.15.35.2015-03-17.09-26-32.dbbe9394-90f7-4d83-93f5-4010f39c2947</div></td></tr><tr><td style="font-weight:bold;vertical-align:top;">wsgi</td><td style="vertical-align:top;">:</td><td><div>&lt;gluon.main.LazyWSGI object at 0x7f3fc44fad10&gt;</div></td></tr></table></div>'
tRp58
sS'frames'
p59
(lp60
(dp61
S'file'
p62
S'/home/concordance/web2py/gluon/restricted.py'
p63
sS'dump'
p64
(dp65
S'environment'
p66
S"{'A': <class 'gluon.html.A'>, 'ANY_OF': <class 'gluon.validators.ANY_OF'>, 'Auth': <class 'gluon.tools.Auth'>, 'B': <class 'gluon.html.B'>, 'BEAUTIFY': <class 'gluon.html.BEAUTIFY'>, 'BODY': <class 'gluon.html.BODY'>, 'BR': <class 'gluon.html.BR'>, 'BUTTON': <class 'gluon.html.BUTTON'>, 'CAT': <class 'gluon.html.CAT'>, 'CENTER': <class 'gluon.html.CENTER'>, ...}"
p67
sS'ccode'
p68
S'<code object <module> at 0x7f3fc57374b0, file "/...applications/test/controllers/morpho.py", line 2>'
p69
ssS'lnum'
p70
I220
sS'lines'
p71
(dp72
I224
S'        # do not encapsulate (obfuscate) the original RestrictedError'
p73
sI215
S'    try:'
p74
sI216
S'        if isinstance(code, types.CodeType):'
p75
sI217
S'            ccode = code'
p76
sI218
S'        else:'
p77
sI219
S'            ccode = compile2(code, layer)'
p78
sI220
S'        exec ccode in environment'
p79
sI221
S'    except HTTP:'
p80
sI222
S'        raise'
p81
sI223
S'    except RestrictedError:'
p82
ssS'call'
p83
S"(code='# coding: utf8\\nimport pymorphy2\\nmorph = pymorphy...\\n\\nresponse._vars=response._caller(search_result)\\n', environment={'A': <class 'gluon.html.A'>, 'ANY_OF': <class 'gluon.validators.ANY_OF'>, 'Auth': <class 'gluon.tools.Auth'>, 'B': <class 'gluon.html.B'>, 'BEAUTIFY': <class 'gluon.html.BEAUTIFY'>, 'BODY': <class 'gluon.html.BODY'>, 'BR': <class 'gluon.html.BR'>, 'BUTTON': <class 'gluon.html.BUTTON'>, 'CAT': <class 'gluon.html.CAT'>, 'CENTER': <class 'gluon.html.CENTER'>, ...}, layer='/home/concordance/web2py/applications/test/controllers/morpho.py')"
p84
sS'func'
p85
S'restricted'
p86
sa(dp87
g62
S'/home/concordance/web2py/applications/test/controllers/morpho.py'
p88
sg64
(dp89
sg70
I135
sg71
(dp90
I128
S'    colours2=[trymysql((trymysql.allword.word==all)&(trymysql.allword.title.belongs(base_id0))).count() for all in color]'
p91
sI129
S'    all_colours = sum([int(x) for x in colours])'
p92
sI130
S'    all_colours2 = sum([int(x) for x in colours2])'
p93
sI131
S'    title_1 = trymysql(trymysql.group_text.id==request.args(0)).select().first()'
p94
sI132
S'    title_2 = trymysql(trymysql.group_text.id==request.args(1)).select().first()'
p95
sI133
S'    return dict(colours=colours, colours2=colours2, all_colours=all_colours, all_colours2=all_colours2, title1=title_1.title, author1=title_1.author.family, title2=title_2.title, author2=title_2.author.family)'
p96
sI124
S'def draft():'
p97
sI125
S'    base_id=[int(all.id) for all in trymysql(trymysql.text1.group_text==request.args(0)).select()]'
p98
sI126
S'    base_id0=[int(all.id) for all in trymysql(trymysql.text1.group_text==request.args(1)).select()]'
p99
sI127
S'    colours=[trymysql((trymysql.allword.word==all)&(trymysql.allword.title.belongs(base_id))).count() for all in color]'
p100
ssg83
S'()'
p101
sg85
S'<module>'
p102
sa(dp103
g62
S'/home/concordance/web2py/gluon/globals.py'
p104
sg64
(dp105
S'self'
p106
S'undefined'
p107
sS'f'
S'<function search_result>'
p108
ssg70
I385
sg71
(dp109
I384
S'        self._vars = None'
p110
sI385
S'        self._caller = lambda f: f()'
p111
sI386
S'        self._view_environment = None'
p112
sI387
S'        self._custom_commit = None'
p113
sI388
S'        self._custom_rollback = None'
p114
sI389
S''
sI380
S'        self.menu = []             # used by the default view layout'
p115
sI381
S'        self.files = []            # used by web2py_ajax.html'
p116
sI382
S'        self.generic_patterns = []  # patterns to allow generic views'
p117
sI383
S"        self.delimiters = ('{{', '}}')"
p118
ssg83
S'(f=<function search_result>)'
p119
sg85
S'<lambda>'
p120
sa(dp121
g62
S'/home/concordance/web2py/applications/test/controllers/morpho.py'
p122
sg64
(dp123
S'string'
p124
S"[' \\xd1\\x82\\xd0\\xb0\\xd0\\xb9\\xd0\\xbd\\xd1\\x83', ' \\xd1\\x80\\xd0\\xb0\\xd0\\xb7\\xd1\\x80\\xd1\\x83\\xd1\\x88\\xd0\\xb8\\xd1\\x82', ' \\xd1\\x81\\xd0\\xbb\\xd0\\xbe\\xd0\\xb2\\xd0\\xbe', ' ...', ' \\xd0\\x9f\\xd0\\xbe\\xd0\\xbc\\xd0\\xb8\\xd0\\xbb\\xd1\\x83\\xd0\\xb9', ',', '\\xd0\\xb1\\xd0\\xbe\\xd0\\xb6\\xd0\\xb5&', ',', ' \\xd0\\xbd\\xd0\\xbe\\xd1\\x87\\xd0\\xbd\\xd1\\x8b\\xd0\\xb5', ' \\xd0\\xb4\\xd1\\x83\\xd1\\x88\\xd0\\xb8', '!', ' \\xd0\\x9d\\xd0\\xb0']"
p125
sS'author'
p126
S"('\\xd0\\x90\\xd0\\xbb\\xd0\\xb5\\xd0\\xba\\xd1\\x81\\xd0\\xb0\\xd0\\xbd\\xd0\\xb4\\xd1\\x80', '\\xd0\\x91\\xd0\\xbb\\xd0\\xbe\\xd0\\xba')"
p127
sS'title'
p128
S"'\\xd0\\xaf \\xd0\\xb6\\xd0\\xb4\\xd1\\x83 \\xd0\\xbf\\xd1\\x80\\xd0\\xb8\\xd0\\xb7\\xd1\\x8b\\xd0\\xb2\\xd0\\xb0, \\xd0\\xb8\\xd1\\x89\\xd1\\x83 \\xd0\\xbe\\xd1\\x82\\xd0\\xb2\\xd0\\xb5\\xd1\\x82\\xd0\\xb0...'"
p129
sS'title1'
p130
S"<Row {'dmonth_writing': None, 'dyear_writing': N...: '', 'v': '', 'epigraph': '', 'group_text': 2L}>"
p131
sS'title1.id'
p132
S'101L'
p133
sS'strings.append'
p134
S'<built-in method append of list object>'
p135
sS'builtinint'
p136
S"<type 'int'>"
p137
sS'strings'
p138
S'[]'
p139
ssg70
I121
sg71
(dp140
I116
S'                if x == all.id:'
p141
sI117
S"                    s=str(for_string.lemma) + str('&')"
p142
sI118
S'                else:'
p143
sI119
S'                    s=" " + str(for_string.lemma)'
p144
sI120
S'            string.append(s)'
p145
sI121
S'        strings.append((string +"...", title, author, int(title1.id)))'
p146
sI122
S'    return dict(p = selected_partos, f = selected_form, strings=strings)'
p147
sI123
S''
sI124
S'def draft():'
p148
sI125
S'    base_id=[int(all.id) for all in trymysql(trymysql.text1.group_text==request.args(0)).select()]'
p149
ssg83
S'()'
p150
sg85
S'search_result'
p151
sasS'pyver'
p152
S'Python 2.7.6: /usr/local/bin/uwsgi (prefix: /usr)'
p153
sS'session'
p154
g57
(S's\xc6\x01\x00\x00<div><table><tr><td style="font-weight:bold;vertical-align:top;">flash</td><td style="vertical-align:top;">:</td><td><div>None</div></td></tr><tr><td style="font-weight:bold;vertical-align:top;">last_orderby</td><td style="vertical-align:top;">:</td><td><div>None</div></td></tr><tr><td style="font-weight:bold;vertical-align:top;">last_query</td><td style="vertical-align:top;">:</td><td><div>trymysql.allword.title&gt;3330</div></td></tr></table></div>'
tRp155
sS'etype'
p156
S"<type 'exceptions.TypeError'>"
p157
sS'date'
p158
S'Tue Mar 17 09:26:38 2015'
p159
sS'response'
p160
g57
(S's\x8e\x1e\x00\x00<div><table><tr><td style="font-weight:bold;vertical-align:top;">body</td><td style="vertical-align:top;">:</td><td><div>&lt;cStringIO.StringO object at 0x7f3fba4da068&gt;</div></td></tr><tr><td style="font-weight:bold;vertical-align:top;">cookies</td><td style="vertical-align:top;">:</td><td><div><table><tr><td style="font-weight:bold;vertical-align:top;">session_id_test</td><td style="vertical-align:top;">:</td><td><div>109.172.15.35-5ef601f3-bdeb-431b-aa6e-e898a40b838a<table><tr><td style="font-weight:bold;vertical-align:top;">comment</td><td style="vertical-align:top;">:</td><td><div></div></td></tr><tr><td style="font-weight:bold;vertical-align:top;">domain</td><td style="vertical-align:top;">:</td><td><div></div></td></tr><tr><td style="font-weight:bold;vertical-align:top;">expires</td><td style="vertical-align:top;">:</td><td><div></div></td></tr><tr><td style="font-weight:bold;vertical-align:top;">httponly</td><td style="vertical-align:top;">:</td><td><div></div></td></tr><tr><td style="font-weight:bold;vertical-align:top;">max-age</td><td style="vertical-align:top;">:</td><td><div></div></td></tr><tr><td style="font-weight:bold;vertical-align:top;">path</td><td style="vertical-align:top;">:</td><td><div>/</div></td></tr><tr><td style="font-weight:bold;vertical-align:top;">secure</td><td style="vertical-align:top;">:</td><td><div></div></td></tr><tr><td style="font-weight:bold;vertical-align:top;">version</td><td style="vertical-align:top;">:</td><td><div></div></td></tr></table></div></td></tr></table></div></td></tr><tr><td style="font-weight:bold;vertical-align:top;">delimiters</td><td style="vertical-align:top;">:</td><td><div><table><tr><td><div>{{</div></td></tr><tr><td><div>}}</div></td></tr></table></div></td></tr><tr><td style="font-weight:bold;vertical-align:top;">files</td><td style="vertical-align:top;">:</td><td><div><table></table></div></td></tr><tr><td style="font-weight:bold;vertical-align:top;">flash</td><td style="vertical-align:top;">:</td><td><div></div></td></tr><tr><td style="font-weight:bold;vertical-align:top;">generic_patterns</td><td style="vertical-align:top;">:</td><td><div><table></table></div></td></tr><tr><td style="font-weight:bold;vertical-align:top;">google_analytics_id</td><td style="vertical-align:top;">:</td><td><div>UA-52567545-1</div></td></tr><tr><td style="font-weight:bold;vertical-align:top;">headers</td><td style="vertical-align:top;">:</td><td><div><table><tr><td style="font-weight:bold;vertical-align:top;">X-Powered-By</td><td style="vertical-align:top;">:</td><td><div>web2py</div></td></tr></table></div></td></tr><tr><td style="font-weight:bold;vertical-align:top;">logo</td><td style="vertical-align:top;">:</td><td><div><a class="brand" href="http://concordances.ru"><b>concor<span>dances</span></b>.ru</a></div></td></tr><tr><td style="font-weight:bold;vertical-align:top;">menu</td><td style="vertical-align:top;">:</td><td><div><table><tr><td><div><table><tr><td><div>Home</div></td></tr><tr><td><div>False</div></td></tr><tr><td><div>/test/default/index</div></td></tr><tr><td><div><table></table></div></td></tr></table></div></td></tr><tr><td><div><table><tr><td><div><span class="highlighted">web2py</span></div></td></tr><tr><td><div>False</div></td></tr><tr><td><div>http://concordances.ru</div></td></tr><tr><td><div><table><tr><td><div><table><tr><td><div>\xd0\x9e \xd0\xbf\xd1\x80\xd0\xbe\xd0\xb5\xd0\xba\xd1\x82\xd0\xb5</div></td></tr><tr><td><div>False</div></td></tr><tr><td><div>/admin/default/about/test</div></td></tr></table></div></td></tr><tr><td><div><table><tr><td><div>\xd0\x90\xd0\xb4\xd0\xbc\xd0\xb8\xd0\xbd\xd0\xba\xd0\xb0</div></td></tr><tr><td><div>False</div></td></tr><tr><td><div>/admin/default/edit/test/controllers/morpho.py</div></td></tr></table></div></td></tr></table></div></td></tr></table></div></td></tr></table></div></td></tr><tr><td style="font-weight:bold;vertical-align:top;">meta</td><td style="vertical-align:top;">:</td><td><div><table><tr><td style="font-weight:bold;vertical-align:top;">author</td><td style="vertical-align:top;">:</td><td><div>Maria Levchenko &lt;marylevchenko@gmail.com&gt;</div></td></tr><tr><td style="font-weight:bold;vertical-align:top;">generator</td><td style="vertical-align:top;">:</td><td><div>\xd0\xa7\xd0\xb0\xd1\x81\xd1\x82\xd0\xbe\xd1\x82\xd0\xbd\xd1\x8b\xd0\xb9 \xd1\x81\xd0\xbb\xd0\xbe\xd0\xb2\xd0\xb0\xd1\x80\xd1\x8c \xd1\x80\xd1\x83\xd1\x81\xd1\x81\xd0\xba\xd0\xbe\xd0\xb9 \xd0\xbb\xd0\xb8\xd1\x82\xd0\xb5\xd1\x80\xd0\xb0\xd1\x82\xd1\x83\xd1\x80\xd1\x8b</div></td></tr><tr><td style="font-weight:bold;vertical-align:top;">keywords</td><td style="vertical-align:top;">:</td><td><div>concordance, natural language processing, critics</div></td></tr></table></div></td></tr><tr><td style="font-weight:bold;vertical-align:top;">models_to_run</td><td style="vertical-align:top;">:</td><td><div><table><tr><td><div>^\\w+\\.py$</div></td></tr><tr><td><div>^morpho/\\w+\\.py$</div></td></tr><tr><td><div>^morpho/search_result/\\w+\\.py$</div></td></tr></table></div></td></tr><tr><td style="font-weight:bold;vertical-align:top;">postprocessing</td><td style="vertical-align:top;">:</td><td><div><table></table></div></td></tr><tr><td style="font-weight:bold;vertical-align:top;">session_client</td><td style="vertical-align:top;">:</td><td><div>109.172.15.35</div></td></tr><tr><td style="font-weight:bold;vertical-align:top;">session_cookie_compression_level</td><td style="vertical-align:top;">:</td><td><div>None</div></td></tr><tr><td style="font-weight:bold;vertical-align:top;">session_cookie_expires</td><td style="vertical-align:top;">:</td><td><div>None</div></td></tr><tr><td style="font-weight:bold;vertical-align:top;">session_cookie_key</td><td style="vertical-align:top;">:</td><td><div>None</div></td></tr><tr><td style="font-weight:bold;vertical-align:top;">session_data_name</td><td style="vertical-align:top;">:</td><td><div>session_data_test</div></td></tr><tr><td style="font-weight:bold;vertical-align:top;">session_file</td><td style="vertical-align:top;">:</td><td><div>&lt;open file &#x27;/home/concordance/web2py/applications/test/sessions/109.172.15.35-5ef601f3-bdeb-431b-aa6e-e898a40b838a&#x27;, mode &#x27;rb+&#x27; at 0x7f3fcf927270&gt;</div></td></tr><tr><td style="font-weight:bold;vertical-align:top;">session_filename</td><td style="vertical-align:top;">:</td><td><div>/home/concordance/web2py/applications/test/sessions/109.172.15.35-5ef601f3-bdeb-431b-aa6e-e898a40b838a</div></td></tr><tr><td style="font-weight:bold;vertical-align:top;">session_hash</td><td style="vertical-align:top;">:</td><td><div>497edc6758f36d4e203ed04b2cbeea87</div></td></tr><tr><td style="font-weight:bold;vertical-align:top;">session_id</td><td style="vertical-align:top;">:</td><td><div>109.172.15.35-5ef601f3-bdeb-431b-aa6e-e898a40b838a</div></td></tr><tr><td style="font-weight:bold;vertical-align:top;">session_id_name</td><td style="vertical-align:top;">:</td><td><div>session_id_test</div></td></tr><tr><td style="font-weight:bold;vertical-align:top;">session_locked</td><td style="vertical-align:top;">:</td><td><div>True</div></td></tr><tr><td style="font-weight:bold;vertical-align:top;">session_masterapp</td><td style="vertical-align:top;">:</td><td><div>test</div></td></tr><tr><td style="font-weight:bold;vertical-align:top;">session_new</td><td style="vertical-align:top;">:</td><td><div>False</div></td></tr><tr><td style="font-weight:bold;vertical-align:top;">session_storage_type</td><td style="vertical-align:top;">:</td><td><div>file</div></td></tr><tr><td style="font-weight:bold;vertical-align:top;">status</td><td style="vertical-align:top;">:</td><td><div>200</div></td></tr><tr><td style="font-weight:bold;vertical-align:top;">subtitle</td><td style="vertical-align:top;">:</td><td><div></div></td></tr><tr><td style="font-weight:bold;vertical-align:top;">title</td><td style="vertical-align:top;">:</td><td><div>Test</div></td></tr><tr><td style="font-weight:bold;vertical-align:top;">view</td><td style="vertical-align:top;">:</td><td><div>morpho/search_result.html</div></td></tr></table></div>'
tRp161
sS'locals'
p162
(dp163
S'all'
p164
S"<Row {'partos': 'NOUN', 'number': 'sing', 'warni...'None', 'voice': 'None', 'transitivity': 'None'}>"
p165
sS'string'
p166
S"[' \\xd1\\x82\\xd0\\xb0\\xd0\\xb9\\xd0\\xbd\\xd1\\x83', ' \\xd1\\x80\\xd0\\xb0\\xd0\\xb7\\xd1\\x80\\xd1\\x83\\xd1\\x88\\xd0\\xb8\\xd1\\x82', ' \\xd1\\x81\\xd0\\xbb\\xd0\\xbe\\xd0\\xb2\\xd0\\xbe', ' ...', ' \\xd0\\x9f\\xd0\\xbe\\xd0\\xbc\\xd0\\xb8\\xd0\\xbb\\xd1\\x83\\xd0\\xb9', ',', '\\xd0\\xb1\\xd0\\xbe\\xd0\\xb6\\xd0\\xb5&', ',', ' \\xd0\\xbd\\xd0\\xbe\\xd1\\x87\\xd0\\xbd\\xd1\\x8b\\xd0\\xb5', ' \\xd0\\xb4\\xd1\\x83\\xd1\\x88\\xd0\\xb8', '!', ' \\xd0\\x9d\\xd0\\xb0']"
p167
sS'title'
p168
S"'\\xd0\\xaf \\xd0\\xb6\\xd0\\xb4\\xd1\\x83 \\xd0\\xbf\\xd1\\x80\\xd0\\xb8\\xd0\\xb7\\xd1\\x8b\\xd0\\xb2\\xd0\\xb0, \\xd0\\xb8\\xd1\\x89\\xd1\\x83 \\xd0\\xbe\\xd1\\x82\\xd0\\xb2\\xd0\\xb5\\xd1\\x82\\xd0\\xb0...'"
p169
sS'selected_partos'
p170
S"'NOUN'"
p171
sS'author'
p172
S"('\\xd0\\x90\\xd0\\xbb\\xd0\\xb5\\xd0\\xba\\xd1\\x81\\xd0\\xb0\\xd0\\xbd\\xd0\\xb4\\xd1\\x80', '\\xd0\\x91\\xd0\\xbb\\xd0\\xbe\\xd0\\xba')"
p173
sS'title1'
p174
S"<Row {'dmonth_writing': None, 'dyear_writing': N...: '', 'v': '', 'epigraph': '', 'group_text': 2L}>"
p175
sS's'
S"' \\xd0\\x9d\\xd0\\xb0'"
p176
sS'location'
p177
S"'76'"
p178
sS'words'
p179
S'<Rows (133)>'
p180
sS'for_string'
p181
S"<Row {'partos': 'PREP', 'number': 'None', 'warni...'None', 'voice': 'None', 'transitivity': 'None'}>"
p182
sS'selected_form'
p183
S"'voct'"
p184
sS'x'
S'7254'
p185
sS'strings'
p186
S'[]'
p187
sssS'traceback'
p188
S'Traceback (most recent call last):\n  File "/home/concordance/web2py/gluon/restricted.py", line 220, in restricted\n    exec ccode in environment\n  File "/home/concordance/web2py/applications/test/controllers/morpho.py", line 135, in <module>\n  File "/home/concordance/web2py/gluon/globals.py", line 385, in <lambda>\n    self._caller = lambda f: f()\n  File "/home/concordance/web2py/applications/test/controllers/morpho.py", line 121, in search_result\n    strings.append((string +"...", title, author, int(title1.id)))\nTypeError: can only concatenate list (not "str") to list\n'
p189
s.