(dp1
S'output'
p2
S"<type 'exceptions.IOError'> [Errno 2] No such file or directory: ''"
p3
sS'layer'
p4
S'/home/concordance/web2py/applications/test/controllers/control.py'
p5
sS'code'
p6
S'# coding: utf8\nimport nltk\nimport pymorphy2\nfrom tokenize1 import *\nimport os\nfrom os import listdir\nfrom os.path import isfile, join\nfrom operator import itemgetter\nimport subprocess\nimport select\nfrom lxml import etree\nfrom gensim import corpora, models, similarities\nfrom plugin_sqleditable.editable import SQLEDITABLE\nSQLEDITABLE.init()\n\ndef index():\n    texts = trymysql().select(trymysql.author.ALL, orderby=trymysql.author.family)\n    return dict(texts=texts)\n\ndef all_texts():\n    texts = trymysql().select(trymysql.text1.ALL, orderby=trymysql.text1.id)\n    return dict(texts=texts)\n\ndef show1():   # show text from file\n    texts = trymysql(trymysql.text1.id==request.args(0)).select().first()\n    f = open(texts.filename, \'rb\')\n    content = f.readlines()\n    return dict(texts=texts, content=content)\n\ndef show2(): # color the verbs\n    words = trymysql(trymysql.allword.title==request.args(0)).select()\n    content = []\n    for row in words:\n        if row.partos==\'VERB\':\n            new_words=str(row.lemma)+str(\'&\')\n            content.append(new_words)\n        else:\n            content.append(row.lemma)\n    return dict(content=content)\n\ndef show3():\n    texts = trymysql(trymysql.text1.id==request.args(0)).select().first()\n    rows = trymysql(trymysql.allword.title==request.args(0)).select()\n    text_view = []\n    for row in rows:\n        text_view.append((row.lemma, row.id))\n    options = [OPTION(row.lemma, _value=row.id) for row in rows]\n    form=FORM(TABLE(TR("\xd0\x92\xd1\x8b\xd0\xb1\xd0\xb5\xd1\x80\xd0\xb8\xd1\x82\xd0\xb5 \xd1\x82\xd0\xb5\xd0\xba\xd1\x81\xd1\x82"),\n                    TR("\xd0\x9d\xd0\xb0\xd0\xbf\xd1\x80\xd0\xb8\xd0\xbc\xd0\xb5\xd1\x80, \xd1\x82\xd0\xb0\xd0\xba:",SELECT(*options, _name="first")),\n                    TR("",INPUT(_type="submit",_value="SUBMIT"))))\n    if form.accepts(request,session):\n        response.flash="form accepted"\n    return dict(text_view=text_view, form=form)\n\ndef tokenize_all(): # prepares text for tokenization (decoding) and write result in database trymysql.allword, after - morpho/index1.html\n    for x in range(3258,3336): # if text not yet in database\n        text2 = trymysql(trymysql.text1.id==x).select().first()\n        text1 = text2[\'body\'].decode(\'utf-8\')\n        path = "/home/concordance/web2py/applications/test/uploads/"\n        filename1=str(text2.author.id) + "_" + str(text2.n_in_group) + "_" + str(text2.id) + str(\'.txt\')\n        filename= str(path) + str(filename1)\n        f = open(filename, \'w\')\n        f.write(text1.encode(\'utf-8\'))\n        f.close()\n        text2.update_record(filename=filename)\n        normal = normalize_new2(text1)\n        for token in normal:\n            trymysql.allword.insert(title=text2.id, word=token[0], partos=str(token[1]), author=text2.author, text_location=token[3], tense=str(token[4]), lemma=str(token[2].encode(\'utf-8\')))\n            message = "\xd0\x92\xd1\x81\xd0\xb5 \xd0\xb4\xd0\xbe\xd0\xb1\xd0\xb0\xd0\xb2\xd0\xbb\xd0\xb5\xd0\xbd\xd0\xbe \xd0\xb2 \xd0\xb1\xd0\xb0\xd0\xb7\xd1\x83"\n    return dict(message=message)\n\ndef search_for_files():\n    path = "/home/concordance/web2py/applications/test/corpus/"\n    files = [f for f in listdir(path) if isfile(join(path,f)) ]\n    return dict(files=files)\n\ndef verbs_all(): # show verbs in the text\n    verbs1=[row[\'word\'] for row in trymysql((trymysql.allword.author==\'1\')&(trymysql.allword.partos==\'VERB\')).select()]\n    verbs1=sorted(set(verbs1))\n    return dict(verbs1=verbs1)\n\ndef concordance(): # concordance of one text\n    all_words = trymysql(trymysql.allword.title==request.args(0)).select()\n    lens=len(all_words)\n    vocab = []\n    for row in all_words:\n        w = row.word\n        q = trymysql((trymysql.allword.word==row.word)&(trymysql.allword.title==request.args(0))).select()\n        qq = round(((len(q)/float(lens))*100), 2)\n        c = [w, len(q), qq]\n        if c not in vocab:\n            vocab.append(c)\n    vocab.sort(key = itemgetter(0), reverse=False)\n    return dict(lens=lens, vocab=vocab)\n\ndef mystem():\n    word="\xd1\x81\xd1\x82\xd0\xbe\xd1\x8f\xd0\xbb\xd0\xb0"\n    path = "/home/concordance/mystem/"\n    myste=subprocess.Popen([path, \'-nlc\', \'-e utf-8\'],\n                                        stdout=subprocess.PIPE,\n                                        stdin=subprocess.PIPE, shell=True)\n    new=myste.stdin.write(word)\n    readable, _, _ = select.select([myste.stdout], [], [], 5e-3)\n    stem = readable[0].readline().strip().lower()\n    return dict(new=new, stem=stem)\n\ndef edit_forms():\n    def record():\n        rows = trymysql(trymysql.allword.title ==request.args(0)).select()\n        return [row.id for row in rows]\n    trymysql.allword.id.readable = True\n    trymysql.allword.word.writable = True\n    trymysql.allword.title.readable = True\n    trymysql.allword.partos.writable = True\n    trymysql.allword.tense.writable = True\n    trymysql.allword.lexical_group.readable=False\n    trymysql.allword.lemma.writable=True\n\n    response.title = \'demo020\'\n    response.view = \'plugin_sqleditable/sample.html\'\n    editable = SQLEDITABLE(trymysql.allword, record=record(), deletable=True).process()\n    return dict(editable=editable)\n\ndef edit_forms1():\n    def record():\n        titles = [x for x in range(600,700)]\n        rows = trymysql((trymysql.allword.sobstv == "Geox")&(trymysql.allword.title.belongs(titles))).select()\n        return [row.id for row in rows]\n    trymysql.allword.id.readable = True\n    trymysql.allword.word.writable = True\n    trymysql.allword.title.writable = True\n    trymysql.allword.partos.writable = True\n    trymysql.allword.tense.writable = True\n    trymysql.allword.lexical_group.readable=False\n    trymysql.allword.lemma.writable=True\n\n    response.title = \'demo020\'\n    response.view = \'plugin_sqleditable/sample.html\'\n    editable = SQLEDITABLE(trymysql.allword, record=record(), deletable=True).process()\n    return dict(editable=editable)\n\ndef month():\n    months = [(x, trymysql(trymysql.text1.month_writing==x).count()) for x in range(1,13)]\n    return dict(months=months)\n\ndef create_xml():\n    page = etree.Element(\'results\') # create xml tree\n    doc = etree.ElementTree(page)\n    author_texts = [all.id for all in trymysql(trymysql.text1.author==2).select()]\n    for x in author_texts:\n        texts = trymysql(trymysql.text1.id==x).select()[0] # select a poem\n        words_from_base = trymysql(trymysql.allword.title==x).select() # select a poem words from allword base\n        title = texts.title\n        author = texts.author\n        f = open(texts.filename, \'rb\')\n        content = f.readlines()\n        text = etree.SubElement(page, \'text\')\n        info = etree.SubElement(text, \'info\')\n        one = etree.SubElement(info, \'title\').text = title.decode(\'utf-8\')\n        two = etree.SubElement(info, \'name\').text = author.name.decode(\'utf-8\')\n        three = etree.SubElement(info, \'author\').text = author.family.decode(\'utf-8\')\n        poem = etree.SubElement(text, \'poem\')\n        count_stanza = 1                                             # count stanzas\n        line_count = 1\n        word_number = words_from_base[0].id                          # get first word\'s id from allword base\n        stanza = etree.SubElement(poem,  \'stanza\', number = str(count_stanza))\n        for lines in content:\n            if lines in [\'\\n\', \'\\r\\n\']:\n                count_stanza += 1\n                stanza = etree.SubElement(poem, \'stanza\', number = str(count_stanza))\n            else:\n                string = etree.SubElement(stanza, \'line\', number=str(line_count))\n                right_line = tokenize2(lines.decode(\'utf-8\'))\n                line_count +=1\n                for word in right_line:\n                    slovo_from_base = trymysql(trymysql.allword.id==word_number).select()[0]\n                    slovo = etree.SubElement(string, \'word\', pos = slovo_from_base.partos).text=word\n                    word_number+=1 # update word\'s id\n        path = "applications/test/uploads/xml/"\n        new_name=path+str(texts.author.id) + ".xml"\n        outFile = open(new_name, \'w\')\n        doc.write(outFile, pretty_print=True, xml_declaration=True, encoding=\'utf-16\')\n        outFile.close()\n\ndef create_xml1(): # save draft\n    texts = trymysql(trymysql.text1.id==request.args(0)).select().first() # select a poem\n    words_from_base = trymysql(trymysql.allword.title==request.args(0)).select() # select a poem words from allword base\n    stop = [\',\', \'.\', \';\', \':\', \'!\', \'?\', \'!"\', \'..\', \'!.\', \'...\', \'\xe2\x80\x94\', \'-\', \'\xc2\xab\', \'\xc2\xbb\', \'\xc2\xbb\', \'"\', \'\xe2\x80\x94 \', \'\xe2\x80\x94\', \'!\xc2\xbb.\', \'!\xc2\xbb\', \'4\', \'5\', \'6\', \'7\', \'8\', \'9\', \'0\', " "]\n    title = texts.title\n    author = texts.author\n    f = open(texts.filename, \'rb\')\n    content = f.readlines()\n    page = etree.Element(\'results\') # create xml tree\n    doc = etree.ElementTree(page)\n    new = etree.SubElement(page, \'text\')\n    info = etree.SubElement(new, \'info\')\n    one = etree.SubElement(info, \'title\', title = title.decode(\'utf-8\'))\n    two = etree.SubElement(info, \'name\', name = author.name.decode(\'utf-8\'))\n    three = etree.SubElement(info, \'author\', family = author.family.decode(\'utf-8\'))\n    poem = etree.SubElement(new, \'poem\', name = \'Poem\')\n    count_stanza = 1                                             # count stanzas\n    line_count = 1\n    word_number = words_from_base[0].id                          # get first word\'s id from allword base\n    stanza = etree.SubElement(poem,  \'stanza\', number = str(count_stanza))\n    for lines in content:\n        if lines in [\'\\n\', \'\\r\\n\']:\n            count_stanza += 1\n            stanza = etree.SubElement(poem, \'stanza\', number = str(count_stanza))\n        else:\n            new_line = tokenize1(lines.decode(\'utf-8\'))\n            string = etree.SubElement(stanza, \'line\', number=str(line_count), length = str(len(new_line)))\n            right_line = tokenize2(lines.decode(\'utf-8\'))\n            line_count +=1\n            for word in right_line:\n                slovo_from_base = trymysql(trymysql.allword.id==word_number).select()[0]\n                if word == new_line[-1]:\n                    slovo = etree.SubElement(string, \'word\', text = word, pos = slovo_from_base.partos, type=\'rhyme\')\n                else:\n                    slovo = etree.SubElement(string, \'word\', text = word, pos = slovo_from_base.partos)\n                word_number+=1 # update word\'s id\n    new_name=texts.filename[:-4]+".xml"\n    outFile = open(new_name, \'w\')\n    doc.write(outFile, xml_declaration=True, encoding=\'utf-16\')\n    outFile.close()\n\ndef create_concordance():\n    all_words = trymysql().select(trymysql.allword.ALL)\n    part=[\'VERB\', \'NOUN\', \'ADJF\', \'ADJS\', \'INFN\', \'GRND\', \'PRTF\', \'PRTS\', \'ADVB\']\n    all1=[all.word for all in all_words if all.partos in part]\n    words=sorted(set(all1))\n    for token in words:\n            trymysql.concordance.insert(word=token)\n    return dict(words=words)\n\ndef create_number():\n    all_texts=trymysql(trymysql.allword.title<10).select()\n    concor=trymysql(trymysql.concordance.id>0).select()\n    words_concordance = [one.word for one in concor]\n    for all in all_texts:\n        if all.word in words_concordance:\n            number = trymysql(trymysql.concordance.word==all.word).select()[0]\n            number_id=number.id\n            all.update_record(concordance_number=number_id)\n        else:\n            all.update_record(concordance_number=0)\n    return dict(words=words_concordance[:10], all_texts=all_texts)\n\ndef create_vector():\n    all_texts=trymysql(trymysql.text1.id<10).select()\n    vector = []\n    for all in all_texts:\n        numbers = [all.concordance_number for all in trymysql(trymysql.allword.title==all.id).select()]\n        vector.append(numbers)\n    return dict(vector=vector)\n\ndef test_gensim():\n    all_texts = trymysql(trymysql.text1.author==4).select()\n    alles = []\n    for all in all_texts:\n        part=[\'VERB\', \'NOUN\', \'ADJF\', \'ADJS\', \'INFN\', \'GRND\', \'PRTF\', \'PRTS\', \'ADVB\']\n        one = [all.word for all in trymysql((trymysql.allword.title==all.id)&(trymysql.allword.partos.belongs(part))).select()]\n        alles.append(one)\n    dictionary = corpora.Dictionary(alles)\n    doc = [new.word for new in trymysql((trymysql.allword.title==24)&(trymysql.allword.partos.belongs(part))).select()]\n    vec_bow = dictionary.doc2bow(doc)\n    corpus = [dictionary.doc2bow(alle) for alle in alles]\n    tfidf = models.TfidfModel(corpus)\n    corpus_tfidf = tfidf[corpus]\n    lsi = models.LsiModel(corpus_tfidf, id2word=dictionary, num_topics=5)\n    corpus_lsi = lsi[corpus_tfidf]\n    vec_lsi = lsi[vec_bow]\n    index = similarities.MatrixSimilarity(lsi[corpus_tfidf])\n    sims = index[vec_lsi]\n    sims = sorted(enumerate(sims), key=lambda item: -item[1])\n    topics=lsi.print_topics(5)\n    return dict(sims=sims,vec_bow=vec_bow, corpus_tfidf=corpus_tfidf, topics=topics)\n\nresponse._vars=response._caller(create_xml)\n'
p7
sS'snapshot'
p8
(dp9
S'exception'
p10
(dp11
S'__getslice__'
p12
S"<method-wrapper '__getslice__' of exceptions.IOError object>"
p13
sS'__str__'
p14
S"<method-wrapper '__str__' of exceptions.IOError object>"
p15
sS'__reduce__'
p16
S'<built-in method __reduce__ of exceptions.IOError object>'
p17
sS'__dict__'
p18
S'{}'
p19
sS'__sizeof__'
p20
S'<built-in method __sizeof__ of exceptions.IOError object>'
p21
sS'__init__'
p22
S"<method-wrapper '__init__' of exceptions.IOError object>"
p23
sS'__setattr__'
p24
S"<method-wrapper '__setattr__' of exceptions.IOError object>"
p25
sS'__reduce_ex__'
p26
S'<built-in method __reduce_ex__ of exceptions.IOError object>'
p27
sS'__new__'
p28
S'<built-in method __new__ of type object>'
p29
sS'errno'
p30
S'2'
sS'__format__'
p31
S'<built-in method __format__ of exceptions.IOError object>'
p32
sS'__class__'
p33
S"<type 'exceptions.IOError'>"
p34
sS'filename'
p35
S"''"
p36
sS'__doc__'
p37
S"'I/O operation failed.'"
p38
sS'__getitem__'
p39
S"<method-wrapper '__getitem__' of exceptions.IOError object>"
p40
sS'__setstate__'
p41
S'<built-in method __setstate__ of exceptions.IOError object>'
p42
sS'__getattribute__'
p43
S"<method-wrapper '__getattribute__' of exceptions.IOError object>"
p44
sS'args'
p45
S"(2, 'No such file or directory')"
p46
sS'__subclasshook__'
p47
S'<built-in method __subclasshook__ of type object>'
p48
sS'__unicode__'
p49
S'<built-in method __unicode__ of exceptions.IOError object>'
p50
sS'strerror'
p51
S"'No such file or directory'"
p52
sS'__delattr__'
p53
S"<method-wrapper '__delattr__' of exceptions.IOError object>"
p54
sS'__repr__'
p55
S"<method-wrapper '__repr__' of exceptions.IOError object>"
p56
sS'__hash__'
p57
S"<method-wrapper '__hash__' of exceptions.IOError object>"
p58
ssS'evalue'
p59
S"[Errno 2] No such file or directory: ''"
p60
sS'request'
p61
cgluon.html
XML_unpickle
p62
(S'sTb\x00\x00<div><table><tr><td style="font-weight:bold;vertical-align:top;">ajax</td><td style="vertical-align:top;">:</td><td><div>False</div></td></tr><tr><td style="font-weight:bold;vertical-align:top;">application</td><td style="vertical-align:top;">:</td><td><div>test</div></td></tr><tr><td style="font-weight:bold;vertical-align:top;">args</td><td style="vertical-align:top;">:</td><td><div><table></table></div></td></tr><tr><td style="font-weight:bold;vertical-align:top;">cid</td><td style="vertical-align:top;">:</td><td><div>None</div></td></tr><tr><td style="font-weight:bold;vertical-align:top;">client</td><td style="vertical-align:top;">:</td><td><div>109.172.15.35</div></td></tr><tr><td style="font-weight:bold;vertical-align:top;">controller</td><td style="vertical-align:top;">:</td><td><div>control</div></td></tr><tr><td style="font-weight:bold;vertical-align:top;">cookies</td><td style="vertical-align:top;">:</td><td><div><table><tr><td style="font-weight:bold;vertical-align:top;">session_id_admin</td><td style="vertical-align:top;">:</td><td><div>93.185.176.186-5307d37a-6252-4082-a4b4-427f83975220<table><tr><td style="font-weight:bold;vertical-align:top;">comment</td><td style="vertical-align:top;">:</td><td><div></div></td></tr><tr><td style="font-weight:bold;vertical-align:top;">domain</td><td style="vertical-align:top;">:</td><td><div></div></td></tr><tr><td style="font-weight:bold;vertical-align:top;">expires</td><td style="vertical-align:top;">:</td><td><div></div></td></tr><tr><td style="font-weight:bold;vertical-align:top;">httponly</td><td style="vertical-align:top;">:</td><td><div></div></td></tr><tr><td style="font-weight:bold;vertical-align:top;">max-age</td><td style="vertical-align:top;">:</td><td><div></div></td></tr><tr><td style="font-weight:bold;vertical-align:top;">path</td><td style="vertical-align:top;">:</td><td><div></div></td></tr><tr><td style="font-weight:bold;vertical-align:top;">secure</td><td style="vertical-align:top;">:</td><td><div></div></td></tr><tr><td style="font-weight:bold;vertical-align:top;">version</td><td style="vertical-align:top;">:</td><td><div></div></td></tr></table></div></td></tr><tr><td style="font-weight:bold;vertical-align:top;">session_id_books</td><td style="vertical-align:top;">:</td><td><div>109.172.15.35-81f6382a-d143-45a6-b4f2-445510872b2d<table><tr><td style="font-weight:bold;vertical-align:top;">comment</td><td style="vertical-align:top;">:</td><td><div></div></td></tr><tr><td style="font-weight:bold;vertical-align:top;">domain</td><td style="vertical-align:top;">:</td><td><div></div></td></tr><tr><td style="font-weight:bold;vertical-align:top;">expires</td><td style="vertical-align:top;">:</td><td><div></div></td></tr><tr><td style="font-weight:bold;vertical-align:top;">httponly</td><td style="vertical-align:top;">:</td><td><div></div></td></tr><tr><td style="font-weight:bold;vertical-align:top;">max-age</td><td style="vertical-align:top;">:</td><td><div></div></td></tr><tr><td style="font-weight:bold;vertical-align:top;">path</td><td style="vertical-align:top;">:</td><td><div></div></td></tr><tr><td style="font-weight:bold;vertical-align:top;">secure</td><td style="vertical-align:top;">:</td><td><div></div></td></tr><tr><td style="font-weight:bold;vertical-align:top;">version</td><td style="vertical-align:top;">:</td><td><div></div></td></tr></table></div></td></tr><tr><td style="font-weight:bold;vertical-align:top;">session_id_test</td><td style="vertical-align:top;">:</td><td><div>109.172.15.35-d5e8160c-1bec-4802-815c-3e1a54802928<table><tr><td style="font-weight:bold;vertical-align:top;">comment</td><td style="vertical-align:top;">:</td><td><div></div></td></tr><tr><td style="font-weight:bold;vertical-align:top;">domain</td><td style="vertical-align:top;">:</td><td><div></div></td></tr><tr><td style="font-weight:bold;vertical-align:top;">expires</td><td style="vertical-align:top;">:</td><td><div></div></td></tr><tr><td style="font-weight:bold;vertical-align:top;">httponly</td><td style="vertical-align:top;">:</td><td><div></div></td></tr><tr><td style="font-weight:bold;vertical-align:top;">max-age</td><td style="vertical-align:top;">:</td><td><div></div></td></tr><tr><td style="font-weight:bold;vertical-align:top;">path</td><td style="vertical-align:top;">:</td><td><div></div></td></tr><tr><td style="font-weight:bold;vertical-align:top;">secure</td><td style="vertical-align:top;">:</td><td><div></div></td></tr><tr><td style="font-weight:bold;vertical-align:top;">version</td><td style="vertical-align:top;">:</td><td><div></div></td></tr></table></div></td></tr><tr><td style="font-weight:bold;vertical-align:top;">session_id_welcome</td><td style="vertical-align:top;">:</td><td><div>109.172.15.35-e4501077-0fc4-4740-b67c-af19a127bbaa<table><tr><td style="font-weight:bold;vertical-align:top;">comment</td><td style="vertical-align:top;">:</td><td><div></div></td></tr><tr><td style="font-weight:bold;vertical-align:top;">domain</td><td style="vertical-align:top;">:</td><td><div></div></td></tr><tr><td style="font-weight:bold;vertical-align:top;">expires</td><td style="vertical-align:top;">:</td><td><div></div></td></tr><tr><td style="font-weight:bold;vertical-align:top;">httponly</td><td style="vertical-align:top;">:</td><td><div></div></td></tr><tr><td style="font-weight:bold;vertical-align:top;">max-age</td><td style="vertical-align:top;">:</td><td><div></div></td></tr><tr><td style="font-weight:bold;vertical-align:top;">path</td><td style="vertical-align:top;">:</td><td><div></div></td></tr><tr><td style="font-weight:bold;vertical-align:top;">secure</td><td style="vertical-align:top;">:</td><td><div></div></td></tr><tr><td style="font-weight:bold;vertical-align:top;">version</td><td style="vertical-align:top;">:</td><td><div></div></td></tr></table></div></td></tr><tr><td style="font-weight:bold;vertical-align:top;">sessionid</td><td style="vertical-align:top;">:</td><td><div>e939ace853bb6db68047bfaedf425d47<table><tr><td style="font-weight:bold;vertical-align:top;">comment</td><td style="vertical-align:top;">:</td><td><div></div></td></tr><tr><td style="font-weight:bold;vertical-align:top;">domain</td><td style="vertical-align:top;">:</td><td><div></div></td></tr><tr><td style="font-weight:bold;vertical-align:top;">expires</td><td style="vertical-align:top;">:</td><td><div></div></td></tr><tr><td style="font-weight:bold;vertical-align:top;">httponly</td><td style="vertical-align:top;">:</td><td><div></div></td></tr><tr><td style="font-weight:bold;vertical-align:top;">max-age</td><td style="vertical-align:top;">:</td><td><div></div></td></tr><tr><td style="font-weight:bold;vertical-align:top;">path</td><td style="vertical-align:top;">:</td><td><div></div></td></tr><tr><td style="font-weight:bold;vertical-align:top;">secure</td><td style="vertical-align:top;">:</td><td><div></div></td></tr><tr><td style="font-weight:bold;vertical-align:top;">version</td><td style="vertical-align:top;">:</td><td><div></div></td></tr></table></div></td></tr></table></div></td></tr><tr><td style="font-weight:bold;vertical-align:top;">env</td><td style="vertical-align:top;">:</td><td><div><table><tr><td style="font-weight:bold;vertical-align:top;">CONTENT_LENGTH</td><td style="vertical-align:top;">:</td><td><div></div></td></tr><tr><td style="font-weight:bold;vertical-align:top;">CONTENT_TYPE</td><td style="vertical-align:top;">:</td><td><div></div></td></tr><tr><td style="font-weight:bold;vertical-align:top;">DOCUMENT_ROOT</td><td style="vertical-align:top;">:</td><td><div>/usr/local/openresty/nginx/html</div></td></tr><tr><td style="font-weight:bold;vertical-align:top;">HTTPS</td><td style="vertical-align:top;">:</td><td><div>on</div></td></tr><tr><td style="font-weight:bold;vertical-align:top;">HTTP_ACCEPT</td><td style="vertical-align:top;">:</td><td><div>text/html,application/xhtml+xml,application/xml;q=0.9,image/webp,*/*;q=0.8</div></td></tr><tr><td style="font-weight:bold;vertical-align:top;">HTTP_ACCEPT_ENCODING</td><td style="vertical-align:top;">:</td><td><div>gzip, deflate, sdch</div></td></tr><tr><td style="font-weight:bold;vertical-align:top;">HTTP_ACCEPT_LANGUAGE</td><td style="vertical-align:top;">:</td><td><div>ru,en;q=0.8,en-US;q=0.6</div></td></tr><tr><td style="font-weight:bold;vertical-align:top;">HTTP_CACHE_CONTROL</td><td style="vertical-align:top;">:</td><td><div>max-age=0</div></td></tr><tr><td style="font-weight:bold;vertical-align:top;">HTTP_CONNECTION</td><td style="vertical-align:top;">:</td><td><div>close</div></td></tr><tr><td style="font-weight:bold;vertical-align:top;">HTTP_COOKIE</td><td style="vertical-align:top;">:</td><td><div>sessionid=e939ace853bb6db68047bfaedf425d47; session_id_welcome=109.172.15.35-e4501077-0fc4-4740-b67c-af19a127bbaa; session_id_books=109.172.15.35-81f6382a-d143-45a6-b4f2-445510872b2d; __utma=134993891.745451564.1404743691.1426387390.1426399512.50; __utmc=134993891; __utmz=134993891.1404743691.1.1.utmcsr=(direct)|utmccn=(direct)|utmcmd=(none); session_id_test=109.172.15.35-d5e8160c-1bec-4802-815c-3e1a54802928; __utma=133430031.117798768.1404299048.1426396633.1426403648.20; __utmb=133430031.4.10.1426403648; __utmc=133430031; __utmz=133430031.1404299048.1.1.utmcsr=(direct)|utmccn=(direct)|utmcmd=(none); session_id_admin=93.185.176.186-5307d37a-6252-4082-a4b4-427f83975220</div></td></tr><tr><td style="font-weight:bold;vertical-align:top;">HTTP_HOST</td><td style="vertical-align:top;">:</td><td><div>concordance.pythonanywhere.com</div></td></tr><tr><td style="font-weight:bold;vertical-align:top;">HTTP_USER_AGENT</td><td style="vertical-align:top;">:</td><td><div>Mozilla/5.0 (Windows NT 6.1; WOW64) AppleWebKit/537.36 (KHTML, like Gecko) Chrome/41.0.2272.89 Safari/537.36</div></td></tr><tr><td style="font-weight:bold;vertical-align:top;">HTTP_X_FORWARDED_FOR</td><td style="vertical-align:top;">:</td><td><div>109.172.15.35</div></td></tr><tr><td style="font-weight:bold;vertical-align:top;">HTTP_X_REAL_IP</td><td style="vertical-align:top;">:</td><td><div>109.172.15.35</div></td></tr><tr><td style="font-weight:bold;vertical-align:top;">PATH_INFO</td><td style="vertical-align:top;">:</td><td><div>/test/control/create_xml.html</div></td></tr><tr><td style="font-weight:bold;vertical-align:top;">QUERY_STRING</td><td style="vertical-align:top;">:</td><td><div></div></td></tr><tr><td style="font-weight:bold;vertical-align:top;">REMOTE_ADDR</td><td style="vertical-align:top;">:</td><td><div>10.233.129.161</div></td></tr><tr><td style="font-weight:bold;vertical-align:top;">REMOTE_PORT</td><td style="vertical-align:top;">:</td><td><div>42517</div></td></tr><tr><td style="font-weight:bold;vertical-align:top;">REQUEST_METHOD</td><td style="vertical-align:top;">:</td><td><div>GET</div></td></tr><tr><td style="font-weight:bold;vertical-align:top;">REQUEST_URI</td><td style="vertical-align:top;">:</td><td><div>/test/control/create_xml.html</div></td></tr><tr><td style="font-weight:bold;vertical-align:top;">SCRIPT_NAME</td><td style="vertical-align:top;">:</td><td><div></div></td></tr><tr><td style="font-weight:bold;vertical-align:top;">SERVER_NAME</td><td style="vertical-align:top;">:</td><td><div>concordance.pythonanywhere.com</div></td></tr><tr><td style="font-weight:bold;vertical-align:top;">SERVER_PORT</td><td style="vertical-align:top;">:</td><td><div>443</div></td></tr><tr><td style="font-weight:bold;vertical-align:top;">SERVER_PROTOCOL</td><td style="vertical-align:top;">:</td><td><div>HTTP/1.1</div></td></tr><tr><td style="font-weight:bold;vertical-align:top;">app_folders</td><td style="vertical-align:top;">:</td><td><div>set([&#x27;/home/concordance/web2py/applications/admin/&#x27;, &#x27;/home/concordance/web2py/applications/test/&#x27;])</div></td></tr><tr><td style="font-weight:bold;vertical-align:top;">applications_parent</td><td style="vertical-align:top;">:</td><td><div>/home/concordance/web2py</div></td></tr><tr><td style="font-weight:bold;vertical-align:top;">content_length</td><td style="vertical-align:top;">:</td><td><div></div></td></tr><tr><td style="font-weight:bold;vertical-align:top;">content_type</td><td style="vertical-align:top;">:</td><td><div></div></td></tr><tr><td style="font-weight:bold;vertical-align:top;">db_sessions</td><td style="vertical-align:top;">:</td><td><div>set([])</div></td></tr><tr><td style="font-weight:bold;vertical-align:top;">debugging</td><td style="vertical-align:top;">:</td><td><div>False</div></td></tr><tr><td style="font-weight:bold;vertical-align:top;">document_root</td><td style="vertical-align:top;">:</td><td><div>/usr/local/openresty/nginx/html</div></td></tr><tr><td style="font-weight:bold;vertical-align:top;">gluon_parent</td><td style="vertical-align:top;">:</td><td><div>/home/concordance/web2py</div></td></tr><tr><td style="font-weight:bold;vertical-align:top;">http_accept</td><td style="vertical-align:top;">:</td><td><div>text/html,application/xhtml+xml,application/xml;q=0.9,image/webp,*/*;q=0.8</div></td></tr><tr><td style="font-weight:bold;vertical-align:top;">http_accept_encoding</td><td style="vertical-align:top;">:</td><td><div>gzip, deflate, sdch</div></td></tr><tr><td style="font-weight:bold;vertical-align:top;">http_accept_language</td><td style="vertical-align:top;">:</td><td><div>ru,en;q=0.8,en-US;q=0.6</div></td></tr><tr><td style="font-weight:bold;vertical-align:top;">http_cache_control</td><td style="vertical-align:top;">:</td><td><div>max-age=0</div></td></tr><tr><td style="font-weight:bold;vertical-align:top;">http_connection</td><td style="vertical-align:top;">:</td><td><div>close</div></td></tr><tr><td style="font-weight:bold;vertical-align:top;">http_cookie</td><td style="vertical-align:top;">:</td><td><div>sessionid=e939ace853bb6db68047bfaedf425d47; session_id_welcome=109.172.15.35-e4501077-0fc4-4740-b67c-af19a127bbaa; session_id_books=109.172.15.35-81f6382a-d143-45a6-b4f2-445510872b2d; __utma=134993891.745451564.1404743691.1426387390.1426399512.50; __utmc=134993891; __utmz=134993891.1404743691.1.1.utmcsr=(direct)|utmccn=(direct)|utmcmd=(none); session_id_test=109.172.15.35-d5e8160c-1bec-4802-815c-3e1a54802928; __utma=133430031.117798768.1404299048.1426396633.1426403648.20; __utmb=133430031.4.10.1426403648; __utmc=133430031; __utmz=133430031.1404299048.1.1.utmcsr=(direct)|utmccn=(direct)|utmcmd=(none); session_id_admin=93.185.176.186-5307d37a-6252-4082-a4b4-427f83975220</div></td></tr><tr><td style="font-weight:bold;vertical-align:top;">http_host</td><td style="vertical-align:top;">:</td><td><div>concordance.pythonanywhere.com</div></td></tr><tr><td style="font-weight:bold;vertical-align:top;">http_user_agent</td><td style="vertical-align:top;">:</td><td><div>Mozilla/5.0 (Windows NT 6.1; WOW64) AppleWebKit/537.36 (KHTML, like Gecko) Chrome/41.0.2272.89 Safari/537.36</div></td></tr><tr><td style="font-weight:bold;vertical-align:top;">http_x_forwarded_for</td><td style="vertical-align:top;">:</td><td><div>109.172.15.35</div></td></tr><tr><td style="font-weight:bold;vertical-align:top;">http_x_real_ip</td><td style="vertical-align:top;">:</td><td><div>109.172.15.35</div></td></tr><tr><td style="font-weight:bold;vertical-align:top;">https</td><td style="vertical-align:top;">:</td><td><div>on</div></td></tr><tr><td style="font-weight:bold;vertical-align:top;">is_jython</td><td style="vertical-align:top;">:</td><td><div>False</div></td></tr><tr><td style="font-weight:bold;vertical-align:top;">is_pypy</td><td style="vertical-align:top;">:</td><td><div>False</div></td></tr><tr><td style="font-weight:bold;vertical-align:top;">is_source</td><td style="vertical-align:top;">:</td><td><div>True</div></td></tr><tr><td style="font-weight:bold;vertical-align:top;">local_hosts</td><td style="vertical-align:top;">:</td><td><div><table><tr><td><div>harry-liveweb1</div></td></tr><tr><td><div>::ffff:127.0.0.1</div></td></tr><tr><td><div>::1</div></td></tr><tr><td><div>50.19.109.98</div></td></tr><tr><td><div>localhost</div></td></tr><tr><td><div>concordance.pythonanywhere.com</div></td></tr><tr><td><div>127.0.0.1</div></td></tr></table></div></td></tr><tr><td style="font-weight:bold;vertical-align:top;">path_info</td><td style="vertical-align:top;">:</td><td><div>/test/control/create_xml.html</div></td></tr><tr><td style="font-weight:bold;vertical-align:top;">query_string</td><td style="vertical-align:top;">:</td><td><div></div></td></tr><tr><td style="font-weight:bold;vertical-align:top;">remote_addr</td><td style="vertical-align:top;">:</td><td><div>10.233.129.161</div></td></tr><tr><td style="font-weight:bold;vertical-align:top;">remote_port</td><td style="vertical-align:top;">:</td><td><div>42517</div></td></tr><tr><td style="font-weight:bold;vertical-align:top;">request_method</td><td style="vertical-align:top;">:</td><td><div>GET</div></td></tr><tr><td style="font-weight:bold;vertical-align:top;">request_uri</td><td style="vertical-align:top;">:</td><td><div>/test/control/create_xml.html</div></td></tr><tr><td style="font-weight:bold;vertical-align:top;">script_name</td><td style="vertical-align:top;">:</td><td><div></div></td></tr><tr><td style="font-weight:bold;vertical-align:top;">server_name</td><td style="vertical-align:top;">:</td><td><div>concordance.pythonanywhere.com</div></td></tr><tr><td style="font-weight:bold;vertical-align:top;">server_port</td><td style="vertical-align:top;">:</td><td><div>443</div></td></tr><tr><td style="font-weight:bold;vertical-align:top;">server_protocol</td><td style="vertical-align:top;">:</td><td><div>HTTP/1.1</div></td></tr><tr><td style="font-weight:bold;vertical-align:top;">uwsgi.node</td><td style="vertical-align:top;">:</td><td><div>harry-liveweb1</div></td></tr><tr><td style="font-weight:bold;vertical-align:top;">uwsgi.version</td><td style="vertical-align:top;">:</td><td><div>2.0.5.1</div></td></tr><tr><td style="font-weight:bold;vertical-align:top;">uwsgi_node</td><td style="vertical-align:top;">:</td><td><div>harry-liveweb1</div></td></tr><tr><td style="font-weight:bold;vertical-align:top;">uwsgi_version</td><td style="vertical-align:top;">:</td><td><div>2.0.5.1</div></td></tr><tr><td style="font-weight:bold;vertical-align:top;">web2py_path</td><td style="vertical-align:top;">:</td><td><div>/home/concordance/web2py</div></td></tr><tr><td style="font-weight:bold;vertical-align:top;">web2py_version</td><td style="vertical-align:top;">:</td><td><div>2.9.5-stable+timestamp.2014.03.16.02.35.39</div></td></tr><tr><td style="font-weight:bold;vertical-align:top;">wsgi.errors</td><td style="vertical-align:top;">:</td><td><div>&lt;uwsgi_file__bin_user_wsgi_wrapper.ErrorLogFile object at 0x7f054eb1a9d0&gt;</div></td></tr><tr><td style="font-weight:bold;vertical-align:top;">wsgi.file_wrapper</td><td style="vertical-align:top;">:</td><td><div>&lt;built-in function uwsgi_sendfile&gt;</div></td></tr><tr><td style="font-weight:bold;vertical-align:top;">wsgi.input</td><td style="vertical-align:top;">:</td><td><div>&lt;uwsgi._Input object at 0x7f0558e6ab88&gt;</div></td></tr><tr><td style="font-weight:bold;vertical-align:top;">wsgi.multiprocess</td><td style="vertical-align:top;">:</td><td><div>True</div></td></tr><tr><td style="font-weight:bold;vertical-align:top;">wsgi.multithread</td><td style="vertical-align:top;">:</td><td><div>False</div></td></tr><tr><td style="font-weight:bold;vertical-align:top;">wsgi.run_once</td><td style="vertical-align:top;">:</td><td><div>False</div></td></tr><tr><td style="font-weight:bold;vertical-align:top;">wsgi.url_scheme</td><td style="vertical-align:top;">:</td><td><div>https</div></td></tr><tr><td style="font-weight:bold;vertical-align:top;">wsgi.version</td><td style="vertical-align:top;">:</td><td><div><table><tr><td><div>1</div></td></tr><tr><td><div>0</div></td></tr></table></div></td></tr><tr><td style="font-weight:bold;vertical-align:top;">wsgi_errors</td><td style="vertical-align:top;">:</td><td><div>&lt;uwsgi_file__bin_user_wsgi_wrapper.ErrorLogFile object at 0x7f054eb1a9d0&gt;</div></td></tr><tr><td style="font-weight:bold;vertical-align:top;">wsgi_file_wrapper</td><td style="vertical-align:top;">:</td><td><div>&lt;built-in function uwsgi_sendfile&gt;</div></td></tr><tr><td style="font-weight:bold;vertical-align:top;">wsgi_input</td><td style="vertical-align:top;">:</td><td><div>&lt;uwsgi._Input object at 0x7f0558e6ab88&gt;</div></td></tr><tr><td style="font-weight:bold;vertical-align:top;">wsgi_multiprocess</td><td style="vertical-align:top;">:</td><td><div>True</div></td></tr><tr><td style="font-weight:bold;vertical-align:top;">wsgi_multithread</td><td style="vertical-align:top;">:</td><td><div>False</div></td></tr><tr><td style="font-weight:bold;vertical-align:top;">wsgi_run_once</td><td style="vertical-align:top;">:</td><td><div>False</div></td></tr><tr><td style="font-weight:bold;vertical-align:top;">wsgi_url_scheme</td><td style="vertical-align:top;">:</td><td><div>https</div></td></tr><tr><td style="font-weight:bold;vertical-align:top;">wsgi_version</td><td style="vertical-align:top;">:</td><td><div><table><tr><td><div>1</div></td></tr><tr><td><div>0</div></td></tr></table></div></td></tr></table></div></td></tr><tr><td style="font-weight:bold;vertical-align:top;">extension</td><td style="vertical-align:top;">:</td><td><div>html</div></td></tr><tr><td style="font-weight:bold;vertical-align:top;">folder</td><td style="vertical-align:top;">:</td><td><div>/home/concordance/web2py/applications/test/</div></td></tr><tr><td style="font-weight:bold;vertical-align:top;">function</td><td style="vertical-align:top;">:</td><td><div>create_xml</div></td></tr><tr><td style="font-weight:bold;vertical-align:top;">global_settings</td><td style="vertical-align:top;">:</td><td><div><table><tr><td style="font-weight:bold;vertical-align:top;">app_folders</td><td style="vertical-align:top;">:</td><td><div>set([&#x27;/home/concordance/web2py/applications/admin/&#x27;, &#x27;/home/concordance/web2py/applications/test/&#x27;])</div></td></tr><tr><td style="font-weight:bold;vertical-align:top;">applications_parent</td><td style="vertical-align:top;">:</td><td><div>/home/concordance/web2py</div></td></tr><tr><td style="font-weight:bold;vertical-align:top;">db_sessions</td><td style="vertical-align:top;">:</td><td><div>set([])</div></td></tr><tr><td style="font-weight:bold;vertical-align:top;">debugging</td><td style="vertical-align:top;">:</td><td><div>False</div></td></tr><tr><td style="font-weight:bold;vertical-align:top;">gluon_parent</td><td style="vertical-align:top;">:</td><td><div>/home/concordance/web2py</div></td></tr><tr><td style="font-weight:bold;vertical-align:top;">is_jython</td><td style="vertical-align:top;">:</td><td><div>False</div></td></tr><tr><td style="font-weight:bold;vertical-align:top;">is_pypy</td><td style="vertical-align:top;">:</td><td><div>False</div></td></tr><tr><td style="font-weight:bold;vertical-align:top;">is_source</td><td style="vertical-align:top;">:</td><td><div>True</div></td></tr><tr><td style="font-weight:bold;vertical-align:top;">local_hosts</td><td style="vertical-align:top;">:</td><td><div><table><tr><td><div>harry-liveweb1</div></td></tr><tr><td><div>::ffff:127.0.0.1</div></td></tr><tr><td><div>::1</div></td></tr><tr><td><div>50.19.109.98</div></td></tr><tr><td><div>localhost</div></td></tr><tr><td><div>concordance.pythonanywhere.com</div></td></tr><tr><td><div>127.0.0.1</div></td></tr></table></div></td></tr><tr><td style="font-weight:bold;vertical-align:top;">web2py_version</td><td style="vertical-align:top;">:</td><td><div>2.9.5-stable+timestamp.2014.03.16.02.35.39</div></td></tr></table></div></td></tr><tr><td style="font-weight:bold;vertical-align:top;">is_https</td><td style="vertical-align:top;">:</td><td><div>True</div></td></tr><tr><td style="font-weight:bold;vertical-align:top;">is_local</td><td style="vertical-align:top;">:</td><td><div>False</div></td></tr><tr><td style="font-weight:bold;vertical-align:top;">is_restful</td><td style="vertical-align:top;">:</td><td><div>False</div></td></tr><tr><td style="font-weight:bold;vertical-align:top;">now</td><td style="vertical-align:top;">:</td><td><div>datetime.datetime(2015, 3, 15, 7, 48, 53, 935905)</div></td></tr><tr><td style="font-weight:bold;vertical-align:top;">raw_args</td><td style="vertical-align:top;">:</td><td><div></div></td></tr><tr><td style="font-weight:bold;vertical-align:top;">raw_extension</td><td style="vertical-align:top;">:</td><td><div>html</div></td></tr><tr><td style="font-weight:bold;vertical-align:top;">url</td><td style="vertical-align:top;">:</td><td><div>/test/control/create_xml.html</div></td></tr><tr><td style="font-weight:bold;vertical-align:top;">utcnow</td><td style="vertical-align:top;">:</td><td><div>datetime.datetime(2015, 3, 15, 7, 48, 53, 935923)</div></td></tr><tr><td style="font-weight:bold;vertical-align:top;">uuid</td><td style="vertical-align:top;">:</td><td><div>test/109.172.15.35.2015-03-15.07-48-53.d5df2a4c-9f02-450b-9f39-b1f4a03631ad</div></td></tr><tr><td style="font-weight:bold;vertical-align:top;">wsgi</td><td style="vertical-align:top;">:</td><td><div>&lt;gluon.main.LazyWSGI object at 0x7f053db8a7d0&gt;</div></td></tr></table></div>'
tRp63
sS'frames'
p64
(lp65
(dp66
S'file'
p67
S'/home/concordance/web2py/gluon/restricted.py'
p68
sS'dump'
p69
(dp70
S'environment'
p71
S"{'A': <class 'gluon.html.A'>, 'ANY_OF': <class 'gluon.validators.ANY_OF'>, 'Auth': <class 'gluon.tools.Auth'>, 'B': <class 'gluon.html.B'>, 'BEAUTIFY': <class 'gluon.html.BEAUTIFY'>, 'BODY': <class 'gluon.html.BODY'>, 'BR': <class 'gluon.html.BR'>, 'BUTTON': <class 'gluon.html.BUTTON'>, 'CAT': <class 'gluon.html.CAT'>, 'CENTER': <class 'gluon.html.CENTER'>, ...}"
p72
sS'ccode'
p73
S'<code object <module> at 0x7f053db79c30, file "/...pplications/test/controllers/control.py", line 2>'
p74
ssS'lnum'
p75
I220
sS'lines'
p76
(dp77
I224
S'        # do not encapsulate (obfuscate) the original RestrictedError'
p78
sI215
S'    try:'
p79
sI216
S'        if isinstance(code, types.CodeType):'
p80
sI217
S'            ccode = code'
p81
sI218
S'        else:'
p82
sI219
S'            ccode = compile2(code, layer)'
p83
sI220
S'        exec ccode in environment'
p84
sI221
S'    except HTTP:'
p85
sI222
S'        raise'
p86
sI223
S'    except RestrictedError:'
p87
ssS'call'
p88
S"(code='# coding: utf8\\nimport nltk\\nimport pymorphy2\\nfrom...cs)\\n\\nresponse._vars=response._caller(create_xml)\\n', environment={'A': <class 'gluon.html.A'>, 'ANY_OF': <class 'gluon.validators.ANY_OF'>, 'Auth': <class 'gluon.tools.Auth'>, 'B': <class 'gluon.html.B'>, 'BEAUTIFY': <class 'gluon.html.BEAUTIFY'>, 'BODY': <class 'gluon.html.BODY'>, 'BR': <class 'gluon.html.BR'>, 'BUTTON': <class 'gluon.html.BUTTON'>, 'CAT': <class 'gluon.html.CAT'>, 'CENTER': <class 'gluon.html.CENTER'>, ...}, layer='/home/concordance/web2py/applications/test/controllers/control.py')"
p89
sS'func'
p90
S'restricted'
p91
sa(dp92
g67
S'/home/concordance/web2py/applications/test/controllers/control.py'
p93
sg69
(dp94
sg75
I278
sg76
(dp95
I267
S'    tfidf = models.TfidfModel(corpus)'
p96
sI268
S'    corpus_tfidf = tfidf[corpus]'
p97
sI269
S'    lsi = models.LsiModel(corpus_tfidf, id2word=dictionary, num_topics=5)'
p98
sI270
S'    corpus_lsi = lsi[corpus_tfidf]'
p99
sI271
S'    vec_lsi = lsi[vec_bow]'
p100
sI272
S'    index = similarities.MatrixSimilarity(lsi[corpus_tfidf])'
p101
sI273
S'    sims = index[vec_lsi]'
p102
sI274
S'    sims = sorted(enumerate(sims), key=lambda item: -item[1])'
p103
sI275
S'    topics=lsi.print_topics(5)'
p104
sI276
S'    return dict(sims=sims,vec_bow=vec_bow, corpus_tfidf=corpus_tfidf, topics=topics)'
p105
ssg88
S'()'
p106
sg90
S'<module>'
p107
sa(dp108
g67
S'/home/concordance/web2py/applications/test/modules/plugin_sqleditable/editable.py'
p109
sg69
(dp110
S'r'
S'undefined'
p111
sS'func'
p112
S'<function create_xml>'
p113
ssg75
I394
sg76
(dp114
I389
S'        self.next = None'
p115
sI390
S''
sI391
S'    @staticmethod'
p116
sI392
S'    def init():'
p117
sI393
S'        def extract(func):'
p118
sI394
S'            r=func()'
p119
sI395
S'            if request.ajax:'
p120
sI396
S'                if isinstance(r, dict):'
p121
sI397
S'                    for v in r.values():'
p122
sI398
S'                        if isinstance(v, SQLEDITABLE):'
p123
ssg88
S'(func=<function create_xml>)'
p124
sg90
S'extract'
p125
sa(dp126
g67
S'/home/concordance/web2py/applications/test/controllers/control.py'
p127
sg69
(dp128
S'texts'
p129
S"<Row {'dmonth_writing': '', 'dyear_writing': '',...'', 'v': '', 'epigraph': '', 'group_text': None}>"
p130
sS'builtinopen'
p131
S'<built-in function open>'
p132
sS'texts.filename'
p133
S"''"
p134
sS'f'
S"<open file '/home/concordance/web2py/applications/test/uploads/2__3335.txt', mode 'rb'>"
p135
ssg75
I155
sg76
(dp136
I150
S'    for x in author_texts:'
p137
sI151
S'        texts = trymysql(trymysql.text1.id==x).select()[0] # select a poem'
p138
sI152
S'        words_from_base = trymysql(trymysql.allword.title==x).select() # select a poem words from allword base'
p139
sI153
S'        title = texts.title'
p140
sI154
S'        author = texts.author'
p141
sI155
S"        f = open(texts.filename, 'rb')"
p142
sI156
S'        content = f.readlines()'
p143
sI157
S"        text = etree.SubElement(page, 'text')"
p144
sI158
S"        info = etree.SubElement(text, 'info')"
p145
sI159
S"        one = etree.SubElement(info, 'title').text = title.decode('utf-8')"
p146
ssg88
S'()'
p147
sg90
S'create_xml'
p148
sasS'pyver'
p149
S'Python 2.7.6: /usr/local/bin/uwsgi (prefix: /usr)'
p150
sS'session'
p151
g62
(S's\xbe\x01\x00\x00<div><table><tr><td style="font-weight:bold;vertical-align:top;">flash</td><td style="vertical-align:top;">:</td><td><div>None</div></td></tr><tr><td style="font-weight:bold;vertical-align:top;">last_orderby</td><td style="vertical-align:top;">:</td><td><div>None</div></td></tr><tr><td style="font-weight:bold;vertical-align:top;">last_query</td><td style="vertical-align:top;">:</td><td><div>trymysql.text1.id&gt;0</div></td></tr></table></div>'
tRp152
sS'etype'
p153
S"<type 'exceptions.IOError'>"
p154
sS'date'
p155
S'Sun Mar 15 07:50:17 2015'
p156
sS'response'
p157
g62
(S's\xe4\x1e\x00\x00<div><table><tr><td style="font-weight:bold;vertical-align:top;">body</td><td style="vertical-align:top;">:</td><td><div>&lt;cStringIO.StringO object at 0x7f053db93308&gt;</div></td></tr><tr><td style="font-weight:bold;vertical-align:top;">cookies</td><td style="vertical-align:top;">:</td><td><div><table><tr><td style="font-weight:bold;vertical-align:top;">session_id_test</td><td style="vertical-align:top;">:</td><td><div>109.172.15.35-d5e8160c-1bec-4802-815c-3e1a54802928<table><tr><td style="font-weight:bold;vertical-align:top;">comment</td><td style="vertical-align:top;">:</td><td><div></div></td></tr><tr><td style="font-weight:bold;vertical-align:top;">domain</td><td style="vertical-align:top;">:</td><td><div></div></td></tr><tr><td style="font-weight:bold;vertical-align:top;">expires</td><td style="vertical-align:top;">:</td><td><div></div></td></tr><tr><td style="font-weight:bold;vertical-align:top;">httponly</td><td style="vertical-align:top;">:</td><td><div></div></td></tr><tr><td style="font-weight:bold;vertical-align:top;">max-age</td><td style="vertical-align:top;">:</td><td><div></div></td></tr><tr><td style="font-weight:bold;vertical-align:top;">path</td><td style="vertical-align:top;">:</td><td><div>/</div></td></tr><tr><td style="font-weight:bold;vertical-align:top;">secure</td><td style="vertical-align:top;">:</td><td><div></div></td></tr><tr><td style="font-weight:bold;vertical-align:top;">version</td><td style="vertical-align:top;">:</td><td><div></div></td></tr></table></div></td></tr></table></div></td></tr><tr><td style="font-weight:bold;vertical-align:top;">delimiters</td><td style="vertical-align:top;">:</td><td><div><table><tr><td><div>{{</div></td></tr><tr><td><div>}}</div></td></tr></table></div></td></tr><tr><td style="font-weight:bold;vertical-align:top;">files</td><td style="vertical-align:top;">:</td><td><div><table><tr><td><div>/test/static/plugin_sqleditable/js/mindmup-editabletable.js</div></td></tr></table></div></td></tr><tr><td style="font-weight:bold;vertical-align:top;">flash</td><td style="vertical-align:top;">:</td><td><div></div></td></tr><tr><td style="font-weight:bold;vertical-align:top;">generic_patterns</td><td style="vertical-align:top;">:</td><td><div><table></table></div></td></tr><tr><td style="font-weight:bold;vertical-align:top;">google_analytics_id</td><td style="vertical-align:top;">:</td><td><div>UA-52567545-1</div></td></tr><tr><td style="font-weight:bold;vertical-align:top;">headers</td><td style="vertical-align:top;">:</td><td><div><table><tr><td style="font-weight:bold;vertical-align:top;">X-Powered-By</td><td style="vertical-align:top;">:</td><td><div>web2py</div></td></tr></table></div></td></tr><tr><td style="font-weight:bold;vertical-align:top;">logo</td><td style="vertical-align:top;">:</td><td><div><a class="brand" href="http://concordances.ru"><b>concor<span>dances</span></b>.ru</a></div></td></tr><tr><td style="font-weight:bold;vertical-align:top;">menu</td><td style="vertical-align:top;">:</td><td><div><table><tr><td><div><table><tr><td><div>Home</div></td></tr><tr><td><div>False</div></td></tr><tr><td><div>/test/default/index</div></td></tr><tr><td><div><table></table></div></td></tr></table></div></td></tr><tr><td><div><table><tr><td><div><span class="highlighted">web2py</span></div></td></tr><tr><td><div>False</div></td></tr><tr><td><div>http://concordances.ru</div></td></tr><tr><td><div><table><tr><td><div><table><tr><td><div>\xd0\x9e \xd0\xbf\xd1\x80\xd0\xbe\xd0\xb5\xd0\xba\xd1\x82\xd0\xb5</div></td></tr><tr><td><div>False</div></td></tr><tr><td><div>/admin/default/about/test</div></td></tr></table></div></td></tr><tr><td><div><table><tr><td><div>\xd0\x90\xd0\xb4\xd0\xbc\xd0\xb8\xd0\xbd\xd0\xba\xd0\xb0</div></td></tr><tr><td><div>False</div></td></tr><tr><td><div>/admin/default/edit/test/controllers/control.py</div></td></tr></table></div></td></tr></table></div></td></tr></table></div></td></tr></table></div></td></tr><tr><td style="font-weight:bold;vertical-align:top;">meta</td><td style="vertical-align:top;">:</td><td><div><table><tr><td style="font-weight:bold;vertical-align:top;">author</td><td style="vertical-align:top;">:</td><td><div>Maria Levchenko &lt;marylevchenko@gmail.com&gt;</div></td></tr><tr><td style="font-weight:bold;vertical-align:top;">generator</td><td style="vertical-align:top;">:</td><td><div>\xd0\xa7\xd0\xb0\xd1\x81\xd1\x82\xd0\xbe\xd1\x82\xd0\xbd\xd1\x8b\xd0\xb9 \xd1\x81\xd0\xbb\xd0\xbe\xd0\xb2\xd0\xb0\xd1\x80\xd1\x8c \xd1\x80\xd1\x83\xd1\x81\xd1\x81\xd0\xba\xd0\xbe\xd0\xb9 \xd0\xbb\xd0\xb8\xd1\x82\xd0\xb5\xd1\x80\xd0\xb0\xd1\x82\xd1\x83\xd1\x80\xd1\x8b</div></td></tr><tr><td style="font-weight:bold;vertical-align:top;">keywords</td><td style="vertical-align:top;">:</td><td><div>concordance, natural language processing, critics</div></td></tr></table></div></td></tr><tr><td style="font-weight:bold;vertical-align:top;">models_to_run</td><td style="vertical-align:top;">:</td><td><div><table><tr><td><div>^\\w+\\.py$</div></td></tr><tr><td><div>^control/\\w+\\.py$</div></td></tr><tr><td><div>^control/create_xml/\\w+\\.py$</div></td></tr></table></div></td></tr><tr><td style="font-weight:bold;vertical-align:top;">postprocessing</td><td style="vertical-align:top;">:</td><td><div><table></table></div></td></tr><tr><td style="font-weight:bold;vertical-align:top;">session_client</td><td style="vertical-align:top;">:</td><td><div>109.172.15.35</div></td></tr><tr><td style="font-weight:bold;vertical-align:top;">session_cookie_compression_level</td><td style="vertical-align:top;">:</td><td><div>None</div></td></tr><tr><td style="font-weight:bold;vertical-align:top;">session_cookie_expires</td><td style="vertical-align:top;">:</td><td><div>None</div></td></tr><tr><td style="font-weight:bold;vertical-align:top;">session_cookie_key</td><td style="vertical-align:top;">:</td><td><div>None</div></td></tr><tr><td style="font-weight:bold;vertical-align:top;">session_data_name</td><td style="vertical-align:top;">:</td><td><div>session_data_test</div></td></tr><tr><td style="font-weight:bold;vertical-align:top;">session_file</td><td style="vertical-align:top;">:</td><td><div>&lt;open file &#x27;/home/concordance/web2py/applications/test/sessions/109.172.15.35-d5e8160c-1bec-4802-815c-3e1a54802928&#x27;, mode &#x27;rb+&#x27; at 0x7f053db7b540&gt;</div></td></tr><tr><td style="font-weight:bold;vertical-align:top;">session_filename</td><td style="vertical-align:top;">:</td><td><div>/home/concordance/web2py/applications/test/sessions/109.172.15.35-d5e8160c-1bec-4802-815c-3e1a54802928</div></td></tr><tr><td style="font-weight:bold;vertical-align:top;">session_hash</td><td style="vertical-align:top;">:</td><td><div>40a39d507c05144e61cd602a5d920f8e</div></td></tr><tr><td style="font-weight:bold;vertical-align:top;">session_id</td><td style="vertical-align:top;">:</td><td><div>109.172.15.35-d5e8160c-1bec-4802-815c-3e1a54802928</div></td></tr><tr><td style="font-weight:bold;vertical-align:top;">session_id_name</td><td style="vertical-align:top;">:</td><td><div>session_id_test</div></td></tr><tr><td style="font-weight:bold;vertical-align:top;">session_locked</td><td style="vertical-align:top;">:</td><td><div>True</div></td></tr><tr><td style="font-weight:bold;vertical-align:top;">session_masterapp</td><td style="vertical-align:top;">:</td><td><div>test</div></td></tr><tr><td style="font-weight:bold;vertical-align:top;">session_new</td><td style="vertical-align:top;">:</td><td><div>False</div></td></tr><tr><td style="font-weight:bold;vertical-align:top;">session_storage_type</td><td style="vertical-align:top;">:</td><td><div>file</div></td></tr><tr><td style="font-weight:bold;vertical-align:top;">status</td><td style="vertical-align:top;">:</td><td><div>200</div></td></tr><tr><td style="font-weight:bold;vertical-align:top;">subtitle</td><td style="vertical-align:top;">:</td><td><div></div></td></tr><tr><td style="font-weight:bold;vertical-align:top;">title</td><td style="vertical-align:top;">:</td><td><div>Test</div></td></tr><tr><td style="font-weight:bold;vertical-align:top;">view</td><td style="vertical-align:top;">:</td><td><div>control/create_xml.html</div></td></tr></table></div>'
tRp158
sS'locals'
p159
(dp160
S'all'
p161
S"<Row {'dmonth_writing': '', 'dyear_writing': '',...'', 'v': '', 'epigraph': '', 'group_text': None}>"
p162
sS'text'
p163
S'<Element text>'
p164
sS'stanza'
p165
S'<Element stanza>'
p166
sS'texts'
p167
S"<Row {'dmonth_writing': '', 'dyear_writing': '',...'', 'v': '', 'epigraph': '', 'group_text': None}>"
p168
sS'slovo_from_base'
p169
S"<Row {'partos': 'None', 'number': None, 'warning...stv': None, 'voice': None, 'transitivity': None}>"
p170
sS'slovo'
p171
S"u'.'"
p172
sS'poem'
p173
S'<Element poem>'
p174
sS'author'
p175
S'2L'
p176
sS'line_count'
p177
S'17'
p178
sS'three'
p179
S"u'\\u0413\\u0443\\u043c\\u0438\\u043b\\u0435\\u0432'"
p180
sS'content'
p181
S"['\\xd0\\xaf\\xd1\\x80\\xd1\\x87\\xd0\\xb5 \\xd0\\xb7\\xd0\\xbe\\xd0\\xbb\\xd0\\xbe\\xd1\\x82\\xd0\\xb0 \\xd0\\xb2\\xd1\\x81\\xd0\\xbf\\xd1\\x8b\\xd1\\x85\\xd0\\xbd\\xd1\\x83\\xd0\\xbb\\xd0\\xb8 \\xd0\\xb4\\xd0\\xbd\\xd0\\xb8,\\r\\n', '\\xd0\\x98 \\xd0\\xb1\\xd0\\xb5\\xd0\\xb6\\xd0\\xb0\\xd0\\xbb\\xd0\\xb0 \\xd0\\x9c\\xd0\\xb5\\xd0\\xb4\\xd0\\xb2\\xd0\\xb5\\xd0\\xb4\\xd0\\xb8\\xd1\\x86\\xd0\\xb0-\\xd0\\xbd\\xd0\\xbe\\xd1\\x87\\xd1\\x8c.\\r\\n', '\\xd0\\x94\\xd0\\xbe\\xd0\\xb3\\xd0\\xbe\\xd0\\xbd\\xd0\\xb8 \\xd0\\xb5\\xd0\\xb5, \\xd0\\xba\\xd0\\xbd\\xd1\\x8f\\xd0\\xb7\\xd1\\x8c, \\xd0\\xb4\\xd0\\xbe\\xd0\\xb3\\xd0\\xbe\\xd0\\xbd\\xd0\\xb8,\\r\\n', '\\xd0\\x97\\xd0\\xb0\\xd0\\xb0\\xd1\\x80\\xd0\\xba\\xd0\\xb0\\xd0\\xbd\\xd1\\x8c \\xd0\\xb8 \\xd0\\xba \\xd1\\x81\\xd0\\xb5\\xd0\\xb4\\xd0\\xbb\\xd1\\x83 \\xd0\\xbf\\xd1\\x80\\xd0\\xb8\\xd1\\x82\\xd0\\xbe\\xd1\\x80\\xd0\\xbe\\xd1\\x87\\xd1\\x8c!\\r\\n', '\\r\\n', '\\xd0\\x97\\xd0\\xb0\\xd0\\xb0\\xd1\\x80\\xd0\\xba\\xd0\\xb0\\xd0\\xbd\\xd1\\x8c \\xd0\\xb8 \\xd0\\xba \\xd1\\x81\\xd0\\xb5\\xd0\\xb4\\xd0\\xbb\\xd1\\x83 \\xd0\\xbf\\xd1\\x80\\xd0\\xb8\\xd1\\x82\\xd0\\xbe\\xd1\\x80\\xd0\\xbe\\xd1\\x87\\xd1\\x8c,\\r\\n', '\\xd0\\x90 \\xd0\\xbf\\xd0\\xbe\\xd1\\x82\\xd0\\xbe\\xd0\\xbc \\xd0\\xb2 \\xd0\\xb3\\xd0\\xbe\\xd0\\xbb\\xd1\\x83\\xd0\\xb1\\xd0\\xbe\\xd0\\xbc \\xd1\\x82\\xd0\\xb5\\xd1\\x80\\xd0\\xb5\\xd0\\xbc\\xd1\\x83\\r\\n', '\\xd0\\xa3\\xd0\\xba\\xd0\\xb0\\xd0\\xb6\\xd0\\xb8 \\xd0\\xbd\\xd0\\xb0 \\xd0\\x9c\\xd0\\xb5\\xd0\\xb4\\xd0\\xb2\\xd0\\xb5\\xd0\\xb4\\xd0\\xb8\\xd1\\x86\\xd1\\x83-\\xd0\\xbd\\xd0\\xbe\\xd1\\x87\\xd1\\x8c\\r\\n', '\\xd0\\x91\\xd0\\xbe\\xd0\\xb3\\xd0\\xb0\\xd1\\x82\\xd1\\x8b\\xd1\\x80\\xd1\\x81\\xd0\\xba\\xd0\\xbe\\xd0\\xbc\\xd1\\x83 \\xd0\\x9f\\xd1\\x81\\xd1\\x83 \\xd1\\x81\\xd0\\xb2\\xd0\\xbe\\xd0\\xb5\\xd0\\xbc\\xd1\\x83.\\r\\n', '\\r\\n', '\\xd0\\x9c\\xd0\\xb5\\xd1\\x80\\xd1\\x82\\xd0\\xb2\\xd0\\xbe\\xd0\\xb9 \\xd1\\x85\\xd0\\xb2\\xd0\\xb0\\xd1\\x82\\xd0\\xba\\xd0\\xbe\\xd0\\xb9 \\xd0\\xb2\\xd1\\x86\\xd0\\xb5\\xd0\\xbf\\xd0\\xbb\\xd1\\x8f\\xd0\\xb5\\xd1\\x82\\xd1\\x81\\xd1\\x8f \\xd0\\x9f\\xd0\\xb5\\xd1\\x81,\\r\\n', '\\xd0\\x9e\\xd0\\xbd \\xd0\\xbe\\xd1\\x82\\xd0\\xb2\\xd0\\xb0\\xd0\\xb6\\xd0\\xb5\\xd0\\xbd, \\xd1\\x81\\xd0\\xb8\\xd0\\xbb\\xd0\\xb5\\xd0\\xbd \\xd0\\xb8 \\xd1\\x85\\xd0\\xb8\\xd1\\x82\\xd0\\xb5\\xd1\\x80,\\r\\n', '\\xd0\\x9e\\xd0\\xbd \\xd0\\xb7\\xd0\\xb2\\xd0\\xb5\\xd1\\x80\\xd0\\xb8\\xd0\\xbd\\xd1\\x83\\xd1\\x8e \\xd0\\xb7\\xd0\\xbb\\xd0\\xbe\\xd0\\xb1\\xd1\\x83 \\xd0\\xb4\\xd0\\xbe\\xd0\\xbd\\xd0\\xb5\\xd1\\x81\\r\\n', '\\xd0\\x9a \\xd0\\xbc\\xd0\\xb5\\xd0\\xb4\\xd0\\xb2\\xd0\\xb5\\xd0\\xb4\\xd1\\x8f\\xd0\\xbc \\xd1\\x81 \\xd0\\xbd\\xd0\\xb5\\xd0\\xb7\\xd0\\xb0\\xd0\\xbf\\xd0\\xb0\\xd0\\xbc\\xd1\\x8f\\xd1\\x82\\xd0\\xbd\\xd1\\x8b\\xd1\\x85 \\xd0\\xbf\\xd0\\xbe\\xd1\\x80.\\r\\n', '\\r\\n', '\\xd0\\x9d\\xd0\\xb8\\xd0\\xba\\xd1\\x83\\xd0\\xb4\\xd0\\xb0 \\xd0\\xb5\\xd0\\xb9 \\xd1\\x82\\xd0\\xbe\\xd0\\xb3\\xd0\\xb4\\xd0\\xb0 \\xd0\\xbd\\xd0\\xb5 \\xd1\\x81\\xd0\\xbf\\xd0\\xb0\\xd1\\x81\\xd1\\x82\\xd0\\xb8\\xd1\\x81\\xd1\\x8c,\\r\\n', '\\xd0\\x98 \\xd0\\xb8\\xd0\\xb7\\xd0\\xb4\\xd0\\xbe\\xd1\\x85\\xd0\\xbd\\xd0\\xb5\\xd1\\x82 \\xd0\\xbe\\xd0\\xbd\\xd0\\xb0 \\xd0\\xbd\\xd0\\xb0\\xd0\\xba\\xd0\\xbe\\xd0\\xbd\\xd0\\xb5\\xd1\\x86,\\r\\n', '\\xd0\\xa7\\xd1\\x82\\xd0\\xbe\\xd0\\xb1\\xd1\\x8b \\xd0\\xb2 \\xd0\\xbd\\xd0\\xb5\\xd0\\xb1\\xd0\\xb5 \\xd1\\x81\\xd0\\xbf\\xd0\\xbe\\xd0\\xba\\xd0\\xbe\\xd0\\xb9\\xd0\\xbd\\xd0\\xbe \\xd0\\xbf\\xd0\\xb0\\xd1\\x81\\xd0\\xbb\\xd0\\xb8\\xd1\\x81\\xd1\\x8c\\r\\n', '\\xd0\\x9a\\xd0\\xbe\\xd0\\xb7\\xd0\\xb5\\xd1\\x80\\xd0\\xbe\\xd0\\xb3, \\xd0\\xb8 \\xd0\\x9e\\xd0\\xb2\\xd0\\xb5\\xd0\\xbd, \\xd0\\xb8 \\xd0\\xa2\\xd0\\xb5\\xd0\\xbb\\xd0\\xb5\\xd1\\x86.']"
p182
sS'outFile'
p183
S"<closed file 'applications/test/uploads/xml/2.xml', mode 'w'>"
p184
sS'new_name'
p185
S"'applications/test/uploads/xml/2.xml'"
p186
sS'string'
p187
S'<Element line>'
p188
sS'words_from_base'
p189
S'<Rows (0)>'
p190
sS'right_line'
p191
S"[u'\\u041a\\u043e\\u0437\\u0435\\u0440\\u043e\\u0433', u',', u'\\u0438', u'\\u041e\\u0432\\u0435\\u043d', u',', u'\\u0438', u'\\u0422\\u0435\\u043b\\u0435\\u0446', u'.']"
p192
sS'word_number'
p193
S'504169L'
p194
sS'two'
p195
S"u'\\u041d\\u0438\\u043a\\u043e\\u043b\\u0430\\u0439'"
p196
sS'path'
p197
S"'applications/test/uploads/xml/'"
p198
sS'one'
p199
S"u'\\u0412 \\u043d\\u0435\\u0431\\u0435\\u0441\\u0430\\u0445'"
p200
sS'info'
p201
S'<Element info>'
p202
sS'word'
p203
S"u'.'"
p204
sS'f'
S"<open file '/home/concordance/web2py/applications/test/uploads/2__3335.txt', mode 'rb'>"
p205
sS'doc'
p206
S'<lxml.etree._ElementTree object>'
p207
sS'title'
p208
S"'\\xd0\\x9f\\xd1\\x83\\xd1\\x82\\xd0\\xb5\\xd1\\x88\\xd0\\xb5\\xd1\\x81\\xd1\\x82\\xd0\\xb2\\xd0\\xb8\\xd0\\xb5 \\xd0\\xb2 \\xd0\\x9a\\xd0\\xb8\\xd1\\x82\\xd0\\xb0\\xd0\\xb9'"
p209
sS'author_texts'
p210
S'[3159L, 3160L, 3161L, 3162L, 3163L, 3164L, 3165L, 3166L, 3167L, 3168L, 3169L, 3170L, 3171L, 3172L, 3173L, 3174L, 3175L, 3176L, 3177L, 3178L, ...]'
p211
sS'page'
p212
S'<Element results>'
p213
sS'count_stanza'
p214
S'4'
sS'x'
S'3336L'
p215
sg76
S"'\\xd0\\x9a\\xd0\\xbe\\xd0\\xb7\\xd0\\xb5\\xd1\\x80\\xd0\\xbe\\xd0\\xb3, \\xd0\\xb8 \\xd0\\x9e\\xd0\\xb2\\xd0\\xb5\\xd0\\xbd, \\xd0\\xb8 \\xd0\\xa2\\xd0\\xb5\\xd0\\xbb\\xd0\\xb5\\xd1\\x86.'"
p216
sssS'traceback'
p217
S'Traceback (most recent call last):\n  File "/home/concordance/web2py/gluon/restricted.py", line 220, in restricted\n    exec ccode in environment\n  File "/home/concordance/web2py/applications/test/controllers/control.py", line 278, in <module>\n  File "applications/test/modules/plugin_sqleditable/editable.py", line 394, in extract\n    r=func()\n  File "/home/concordance/web2py/applications/test/controllers/control.py", line 155, in create_xml\n    f = open(texts.filename, \'rb\')\nIOError: [Errno 2] No such file or directory: \'\'\n'
p218
s.