(dp1
S'output'
p2
S"<type 'exceptions.ValueError'> All strings must be XML compatible: Unicode or ASCII, no NULL bytes or control characters"
p3
sS'layer'
p4
S'/home/concordance/web2py/applications/test/controllers/control.py'
p5
sS'code'
p6
S'# coding: utf8\nimport nltk\nimport pymorphy2\nfrom tokenize1 import *\nimport os\nfrom os import listdir\nfrom os.path import isfile, join\nfrom operator import itemgetter\nimport select\nfrom lxml import etree\nfrom plugin_sqleditable.editable import SQLEDITABLE\nSQLEDITABLE.init()\n\ndef index():\n    texts = trymysql().select(trymysql.author.ALL, orderby=trymysql.author.family)\n    return dict(texts=texts)\n\ndef tokenize_all(): # prepares text for tokenization (decoding) and write result in database trymysql.allword, after - morpho/index1.html\n    for x in range(1156,1157): # if text not yet in database (last:3500)\n        text2 = trymysql(trymysql.text1.id==x).select().first()\n        text1 = text2[\'body\'].decode(\'utf-8\')\n        path = "/home/concordance/web2py/applications/test/uploads/"\n        filename1=str(text2.author.id) + "_" + str(text2.n_in_group) + "_" + str(text2.id) + str(\'.txt\')\n        filename= str(path) + str(filename1)\n        f = open(filename, \'w\')\n        f.write(text1.encode(\'utf-8\'))\n        f.close()\n        text2.update_record(filename=filename)\n        normal = normalize_new2(text1)\n        for token in normal:\n            trymysql.allword.insert(title=text2.id, word=token[0], partos=str(token[1]), author=text2.author, text_location=token[3], tense=str(token[4]), lemma=str(token[2].encode(\'utf-8\')))\n            message = "\xd0\x92\xd1\x81\xd0\xb5 \xd0\xb4\xd0\xbe\xd0\xb1\xd0\xb0\xd0\xb2\xd0\xbb\xd0\xb5\xd0\xbd\xd0\xbe \xd0\xb2 \xd0\xb1\xd0\xb0\xd0\xb7\xd1\x83"\n    return dict(message=message)\n\ndef search_for_files():\n    path = "/home/concordance/web2py/applications/test/corpus/"\n    files = [f for f in listdir(path) if isfile(join(path,f)) ]\n    return dict(files=files)\n\ndef verbs_all(): # show verbs in the text\n    verbs1=[row[\'word\'] for row in trymysql((trymysql.allword.author==\'1\')&(trymysql.allword.partos==\'VERB\')).select()]\n    verbs1=sorted(set(verbs1))\n    return dict(verbs1=verbs1)\n\ndef mystem():\n    word="\xd1\x81\xd1\x82\xd0\xbe\xd1\x8f\xd0\xbb\xd0\xb0"\n    path = "/home/concordance/mystem/"\n    myste=subprocess.Popen([path, \'-nlc\', \'-e utf-8\'],\n                                        stdout=subprocess.PIPE,\n                                        stdin=subprocess.PIPE, shell=True)\n    new=myste.stdin.write(word)\n    readable, _, _ = select.select([myste.stdout], [], [], 5e-3)\n    stem = readable[0].readline().strip().lower()\n    return dict(new=new, stem=stem)\n\n@auth.requires_login()\ndef edit_forms():\n    def record():\n        rows = trymysql(trymysql.allword.title ==request.args(0)).select()\n        return [row.id for row in rows]\n    trymysql.allword.id.readable = True\n    trymysql.allword.word.writable = True\n    trymysql.allword.title.readable = True\n    trymysql.allword.partos.writable = True\n    trymysql.allword.tense.writable = True\n    trymysql.allword.lexical_group.readable=False\n    trymysql.allword.lemma.writable=True\n\n    response.title = \'demo020\'\n    response.view = \'plugin_sqleditable/sample.html\'\n    editable = SQLEDITABLE(trymysql.allword, record=record(), deletable=True).process()\n    return dict(editable=editable)\n\n@auth.requires_login()\ndef edit_forms1():\n    def record():\n        titles = [x for x in range(600,700)]\n        rows = trymysql((trymysql.allword.sobstv == "Geox")&(trymysql.allword.title.belongs(titles))).select()\n        return [row.id for row in rows]\n    trymysql.allword.id.readable = True\n    trymysql.allword.word.writable = True\n    trymysql.allword.title.writable = True\n    trymysql.allword.partos.writable = True\n    trymysql.allword.tense.writable = True\n    trymysql.allword.lexical_group.readable=False\n    trymysql.allword.lemma.writable=True\n\n    response.title = \'demo020\'\n    response.view = \'plugin_sqleditable/sample.html\'\n    editable = SQLEDITABLE(trymysql.allword, record=record(), deletable=True).process()\n    return dict(editable=editable)\n\ndef month():\n    months = [(x, trymysql(trymysql.text1.month_writing==x).count()) for x in range(1,13)]\n    return dict(months=months)\n\ndef create_xml():\n    n = 8\n    author_texts = [all.id for all in trymysql(trymysql.text1.author==n).select()]\n    page = etree.Element(\'all\') # create xml tree\n    doc = etree.ElementTree(page)\n    a = etree.SubElement(page, \'author\').text = trymysql(trymysql.author.id==n).select().first().family\n    for x in author_texts[1:]:\n        texts = trymysql(trymysql.text1.id==int(x)).select()[0] # select one poem\n        words_from_base = trymysql(trymysql.allword.title==int(x)).select() # select the poem\'s words from allword base\n        f = open(texts.filename, \'rb\')\n        content = f.readlines()\n        f.close()\n        text = etree.SubElement(page, \'text\')\n        info = etree.SubElement(text, \'info\')\n        one = etree.SubElement(info, \'title\').text = texts.title.decode(\'utf-8\')\n        two = etree.SubElement(info, \'name\').text = texts.author.name.decode(\'utf-8\')\n        try:\n            year = etree.SubElement(info, \'year\').text = texts.year_writing\n            month = etree.SubElement(info, \'month\').text = texts.month_writing\n            day = etree.SubElement(info, \'day\').text = texts.day_writing\n        except:\n            pass\n        poem = etree.SubElement(text, \'poem\')\n        count_stanza = 1                                             # count stanzas\n        line_count = 1                   # get first word\'s id from allword base\n        word_count = 0\n        word_number = words_from_base[0].id\n        stanza = etree.SubElement(poem,  \'stanza\', number = str(count_stanza))\n        for lines in content:\n            if lines in [\'\\n\', \'\\r\\n\']:\n                count_stanza += 1\n                stanza = etree.SubElement(poem, \'stanza\', number = str(count_stanza))\n            else:\n                string = etree.SubElement(stanza, \'line\', number=str(line_count))\n                right_line = tokenize2(lines.decode(\'utf-8\'))\n                line_count +=1\n                for word in right_line:\n                    if len(words_from_base)>0:\n                        if words_from_base[word_count].id != word_number:\n                            slovo=etree.SubElement(string, \'werd\')\n                            word_number+=1\n                        else:\n                            slovo = etree.SubElement(string, \'word\', number=str(words_from_base[word_count].id), pos = words_from_base[word_count].partos).text=words_from_base[word_count].lemma.decode(\'utf-8\')\n                            word_count +=1\n                            word_number +=1\n                    else:\n                        slovo=etree.SubElement(string, \'wurd\')\n                        word_number +=1\n                        word_count += 1\n    path = "applications/test/uploads/xml/8"\n    new_name=path + ".xml"\n    outFile = open(new_name, \'w\')\n    doc.write(outFile, pretty_print=True, xml_declaration=True, encoding=\'utf-16\')\n    outFile.close()\n\ndef create_xml_unique(): # create one xml for one text\n    ## author_texts = [all.id for all in trymysql(trymysql.text1.author==11).select()]\n    for x in range(1827,1877):\n        page = etree.Element(\'results\') # create xml tree\n        doc = etree.ElementTree(page)\n        texts = trymysql(trymysql.text1.id==int(x)).select().first() # select one poem\n        words_from_base = trymysql(trymysql.allword.title==int(x)).select().first().id # select the poem\'s words from allword base\n        title = texts.title\n        author = texts.author\n        f = open(texts.filename, \'rb\')\n        content = f.readlines()\n        f.close()\n        text = etree.SubElement(page, \'text\')\n        info = etree.SubElement(text, \'info\')\n        one = etree.SubElement(info, \'title\').text = title.decode(\'utf-8\')\n        two = etree.SubElement(info, \'name\').text = author.name.decode(\'utf-8\')\n        three = etree.SubElement(info, \'author\').text = author.family.decode(\'utf-8\')\n        poem = etree.SubElement(text, \'poem\')\n        count_stanza = 1                                             # count stanzas\n        line_count = 1\n        word_number = words_from_base                       # get first word\'s id from allword base\n        stanza = etree.SubElement(poem,  \'stanza\', number = str(count_stanza))\n        for lines in content:\n            if lines in [\'\\n\', \'\\r\\n\']:\n                count_stanza += 1\n                stanza = etree.SubElement(poem, \'stanza\', number = str(count_stanza))\n            else:\n                string = etree.SubElement(stanza, \'line\', number=str(line_count))\n                right_line = tokenize2(lines.decode(\'utf-8\'))\n                line_count +=1\n                for word in right_line:\n                    if trymysql(trymysql.allword.id==word_number).select().first() is None:\n                        slovo = etree.SubElement(string, \'werd\', number = str(word_number))\n                    else:\n                        if trymysql(trymysql.allword.id==word_number).select().first().id in [all.id for all in trymysql(trymysql.allword.title==x).select()]:\n                            slovo_from_base = trymysql(trymysql.allword.id==word_number).select().first()\n                            slovo = etree.SubElement(string, \'word\', number=str(slovo_from_base.id), pos = slovo_from_base.partos).text=slovo_from_base.lemma.decode(\'utf-8\')\n                    word_number+=1 # update word\'s id\n        path = "applications/test/uploads/xml/12/"\n        new_name=path+str(x) + ".xml"\n        outFile = open(new_name, \'w\')\n        doc.write(outFile, pretty_print=True, xml_declaration=True, encoding=\'utf-16\')\n        outFile.close()\n\n\ndef create_concordance():\n    part=[\'VERB\', \'NOUN\', \'ADJF\', \'ADJS\', \'INFN\', \'GRND\', \'PRTF\', \'PRTS\', \'ADVB\']\n    all1=[all.word for all in trymysql(trymysql.allword.author==1).select()]\n    slovar = [all.word for all in trymysql(trymysql.concordance.id>0).select()]\n    words=sorted(set(all1))\n    for x in words:\n        if x not in slovar:\n            trymysql.concordance.insert(word=x)\n    return dict(part=words[:100])\n\ndef create_number():\n    for all in trymysql((trymysql.allword.id>4999)&(trymysql.allword.id<10000)).select():\n        number = trymysql(trymysql.concordance.word==all.word).select().first().id\n        all.update_record(concordance_number= number)\n    return dict(message="OK")\n\nresponse._vars=response._caller(create_xml)\n'
p7
sS'snapshot'
p8
(dp9
S'exception'
p10
(dp11
S'__hash__'
p12
S"<method-wrapper '__hash__' of exceptions.ValueError object>"
p13
sS'__setattr__'
p14
S"<method-wrapper '__setattr__' of exceptions.ValueError object>"
p15
sS'__reduce_ex__'
p16
S'<built-in method __reduce_ex__ of exceptions.ValueError object>'
p17
sS'__getslice__'
p18
S"<method-wrapper '__getslice__' of exceptions.ValueError object>"
p19
sS'__getitem__'
p20
S"<method-wrapper '__getitem__' of exceptions.ValueError object>"
p21
sS'__setstate__'
p22
S'<built-in method __setstate__ of exceptions.ValueError object>'
p23
sS'args'
p24
S"('All strings must be XML compatible: Unicode or ASCII, no NULL bytes or control characters',)"
p25
sS'__reduce__'
p26
S'<built-in method __reduce__ of exceptions.ValueError object>'
p27
sS'__str__'
p28
S"<method-wrapper '__str__' of exceptions.ValueError object>"
p29
sS'__format__'
p30
S'<built-in method __format__ of exceptions.ValueError object>'
p31
sS'__getattribute__'
p32
S"<method-wrapper '__getattribute__' of exceptions.ValueError object>"
p33
sS'__class__'
p34
S"<type 'exceptions.ValueError'>"
p35
sS'__unicode__'
p36
S'<built-in method __unicode__ of exceptions.ValueError object>'
p37
sS'__delattr__'
p38
S"<method-wrapper '__delattr__' of exceptions.ValueError object>"
p39
sS'__subclasshook__'
p40
S'<built-in method __subclasshook__ of type object>'
p41
sS'__repr__'
p42
S"<method-wrapper '__repr__' of exceptions.ValueError object>"
p43
sS'__dict__'
p44
S'{}'
p45
sS'__sizeof__'
p46
S'<built-in method __sizeof__ of exceptions.ValueError object>'
p47
sS'__doc__'
p48
S"'Inappropriate argument value (of correct type).'"
p49
sS'__init__'
p50
S"<method-wrapper '__init__' of exceptions.ValueError object>"
p51
sS'__new__'
p52
S'<built-in method __new__ of type object>'
p53
ssS'evalue'
p54
S'All strings must be XML compatible: Unicode or ASCII, no NULL bytes or control characters'
p55
sS'request'
p56
cgluon.html
XML_unpickle
p57
(S's\xfa]\x00\x00<div><table><tr><td style="font-weight:bold;vertical-align:top;">ajax</td><td style="vertical-align:top;">:</td><td><div>False</div></td></tr><tr><td style="font-weight:bold;vertical-align:top;">application</td><td style="vertical-align:top;">:</td><td><div>test</div></td></tr><tr><td style="font-weight:bold;vertical-align:top;">args</td><td style="vertical-align:top;">:</td><td><div><table></table></div></td></tr><tr><td style="font-weight:bold;vertical-align:top;">cid</td><td style="vertical-align:top;">:</td><td><div>None</div></td></tr><tr><td style="font-weight:bold;vertical-align:top;">client</td><td style="vertical-align:top;">:</td><td><div>109.172.15.29</div></td></tr><tr><td style="font-weight:bold;vertical-align:top;">controller</td><td style="vertical-align:top;">:</td><td><div>control</div></td></tr><tr><td style="font-weight:bold;vertical-align:top;">cookies</td><td style="vertical-align:top;">:</td><td><div><table><tr><td style="font-weight:bold;vertical-align:top;">session_id_admin</td><td style="vertical-align:top;">:</td><td><div>93.185.176.186-f00594a2-9273-4a12-a90e-57ccfaf6dbc0<table><tr><td style="font-weight:bold;vertical-align:top;">comment</td><td style="vertical-align:top;">:</td><td><div></div></td></tr><tr><td style="font-weight:bold;vertical-align:top;">domain</td><td style="vertical-align:top;">:</td><td><div></div></td></tr><tr><td style="font-weight:bold;vertical-align:top;">expires</td><td style="vertical-align:top;">:</td><td><div></div></td></tr><tr><td style="font-weight:bold;vertical-align:top;">httponly</td><td style="vertical-align:top;">:</td><td><div></div></td></tr><tr><td style="font-weight:bold;vertical-align:top;">max-age</td><td style="vertical-align:top;">:</td><td><div></div></td></tr><tr><td style="font-weight:bold;vertical-align:top;">path</td><td style="vertical-align:top;">:</td><td><div></div></td></tr><tr><td style="font-weight:bold;vertical-align:top;">secure</td><td style="vertical-align:top;">:</td><td><div></div></td></tr><tr><td style="font-weight:bold;vertical-align:top;">version</td><td style="vertical-align:top;">:</td><td><div></div></td></tr></table></div></td></tr><tr><td style="font-weight:bold;vertical-align:top;">session_id_test</td><td style="vertical-align:top;">:</td><td><div>109.172.15.29-ad36509a-4a78-4c08-b887-074c07eed8fe<table><tr><td style="font-weight:bold;vertical-align:top;">comment</td><td style="vertical-align:top;">:</td><td><div></div></td></tr><tr><td style="font-weight:bold;vertical-align:top;">domain</td><td style="vertical-align:top;">:</td><td><div></div></td></tr><tr><td style="font-weight:bold;vertical-align:top;">expires</td><td style="vertical-align:top;">:</td><td><div></div></td></tr><tr><td style="font-weight:bold;vertical-align:top;">httponly</td><td style="vertical-align:top;">:</td><td><div></div></td></tr><tr><td style="font-weight:bold;vertical-align:top;">max-age</td><td style="vertical-align:top;">:</td><td><div></div></td></tr><tr><td style="font-weight:bold;vertical-align:top;">path</td><td style="vertical-align:top;">:</td><td><div></div></td></tr><tr><td style="font-weight:bold;vertical-align:top;">secure</td><td style="vertical-align:top;">:</td><td><div></div></td></tr><tr><td style="font-weight:bold;vertical-align:top;">version</td><td style="vertical-align:top;">:</td><td><div></div></td></tr></table></div></td></tr><tr><td style="font-weight:bold;vertical-align:top;">session_id_welcome</td><td style="vertical-align:top;">:</td><td><div>93.185.176.186-84566653-56bf-42b6-bbcd-82c69ded41f6<table><tr><td style="font-weight:bold;vertical-align:top;">comment</td><td style="vertical-align:top;">:</td><td><div></div></td></tr><tr><td style="font-weight:bold;vertical-align:top;">domain</td><td style="vertical-align:top;">:</td><td><div></div></td></tr><tr><td style="font-weight:bold;vertical-align:top;">expires</td><td style="vertical-align:top;">:</td><td><div></div></td></tr><tr><td style="font-weight:bold;vertical-align:top;">httponly</td><td style="vertical-align:top;">:</td><td><div></div></td></tr><tr><td style="font-weight:bold;vertical-align:top;">max-age</td><td style="vertical-align:top;">:</td><td><div></div></td></tr><tr><td style="font-weight:bold;vertical-align:top;">path</td><td style="vertical-align:top;">:</td><td><div></div></td></tr><tr><td style="font-weight:bold;vertical-align:top;">secure</td><td style="vertical-align:top;">:</td><td><div></div></td></tr><tr><td style="font-weight:bold;vertical-align:top;">version</td><td style="vertical-align:top;">:</td><td><div></div></td></tr></table></div></td></tr><tr><td style="font-weight:bold;vertical-align:top;">sessionid</td><td style="vertical-align:top;">:</td><td><div>78e59081fc39edd967f51e51bca2d142<table><tr><td style="font-weight:bold;vertical-align:top;">comment</td><td style="vertical-align:top;">:</td><td><div></div></td></tr><tr><td style="font-weight:bold;vertical-align:top;">domain</td><td style="vertical-align:top;">:</td><td><div></div></td></tr><tr><td style="font-weight:bold;vertical-align:top;">expires</td><td style="vertical-align:top;">:</td><td><div></div></td></tr><tr><td style="font-weight:bold;vertical-align:top;">httponly</td><td style="vertical-align:top;">:</td><td><div></div></td></tr><tr><td style="font-weight:bold;vertical-align:top;">max-age</td><td style="vertical-align:top;">:</td><td><div></div></td></tr><tr><td style="font-weight:bold;vertical-align:top;">path</td><td style="vertical-align:top;">:</td><td><div></div></td></tr><tr><td style="font-weight:bold;vertical-align:top;">secure</td><td style="vertical-align:top;">:</td><td><div></div></td></tr><tr><td style="font-weight:bold;vertical-align:top;">version</td><td style="vertical-align:top;">:</td><td><div></div></td></tr></table></div></td></tr></table></div></td></tr><tr><td style="font-weight:bold;vertical-align:top;">env</td><td style="vertical-align:top;">:</td><td><div><table><tr><td style="font-weight:bold;vertical-align:top;">CONTENT_LENGTH</td><td style="vertical-align:top;">:</td><td><div></div></td></tr><tr><td style="font-weight:bold;vertical-align:top;">CONTENT_TYPE</td><td style="vertical-align:top;">:</td><td><div></div></td></tr><tr><td style="font-weight:bold;vertical-align:top;">DOCUMENT_ROOT</td><td style="vertical-align:top;">:</td><td><div>/usr/local/openresty/nginx/html</div></td></tr><tr><td style="font-weight:bold;vertical-align:top;">HTTPS</td><td style="vertical-align:top;">:</td><td><div>on</div></td></tr><tr><td style="font-weight:bold;vertical-align:top;">HTTP_ACCEPT</td><td style="vertical-align:top;">:</td><td><div>text/html,application/xhtml+xml,application/xml;q=0.9,image/webp,*/*;q=0.8</div></td></tr><tr><td style="font-weight:bold;vertical-align:top;">HTTP_ACCEPT_ENCODING</td><td style="vertical-align:top;">:</td><td><div>gzip, deflate, sdch</div></td></tr><tr><td style="font-weight:bold;vertical-align:top;">HTTP_ACCEPT_LANGUAGE</td><td style="vertical-align:top;">:</td><td><div>ru,en;q=0.8,en-US;q=0.6</div></td></tr><tr><td style="font-weight:bold;vertical-align:top;">HTTP_CACHE_CONTROL</td><td style="vertical-align:top;">:</td><td><div>max-age=0</div></td></tr><tr><td style="font-weight:bold;vertical-align:top;">HTTP_CONNECTION</td><td style="vertical-align:top;">:</td><td><div>close</div></td></tr><tr><td style="font-weight:bold;vertical-align:top;">HTTP_COOKIE</td><td style="vertical-align:top;">:</td><td><div>__utma=133430031.498134778.1411055673.1417592085.1418758331.35; __utmc=133430031; __utmz=133430031.1411055673.1.1.utmcsr=(direct)|utmccn=(direct)|utmcmd=(none); session_id_welcome=93.185.176.186-84566653-56bf-42b6-bbcd-82c69ded41f6; sessionid=78e59081fc39edd967f51e51bca2d142; session_id_test=109.172.15.29-ad36509a-4a78-4c08-b887-074c07eed8fe; __utma=134993891.2005790410.1411054907.1427221504.1427226376.93; __utmb=134993891.179.10.1427226376; __utmc=134993891; __utmz=134993891.1411054907.1.1.utmcsr=(direct)|utmccn=(direct)|utmcmd=(none); _gat=1; _ga=GA1.2.498134778.1411055673; session_id_admin=93.185.176.186-f00594a2-9273-4a12-a90e-57ccfaf6dbc0</div></td></tr><tr><td style="font-weight:bold;vertical-align:top;">HTTP_HOST</td><td style="vertical-align:top;">:</td><td><div>concordance.pythonanywhere.com</div></td></tr><tr><td style="font-weight:bold;vertical-align:top;">HTTP_USER_AGENT</td><td style="vertical-align:top;">:</td><td><div>Mozilla/5.0 (Windows NT 6.1) AppleWebKit/537.36 (KHTML, like Gecko) Chrome/41.0.2272.101 Safari/537.36</div></td></tr><tr><td style="font-weight:bold;vertical-align:top;">HTTP_X_FORWARDED_FOR</td><td style="vertical-align:top;">:</td><td><div>109.172.15.29</div></td></tr><tr><td style="font-weight:bold;vertical-align:top;">HTTP_X_REAL_IP</td><td style="vertical-align:top;">:</td><td><div>109.172.15.29</div></td></tr><tr><td style="font-weight:bold;vertical-align:top;">PATH_INFO</td><td style="vertical-align:top;">:</td><td><div>/test/control/create_xml.html</div></td></tr><tr><td style="font-weight:bold;vertical-align:top;">QUERY_STRING</td><td style="vertical-align:top;">:</td><td><div></div></td></tr><tr><td style="font-weight:bold;vertical-align:top;">REMOTE_ADDR</td><td style="vertical-align:top;">:</td><td><div>10.157.107.232</div></td></tr><tr><td style="font-weight:bold;vertical-align:top;">REMOTE_PORT</td><td style="vertical-align:top;">:</td><td><div>57133</div></td></tr><tr><td style="font-weight:bold;vertical-align:top;">REQUEST_METHOD</td><td style="vertical-align:top;">:</td><td><div>GET</div></td></tr><tr><td style="font-weight:bold;vertical-align:top;">REQUEST_URI</td><td style="vertical-align:top;">:</td><td><div>/test/control/create_xml.html</div></td></tr><tr><td style="font-weight:bold;vertical-align:top;">SCRIPT_NAME</td><td style="vertical-align:top;">:</td><td><div></div></td></tr><tr><td style="font-weight:bold;vertical-align:top;">SERVER_NAME</td><td style="vertical-align:top;">:</td><td><div>concordance.pythonanywhere.com</div></td></tr><tr><td style="font-weight:bold;vertical-align:top;">SERVER_PORT</td><td style="vertical-align:top;">:</td><td><div>443</div></td></tr><tr><td style="font-weight:bold;vertical-align:top;">SERVER_PROTOCOL</td><td style="vertical-align:top;">:</td><td><div>HTTP/1.1</div></td></tr><tr><td style="font-weight:bold;vertical-align:top;">app_folders</td><td style="vertical-align:top;">:</td><td><div>set([&#x27;/home/concordance/web2py/applications/admin/&#x27;, &#x27;/home/concordance/web2py/applications/test/&#x27;])</div></td></tr><tr><td style="font-weight:bold;vertical-align:top;">applications_parent</td><td style="vertical-align:top;">:</td><td><div>/home/concordance/web2py</div></td></tr><tr><td style="font-weight:bold;vertical-align:top;">content_length</td><td style="vertical-align:top;">:</td><td><div></div></td></tr><tr><td style="font-weight:bold;vertical-align:top;">content_type</td><td style="vertical-align:top;">:</td><td><div></div></td></tr><tr><td style="font-weight:bold;vertical-align:top;">db_sessions</td><td style="vertical-align:top;">:</td><td><div>set([])</div></td></tr><tr><td style="font-weight:bold;vertical-align:top;">debugging</td><td style="vertical-align:top;">:</td><td><div>True</div></td></tr><tr><td style="font-weight:bold;vertical-align:top;">document_root</td><td style="vertical-align:top;">:</td><td><div>/usr/local/openresty/nginx/html</div></td></tr><tr><td style="font-weight:bold;vertical-align:top;">gluon_parent</td><td style="vertical-align:top;">:</td><td><div>/home/concordance/web2py</div></td></tr><tr><td style="font-weight:bold;vertical-align:top;">http_accept</td><td style="vertical-align:top;">:</td><td><div>text/html,application/xhtml+xml,application/xml;q=0.9,image/webp,*/*;q=0.8</div></td></tr><tr><td style="font-weight:bold;vertical-align:top;">http_accept_encoding</td><td style="vertical-align:top;">:</td><td><div>gzip, deflate, sdch</div></td></tr><tr><td style="font-weight:bold;vertical-align:top;">http_accept_language</td><td style="vertical-align:top;">:</td><td><div>ru,en;q=0.8,en-US;q=0.6</div></td></tr><tr><td style="font-weight:bold;vertical-align:top;">http_cache_control</td><td style="vertical-align:top;">:</td><td><div>max-age=0</div></td></tr><tr><td style="font-weight:bold;vertical-align:top;">http_connection</td><td style="vertical-align:top;">:</td><td><div>close</div></td></tr><tr><td style="font-weight:bold;vertical-align:top;">http_cookie</td><td style="vertical-align:top;">:</td><td><div>__utma=133430031.498134778.1411055673.1417592085.1418758331.35; __utmc=133430031; __utmz=133430031.1411055673.1.1.utmcsr=(direct)|utmccn=(direct)|utmcmd=(none); session_id_welcome=93.185.176.186-84566653-56bf-42b6-bbcd-82c69ded41f6; sessionid=78e59081fc39edd967f51e51bca2d142; session_id_test=109.172.15.29-ad36509a-4a78-4c08-b887-074c07eed8fe; __utma=134993891.2005790410.1411054907.1427221504.1427226376.93; __utmb=134993891.179.10.1427226376; __utmc=134993891; __utmz=134993891.1411054907.1.1.utmcsr=(direct)|utmccn=(direct)|utmcmd=(none); _gat=1; _ga=GA1.2.498134778.1411055673; session_id_admin=93.185.176.186-f00594a2-9273-4a12-a90e-57ccfaf6dbc0</div></td></tr><tr><td style="font-weight:bold;vertical-align:top;">http_host</td><td style="vertical-align:top;">:</td><td><div>concordance.pythonanywhere.com</div></td></tr><tr><td style="font-weight:bold;vertical-align:top;">http_user_agent</td><td style="vertical-align:top;">:</td><td><div>Mozilla/5.0 (Windows NT 6.1) AppleWebKit/537.36 (KHTML, like Gecko) Chrome/41.0.2272.101 Safari/537.36</div></td></tr><tr><td style="font-weight:bold;vertical-align:top;">http_x_forwarded_for</td><td style="vertical-align:top;">:</td><td><div>109.172.15.29</div></td></tr><tr><td style="font-weight:bold;vertical-align:top;">http_x_real_ip</td><td style="vertical-align:top;">:</td><td><div>109.172.15.29</div></td></tr><tr><td style="font-weight:bold;vertical-align:top;">https</td><td style="vertical-align:top;">:</td><td><div>on</div></td></tr><tr><td style="font-weight:bold;vertical-align:top;">is_jython</td><td style="vertical-align:top;">:</td><td><div>False</div></td></tr><tr><td style="font-weight:bold;vertical-align:top;">is_pypy</td><td style="vertical-align:top;">:</td><td><div>False</div></td></tr><tr><td style="font-weight:bold;vertical-align:top;">is_source</td><td style="vertical-align:top;">:</td><td><div>True</div></td></tr><tr><td style="font-weight:bold;vertical-align:top;">local_hosts</td><td style="vertical-align:top;">:</td><td><div><table><tr><td><div>giles-liveweb1</div></td></tr><tr><td><div>::ffff:127.0.0.1</div></td></tr><tr><td><div>::1</div></td></tr><tr><td><div>50.19.109.98</div></td></tr><tr><td><div>localhost</div></td></tr><tr><td><div>concordance.pythonanywhere.com</div></td></tr><tr><td><div>127.0.0.1</div></td></tr></table></div></td></tr><tr><td style="font-weight:bold;vertical-align:top;">path_info</td><td style="vertical-align:top;">:</td><td><div>/test/control/create_xml.html</div></td></tr><tr><td style="font-weight:bold;vertical-align:top;">query_string</td><td style="vertical-align:top;">:</td><td><div></div></td></tr><tr><td style="font-weight:bold;vertical-align:top;">remote_addr</td><td style="vertical-align:top;">:</td><td><div>10.157.107.232</div></td></tr><tr><td style="font-weight:bold;vertical-align:top;">remote_port</td><td style="vertical-align:top;">:</td><td><div>57133</div></td></tr><tr><td style="font-weight:bold;vertical-align:top;">request_method</td><td style="vertical-align:top;">:</td><td><div>GET</div></td></tr><tr><td style="font-weight:bold;vertical-align:top;">request_uri</td><td style="vertical-align:top;">:</td><td><div>/test/control/create_xml.html</div></td></tr><tr><td style="font-weight:bold;vertical-align:top;">script_name</td><td style="vertical-align:top;">:</td><td><div></div></td></tr><tr><td style="font-weight:bold;vertical-align:top;">server_name</td><td style="vertical-align:top;">:</td><td><div>concordance.pythonanywhere.com</div></td></tr><tr><td style="font-weight:bold;vertical-align:top;">server_port</td><td style="vertical-align:top;">:</td><td><div>443</div></td></tr><tr><td style="font-weight:bold;vertical-align:top;">server_protocol</td><td style="vertical-align:top;">:</td><td><div>HTTP/1.1</div></td></tr><tr><td style="font-weight:bold;vertical-align:top;">uwsgi.node</td><td style="vertical-align:top;">:</td><td><div>giles-liveweb1</div></td></tr><tr><td style="font-weight:bold;vertical-align:top;">uwsgi.version</td><td style="vertical-align:top;">:</td><td><div>2.0.5.1</div></td></tr><tr><td style="font-weight:bold;vertical-align:top;">uwsgi_node</td><td style="vertical-align:top;">:</td><td><div>giles-liveweb1</div></td></tr><tr><td style="font-weight:bold;vertical-align:top;">uwsgi_version</td><td style="vertical-align:top;">:</td><td><div>2.0.5.1</div></td></tr><tr><td style="font-weight:bold;vertical-align:top;">web2py_original_uri</td><td style="vertical-align:top;">:</td><td><div>/test/control/create_xml.html</div></td></tr><tr><td style="font-weight:bold;vertical-align:top;">web2py_path</td><td style="vertical-align:top;">:</td><td><div>/home/concordance/web2py</div></td></tr><tr><td style="font-weight:bold;vertical-align:top;">web2py_version</td><td style="vertical-align:top;">:</td><td><div>2.9.5-stable+timestamp.2014.03.16.02.35.39</div></td></tr><tr><td style="font-weight:bold;vertical-align:top;">wsgi.errors</td><td style="vertical-align:top;">:</td><td><div>&lt;uwsgi_file__bin_user_wsgi_wrapper.ErrorLogFile object at 0x7f05d646be50&gt;</div></td></tr><tr><td style="font-weight:bold;vertical-align:top;">wsgi.file_wrapper</td><td style="vertical-align:top;">:</td><td><div>&lt;built-in function uwsgi_sendfile&gt;</div></td></tr><tr><td style="font-weight:bold;vertical-align:top;">wsgi.input</td><td style="vertical-align:top;">:</td><td><div>&lt;uwsgi._Input object at 0x7f05c3f6c870&gt;</div></td></tr><tr><td style="font-weight:bold;vertical-align:top;">wsgi.multiprocess</td><td style="vertical-align:top;">:</td><td><div>True</div></td></tr><tr><td style="font-weight:bold;vertical-align:top;">wsgi.multithread</td><td style="vertical-align:top;">:</td><td><div>False</div></td></tr><tr><td style="font-weight:bold;vertical-align:top;">wsgi.run_once</td><td style="vertical-align:top;">:</td><td><div>False</div></td></tr><tr><td style="font-weight:bold;vertical-align:top;">wsgi.url_scheme</td><td style="vertical-align:top;">:</td><td><div>https</div></td></tr><tr><td style="font-weight:bold;vertical-align:top;">wsgi.version</td><td style="vertical-align:top;">:</td><td><div><table><tr><td><div>1</div></td></tr><tr><td><div>0</div></td></tr></table></div></td></tr><tr><td style="font-weight:bold;vertical-align:top;">wsgi_errors</td><td style="vertical-align:top;">:</td><td><div>&lt;uwsgi_file__bin_user_wsgi_wrapper.ErrorLogFile object at 0x7f05d646be50&gt;</div></td></tr><tr><td style="font-weight:bold;vertical-align:top;">wsgi_file_wrapper</td><td style="vertical-align:top;">:</td><td><div>&lt;built-in function uwsgi_sendfile&gt;</div></td></tr><tr><td style="font-weight:bold;vertical-align:top;">wsgi_input</td><td style="vertical-align:top;">:</td><td><div>&lt;uwsgi._Input object at 0x7f05c3f6c870&gt;</div></td></tr><tr><td style="font-weight:bold;vertical-align:top;">wsgi_multiprocess</td><td style="vertical-align:top;">:</td><td><div>True</div></td></tr><tr><td style="font-weight:bold;vertical-align:top;">wsgi_multithread</td><td style="vertical-align:top;">:</td><td><div>False</div></td></tr><tr><td style="font-weight:bold;vertical-align:top;">wsgi_run_once</td><td style="vertical-align:top;">:</td><td><div>False</div></td></tr><tr><td style="font-weight:bold;vertical-align:top;">wsgi_url_scheme</td><td style="vertical-align:top;">:</td><td><div>https</div></td></tr><tr><td style="font-weight:bold;vertical-align:top;">wsgi_version</td><td style="vertical-align:top;">:</td><td><div><table><tr><td><div>1</div></td></tr><tr><td><div>0</div></td></tr></table></div></td></tr></table></div></td></tr><tr><td style="font-weight:bold;vertical-align:top;">extension</td><td style="vertical-align:top;">:</td><td><div>html</div></td></tr><tr><td style="font-weight:bold;vertical-align:top;">folder</td><td style="vertical-align:top;">:</td><td><div>/home/concordance/web2py/applications/test/</div></td></tr><tr><td style="font-weight:bold;vertical-align:top;">function</td><td style="vertical-align:top;">:</td><td><div>create_xml</div></td></tr><tr><td style="font-weight:bold;vertical-align:top;">global_settings</td><td style="vertical-align:top;">:</td><td><div><table><tr><td style="font-weight:bold;vertical-align:top;">app_folders</td><td style="vertical-align:top;">:</td><td><div>set([&#x27;/home/concordance/web2py/applications/admin/&#x27;, &#x27;/home/concordance/web2py/applications/test/&#x27;])</div></td></tr><tr><td style="font-weight:bold;vertical-align:top;">applications_parent</td><td style="vertical-align:top;">:</td><td><div>/home/concordance/web2py</div></td></tr><tr><td style="font-weight:bold;vertical-align:top;">db_sessions</td><td style="vertical-align:top;">:</td><td><div>set([])</div></td></tr><tr><td style="font-weight:bold;vertical-align:top;">debugging</td><td style="vertical-align:top;">:</td><td><div>True</div></td></tr><tr><td style="font-weight:bold;vertical-align:top;">gluon_parent</td><td style="vertical-align:top;">:</td><td><div>/home/concordance/web2py</div></td></tr><tr><td style="font-weight:bold;vertical-align:top;">is_jython</td><td style="vertical-align:top;">:</td><td><div>False</div></td></tr><tr><td style="font-weight:bold;vertical-align:top;">is_pypy</td><td style="vertical-align:top;">:</td><td><div>False</div></td></tr><tr><td style="font-weight:bold;vertical-align:top;">is_source</td><td style="vertical-align:top;">:</td><td><div>True</div></td></tr><tr><td style="font-weight:bold;vertical-align:top;">local_hosts</td><td style="vertical-align:top;">:</td><td><div><table><tr><td><div>giles-liveweb1</div></td></tr><tr><td><div>::ffff:127.0.0.1</div></td></tr><tr><td><div>::1</div></td></tr><tr><td><div>50.19.109.98</div></td></tr><tr><td><div>localhost</div></td></tr><tr><td><div>concordance.pythonanywhere.com</div></td></tr><tr><td><div>127.0.0.1</div></td></tr></table></div></td></tr><tr><td style="font-weight:bold;vertical-align:top;">web2py_version</td><td style="vertical-align:top;">:</td><td><div>2.9.5-stable+timestamp.2014.03.16.02.35.39</div></td></tr></table></div></td></tr><tr><td style="font-weight:bold;vertical-align:top;">is_https</td><td style="vertical-align:top;">:</td><td><div>True</div></td></tr><tr><td style="font-weight:bold;vertical-align:top;">is_local</td><td style="vertical-align:top;">:</td><td><div>False</div></td></tr><tr><td style="font-weight:bold;vertical-align:top;">is_restful</td><td style="vertical-align:top;">:</td><td><div>False</div></td></tr><tr><td style="font-weight:bold;vertical-align:top;">now</td><td style="vertical-align:top;">:</td><td><div>datetime.datetime(2015, 3, 24, 21, 15, 37, 436377)</div></td></tr><tr><td style="font-weight:bold;vertical-align:top;">raw_args</td><td style="vertical-align:top;">:</td><td><div></div></td></tr><tr><td style="font-weight:bold;vertical-align:top;">raw_extension</td><td style="vertical-align:top;">:</td><td><div>html</div></td></tr><tr><td style="font-weight:bold;vertical-align:top;">url</td><td style="vertical-align:top;">:</td><td><div>/test/control/create_xml.html</div></td></tr><tr><td style="font-weight:bold;vertical-align:top;">utcnow</td><td style="vertical-align:top;">:</td><td><div>datetime.datetime(2015, 3, 24, 21, 15, 37, 436392)</div></td></tr><tr><td style="font-weight:bold;vertical-align:top;">uuid</td><td style="vertical-align:top;">:</td><td><div>test/109.172.15.29.2015-03-24.21-15-37.2fbc7725-d78e-40a3-9e8c-0ca7a45e815d</div></td></tr><tr><td style="font-weight:bold;vertical-align:top;">wsgi</td><td style="vertical-align:top;">:</td><td><div>&lt;gluon.main.LazyWSGI object at 0x7f05c3ca9290&gt;</div></td></tr></table></div>'
tRp58
sS'frames'
p59
(lp60
(dp61
S'file'
p62
S'/home/concordance/web2py/gluon/restricted.py'
p63
sS'dump'
p64
(dp65
S'environment'
p66
S"{'A': <class 'gluon.html.A'>, 'ANY_OF': <class 'gluon.validators.ANY_OF'>, 'Auth': <class 'gluon.tools.Auth'>, 'B': <class 'gluon.html.B'>, 'BEAUTIFY': <class 'gluon.html.BEAUTIFY'>, 'BODY': <class 'gluon.html.BODY'>, 'BR': <class 'gluon.html.BR'>, 'BUTTON': <class 'gluon.html.BUTTON'>, 'CAT': <class 'gluon.html.CAT'>, 'CENTER': <class 'gluon.html.CENTER'>, ...}"
p67
sS'ccode'
p68
S'<code object <module> at 0x7f05c15028b0, file "/...pplications/test/controllers/control.py", line 2>'
p69
ssS'lnum'
p70
I220
sS'lines'
p71
(dp72
I224
S'        # do not encapsulate (obfuscate) the original RestrictedError'
p73
sI215
S'    try:'
p74
sI216
S'        if isinstance(code, types.CodeType):'
p75
sI217
S'            ccode = code'
p76
sI218
S'        else:'
p77
sI219
S'            ccode = compile2(code, layer)'
p78
sI220
S'        exec ccode in environment'
p79
sI221
S'    except HTTP:'
p80
sI222
S'        raise'
p81
sI223
S'    except RestrictedError:'
p82
ssS'call'
p83
S'(code=\'# coding: utf8\\nimport nltk\\nimport pymorphy2\\nfrom...K")\\n\\nresponse._vars=response._caller(create_xml)\\n\', environment={\'A\': <class \'gluon.html.A\'>, \'ANY_OF\': <class \'gluon.validators.ANY_OF\'>, \'Auth\': <class \'gluon.tools.Auth\'>, \'B\': <class \'gluon.html.B\'>, \'BEAUTIFY\': <class \'gluon.html.BEAUTIFY\'>, \'BODY\': <class \'gluon.html.BODY\'>, \'BR\': <class \'gluon.html.BR\'>, \'BUTTON\': <class \'gluon.html.BUTTON\'>, \'CAT\': <class \'gluon.html.CAT\'>, \'CENTER\': <class \'gluon.html.CENTER\'>, ...}, layer=\'/home/concordance/web2py/applications/test/controllers/control.py\')'
p84
sS'func'
p85
S'restricted'
p86
sa(dp87
g62
S'/home/concordance/web2py/applications/test/controllers/control.py'
p88
sg64
(dp89
sg70
I213
sg71
(dp90
I202
S'    for x in words:'
p91
sI203
S'        if x not in slovar:'
p92
sI204
S'            trymysql.concordance.insert(word=x)'
p93
sI205
S'    return dict(part=words[:100])'
p94
sI206
S''
sI207
S'def create_number():'
p95
sI208
S'    for all in trymysql((trymysql.allword.id>4999)&(trymysql.allword.id<10000)).select():'
p96
sI209
S'        number = trymysql(trymysql.concordance.word==all.word).select().first().id'
p97
sI210
S'        all.update_record(concordance_number= number)'
p98
sI211
S'    return dict(message="OK")'
p99
ssg83
S'()'
p100
sg85
S'<module>'
p101
sa(dp102
g62
S'/home/concordance/web2py/applications/test/modules/plugin_sqleditable/editable.py'
p103
sg64
(dp104
S'r'
S'undefined'
p105
sS'func'
p106
S'<function create_xml>'
p107
ssg70
I394
sg71
(dp108
I389
S'        self.next = None'
p109
sI390
S''
sI391
S'    @staticmethod'
p110
sI392
S'    def init():'
p111
sI393
S'        def extract(func):'
p112
sI394
S'            r=func()'
p113
sI395
S'            if request.ajax:'
p114
sI396
S'                if isinstance(r, dict):'
p115
sI397
S'                    for v in r.values():'
p116
sI398
S'                        if isinstance(v, SQLEDITABLE):'
p117
ssg83
S'(func=<function create_xml>)'
p118
sg85
S'extract'
p119
sa(dp120
g62
S'/home/concordance/web2py/applications/test/controllers/control.py'
p121
sg64
(dp122
S'a'
S"'\\xd0\\x91\\xd1\\x80\\xd1\\x8e\\xd1\\x81\\xd0\\xbe\\xd0\\xb2'"
p123
sS'trymysql.author'
p124
S'<Table author (id,name,surname,family,year_birth,year_death,gender,birth_location,death_location)>'
p125
sS').select'
p126
g105
sS').text'
p127
S'None'
p128
sS'etree.SubElement'
p129
S'<built-in function SubElement>'
p130
sS'n'
S'8'
sS'global etree'
p131
S"<module 'lxml.etree' from '/usr/local/lib/python2.7/dist-packages/lxml/etree.so'>"
p132
sS'trymysql.author.id'
p133
S'<gluon.dal.Field object>'
p134
sS'global trymysql'
p135
S'<DAL uri="mysql:******@mysql.server/concordance$new">'
p136
sS'page'
p137
S'<Element all>'
p138
ssg70
I102
sg71
(dp139
I97
S'def create_xml():'
p140
sI98
S'    n = 8'
p141
sI99
S'    author_texts = [all.id for all in trymysql(trymysql.text1.author==n).select()]'
p142
sI100
S"    page = etree.Element('all') # create xml tree"
p143
sI101
S'    doc = etree.ElementTree(page)'
p144
sI102
S"    a = etree.SubElement(page, 'author').text = trymysql(trymysql.author.id==n).select().first().family"
p145
sI103
S'    for x in author_texts[1:]:'
p146
sI104
S'        texts = trymysql(trymysql.text1.id==int(x)).select()[0] # select one poem'
p147
sI105
S"        words_from_base = trymysql(trymysql.allword.title==int(x)).select() # select the poem's words from allword base"
p148
sI106
S"        f = open(texts.filename, 'rb')"
p149
ssg83
S'()'
p150
sg85
S'create_xml'
p151
sa(dp152
g62
S'/home/concordance/web2py/lxml.etree.pyx'
p153
sg64
(dp154
sg70
I953
sg71
(dp155
sg83
S'()'
p156
sg85
S'lxml.etree._Element.text.__set__ (src/lxml/lxml.etree.c:44971)'
p157
sa(dp158
g62
S'/home/concordance/web2py/apihelpers.pxi'
p159
sg64
(dp160
sg70
I677
sg71
(dp161
sg83
S'()'
p162
sg85
S'lxml.etree._setNodeText (src/lxml/lxml.etree.c:20273)'
p163
sa(dp164
g62
S'/home/concordance/web2py/apihelpers.pxi'
p165
sg64
(dp166
sg70
I1395
sg71
(dp167
sg83
S'()'
p168
sg85
S'lxml.etree._utf8 (src/lxml/lxml.etree.c:26485)'
p169
sasS'pyver'
p170
S'Python 2.7.6: /usr/local/bin/uwsgi (prefix: /usr)'
p171
sS'session'
p172
g57
(S's<\x01\x00\x00<div><table><tr><td style="font-weight:bold;vertical-align:top;">last_orderby</td><td style="vertical-align:top;">:</td><td><div>None</div></td></tr><tr><td style="font-weight:bold;vertical-align:top;">last_query</td><td style="vertical-align:top;">:</td><td><div>trymysql.text1.id&gt;0</div></td></tr></table></div>'
tRp173
sS'etype'
p174
S"<type 'exceptions.ValueError'>"
p175
sS'date'
p176
S'Tue Mar 24 21:15:37 2015'
p177
sS'response'
p178
g57
(S's\xe4\x1e\x00\x00<div><table><tr><td style="font-weight:bold;vertical-align:top;">body</td><td style="vertical-align:top;">:</td><td><div>&lt;cStringIO.StringO object at 0x7f05c10f6d50&gt;</div></td></tr><tr><td style="font-weight:bold;vertical-align:top;">cookies</td><td style="vertical-align:top;">:</td><td><div><table><tr><td style="font-weight:bold;vertical-align:top;">session_id_test</td><td style="vertical-align:top;">:</td><td><div>109.172.15.29-ad36509a-4a78-4c08-b887-074c07eed8fe<table><tr><td style="font-weight:bold;vertical-align:top;">comment</td><td style="vertical-align:top;">:</td><td><div></div></td></tr><tr><td style="font-weight:bold;vertical-align:top;">domain</td><td style="vertical-align:top;">:</td><td><div></div></td></tr><tr><td style="font-weight:bold;vertical-align:top;">expires</td><td style="vertical-align:top;">:</td><td><div></div></td></tr><tr><td style="font-weight:bold;vertical-align:top;">httponly</td><td style="vertical-align:top;">:</td><td><div></div></td></tr><tr><td style="font-weight:bold;vertical-align:top;">max-age</td><td style="vertical-align:top;">:</td><td><div></div></td></tr><tr><td style="font-weight:bold;vertical-align:top;">path</td><td style="vertical-align:top;">:</td><td><div>/</div></td></tr><tr><td style="font-weight:bold;vertical-align:top;">secure</td><td style="vertical-align:top;">:</td><td><div></div></td></tr><tr><td style="font-weight:bold;vertical-align:top;">version</td><td style="vertical-align:top;">:</td><td><div></div></td></tr></table></div></td></tr></table></div></td></tr><tr><td style="font-weight:bold;vertical-align:top;">delimiters</td><td style="vertical-align:top;">:</td><td><div><table><tr><td><div>{{</div></td></tr><tr><td><div>}}</div></td></tr></table></div></td></tr><tr><td style="font-weight:bold;vertical-align:top;">files</td><td style="vertical-align:top;">:</td><td><div><table><tr><td><div>/test/static/plugin_sqleditable/js/mindmup-editabletable.js</div></td></tr></table></div></td></tr><tr><td style="font-weight:bold;vertical-align:top;">flash</td><td style="vertical-align:top;">:</td><td><div></div></td></tr><tr><td style="font-weight:bold;vertical-align:top;">generic_patterns</td><td style="vertical-align:top;">:</td><td><div><table></table></div></td></tr><tr><td style="font-weight:bold;vertical-align:top;">google_analytics_id</td><td style="vertical-align:top;">:</td><td><div>UA-52567545-1</div></td></tr><tr><td style="font-weight:bold;vertical-align:top;">headers</td><td style="vertical-align:top;">:</td><td><div><table><tr><td style="font-weight:bold;vertical-align:top;">X-Powered-By</td><td style="vertical-align:top;">:</td><td><div>web2py</div></td></tr></table></div></td></tr><tr><td style="font-weight:bold;vertical-align:top;">logo</td><td style="vertical-align:top;">:</td><td><div><a class="brand" href="http://concordances.ru"><b>concor<span>dances</span></b>.ru</a></div></td></tr><tr><td style="font-weight:bold;vertical-align:top;">menu</td><td style="vertical-align:top;">:</td><td><div><table><tr><td><div><table><tr><td><div>Home</div></td></tr><tr><td><div>False</div></td></tr><tr><td><div>/test/default/index</div></td></tr><tr><td><div><table></table></div></td></tr></table></div></td></tr><tr><td><div><table><tr><td><div><span class="highlighted">web2py</span></div></td></tr><tr><td><div>False</div></td></tr><tr><td><div>http://concordances.ru</div></td></tr><tr><td><div><table><tr><td><div><table><tr><td><div>\xd0\x9e \xd0\xbf\xd1\x80\xd0\xbe\xd0\xb5\xd0\xba\xd1\x82\xd0\xb5</div></td></tr><tr><td><div>False</div></td></tr><tr><td><div>/admin/default/about/test</div></td></tr></table></div></td></tr><tr><td><div><table><tr><td><div>\xd0\x90\xd0\xb4\xd0\xbc\xd0\xb8\xd0\xbd\xd0\xba\xd0\xb0</div></td></tr><tr><td><div>False</div></td></tr><tr><td><div>/admin/default/edit/test/controllers/control.py</div></td></tr></table></div></td></tr></table></div></td></tr></table></div></td></tr></table></div></td></tr><tr><td style="font-weight:bold;vertical-align:top;">meta</td><td style="vertical-align:top;">:</td><td><div><table><tr><td style="font-weight:bold;vertical-align:top;">author</td><td style="vertical-align:top;">:</td><td><div>Maria Levchenko &lt;marylevchenko@gmail.com&gt;</div></td></tr><tr><td style="font-weight:bold;vertical-align:top;">generator</td><td style="vertical-align:top;">:</td><td><div>\xd0\xa7\xd0\xb0\xd1\x81\xd1\x82\xd0\xbe\xd1\x82\xd0\xbd\xd1\x8b\xd0\xb9 \xd1\x81\xd0\xbb\xd0\xbe\xd0\xb2\xd0\xb0\xd1\x80\xd1\x8c \xd1\x80\xd1\x83\xd1\x81\xd1\x81\xd0\xba\xd0\xbe\xd0\xb9 \xd0\xbb\xd0\xb8\xd1\x82\xd0\xb5\xd1\x80\xd0\xb0\xd1\x82\xd1\x83\xd1\x80\xd1\x8b</div></td></tr><tr><td style="font-weight:bold;vertical-align:top;">keywords</td><td style="vertical-align:top;">:</td><td><div>concordance, natural language processing, critics</div></td></tr></table></div></td></tr><tr><td style="font-weight:bold;vertical-align:top;">models_to_run</td><td style="vertical-align:top;">:</td><td><div><table><tr><td><div>^\\w+\\.py$</div></td></tr><tr><td><div>^control/\\w+\\.py$</div></td></tr><tr><td><div>^control/create_xml/\\w+\\.py$</div></td></tr></table></div></td></tr><tr><td style="font-weight:bold;vertical-align:top;">postprocessing</td><td style="vertical-align:top;">:</td><td><div><table></table></div></td></tr><tr><td style="font-weight:bold;vertical-align:top;">session_client</td><td style="vertical-align:top;">:</td><td><div>109.172.15.29</div></td></tr><tr><td style="font-weight:bold;vertical-align:top;">session_cookie_compression_level</td><td style="vertical-align:top;">:</td><td><div>None</div></td></tr><tr><td style="font-weight:bold;vertical-align:top;">session_cookie_expires</td><td style="vertical-align:top;">:</td><td><div>None</div></td></tr><tr><td style="font-weight:bold;vertical-align:top;">session_cookie_key</td><td style="vertical-align:top;">:</td><td><div>None</div></td></tr><tr><td style="font-weight:bold;vertical-align:top;">session_data_name</td><td style="vertical-align:top;">:</td><td><div>session_data_test</div></td></tr><tr><td style="font-weight:bold;vertical-align:top;">session_file</td><td style="vertical-align:top;">:</td><td><div>&lt;open file &#x27;/home/concordance/web2py/applications/test/sessions/109.172.15.29-ad36509a-4a78-4c08-b887-074c07eed8fe&#x27;, mode &#x27;rb+&#x27; at 0x7f05c3e3b810&gt;</div></td></tr><tr><td style="font-weight:bold;vertical-align:top;">session_filename</td><td style="vertical-align:top;">:</td><td><div>/home/concordance/web2py/applications/test/sessions/109.172.15.29-ad36509a-4a78-4c08-b887-074c07eed8fe</div></td></tr><tr><td style="font-weight:bold;vertical-align:top;">session_hash</td><td style="vertical-align:top;">:</td><td><div>c495aeb49231de51382583f98c81030e</div></td></tr><tr><td style="font-weight:bold;vertical-align:top;">session_id</td><td style="vertical-align:top;">:</td><td><div>109.172.15.29-ad36509a-4a78-4c08-b887-074c07eed8fe</div></td></tr><tr><td style="font-weight:bold;vertical-align:top;">session_id_name</td><td style="vertical-align:top;">:</td><td><div>session_id_test</div></td></tr><tr><td style="font-weight:bold;vertical-align:top;">session_locked</td><td style="vertical-align:top;">:</td><td><div>True</div></td></tr><tr><td style="font-weight:bold;vertical-align:top;">session_masterapp</td><td style="vertical-align:top;">:</td><td><div>test</div></td></tr><tr><td style="font-weight:bold;vertical-align:top;">session_new</td><td style="vertical-align:top;">:</td><td><div>False</div></td></tr><tr><td style="font-weight:bold;vertical-align:top;">session_storage_type</td><td style="vertical-align:top;">:</td><td><div>file</div></td></tr><tr><td style="font-weight:bold;vertical-align:top;">status</td><td style="vertical-align:top;">:</td><td><div>200</div></td></tr><tr><td style="font-weight:bold;vertical-align:top;">subtitle</td><td style="vertical-align:top;">:</td><td><div></div></td></tr><tr><td style="font-weight:bold;vertical-align:top;">title</td><td style="vertical-align:top;">:</td><td><div>Test</div></td></tr><tr><td style="font-weight:bold;vertical-align:top;">view</td><td style="vertical-align:top;">:</td><td><div>control/create_xml.html</div></td></tr></table></div>'
tRp179
sS'locals'
p180
(dp181
S'ParserBasedElementClassLookup'
p182
S"<type 'lxml.etree.ParserBasedElementClassLookup'>"
p183
sS'xmlfile'
p184
S"<type 'lxml.etree.xmlfile'>"
p185
sS'register_namespace'
p186
S'<built-in function register_namespace>'
p187
sS'NamespaceRegistryError'
p188
S"<class 'lxml.etree.NamespaceRegistryError'>"
p189
sS'XPathEvaluator'
p190
S'<built-in function XPathEvaluator>'
p191
sS'strip_attributes'
p192
S'<built-in function strip_attributes>'
p193
sS'SiblingsIterator'
p194
S"<type 'lxml.etree.SiblingsIterator'>"
p195
sS'LIBXSLT_VERSION'
p196
S'(1, 1, 28)'
p197
sS'XMLDTDID'
p198
S'<built-in function XMLDTDID>'
p199
sS'ElementTree'
p200
S'<built-in function ElementTree>'
p201
sS'cleanup_namespaces'
p202
S'<built-in function cleanup_namespaces>'
p203
sS'set_default_parser'
p204
S'<built-in function set_default_parser>'
p205
sS'ElementClassLookup'
p206
S"<type 'lxml.etree.ElementClassLookup'>"
p207
sS'parseid'
p208
S'<built-in function parseid>'
p209
sS'LxmlSyntaxError'
p210
S"<class 'lxml.etree.LxmlSyntaxError'>"
p211
sS'_XSLTProcessingInstruction'
p212
S"<type 'lxml.etree._XSLTProcessingInstruction'>"
p213
sS'__pyx_capi__'
p214
S'{\'appendChild\': <capsule object "void (struct LxmlElement *, struct LxmlElement *)">, \'appendChildToElement\': <capsule object "int (struct LxmlElement *, struct LxmlElement *)">, \'attributeValue\': <capsule object "PyObject *(xmlNode *, xmlAttr *)">, \'attributeValueFromNsName\': <capsule object "PyObject *(xmlNode *, const xmlChar *, const xmlChar *)">, \'callLookupFallback\': <capsule object "PyObject *(struct LxmlFallbackE...lassLookup *, struct LxmlDocument *, xmlNode *)">, \'collectAttributes\': <capsule object "PyObject *(xmlNode *, int)">, \'deepcopyNodeToDocument\': <capsule object "struct LxmlElement *(struct LxmlDocument *, xmlNode *)">, \'delAttribute\': <capsule object "int (struct LxmlElement *, PyObject *)">, \'delAttributeFromNsName\': <capsule object "int (xmlNode *, const xmlChar *, const xmlChar *)">, \'documentOrRaise\': <capsule object "struct LxmlDocument *(PyObject *)">, ...}'
p215
sS'LIBXML_VERSION'
p216
S'(2, 9, 1)'
p217
sS'XSLTParseError'
p218
S"<class 'lxml.etree.XSLTParseError'>"
p219
sS'_ElementMatchIterator'
p220
S"<type 'lxml.etree._ElementMatchIterator'>"
p221
sS'XPathEvalError'
p222
S"<class 'lxml.etree.XPathEvalError'>"
p223
sS'LxmlRegistryError'
p224
S"<class 'lxml.etree.LxmlRegistryError'>"
p225
sS'__file__'
p226
S"'/usr/local/lib/python2.7/dist-packages/lxml/etree.so'"
p227
sS'TreeBuilder'
p228
S"<type 'lxml.etree.TreeBuilder'>"
p229
sS'ParseError'
p230
S"<class 'lxml.etree.ParseError'>"
p231
sS'C14NError'
p232
S"<class 'lxml.etree.C14NError'>"
p233
sS'XMLPullParser'
p234
S"<type 'lxml.etree.XMLPullParser'>"
p235
sS'CommentBase'
p236
S"<type 'lxml.etree.CommentBase'>"
p237
sS'tostring'
p238
S'<built-in function tostring>'
p239
sS'iselement'
p240
S'<built-in function iselement>'
p241
sS'_FeedParser'
p242
S"<type 'lxml.etree._FeedParser'>"
p243
sS'XPathError'
p244
S"<class 'lxml.etree.XPathError'>"
p245
sS'LxmlError'
p246
S"<class 'lxml.etree.LxmlError'>"
p247
sS'__version__'
p248
S"u'3.3.5'"
p249
sS'XMLID'
p250
S'<built-in function XMLID>'
p251
sS'DocumentInvalid'
p252
S"<class 'lxml.etree.DocumentInvalid'>"
p253
sS'FunctionNamespace'
p254
S'<built-in function FunctionNamespace>'
p255
sS'XSLTExtensionError'
p256
S"<class 'lxml.etree.XSLTExtensionError'>"
p257
sS'Entity'
p258
S'<built-in function Entity>'
p259
sS'_Entity'
p260
S"<type 'lxml.etree._Entity'>"
p261
sS'iterparse'
p262
S"<type 'lxml.etree.iterparse'>"
p263
sS'ElementTextIterator'
p264
S"<type 'lxml.etree.ElementTextIterator'>"
p265
sS'ElementChildIterator'
p266
S"<type 'lxml.etree.ElementChildIterator'>"
p267
sS'XPath'
p268
S"<type 'lxml.etree.XPath'>"
p269
sS'_LogEntry'
p270
S"<type 'lxml.etree._LogEntry'>"
p271
sg64
S'<built-in function dump>'
p272
sS'PyErrorLog'
p273
S"<type 'lxml.etree.PyErrorLog'>"
p274
sS'_ElementTree'
p275
S"<type 'lxml.etree._ElementTree'>"
p276
sS'_ListErrorLog'
p277
S"<type 'lxml.etree._ListErrorLog'>"
p278
sS'DTD'
p279
S"<type 'lxml.etree.DTD'>"
p280
sS'HTMLParser'
p281
S"<type 'lxml.etree.HTMLParser'>"
p282
sS'ElementNamespaceClassLookup'
p283
S"<type 'lxml.etree.ElementNamespaceClassLookup'>"
p284
sS'XPathFunctionError'
p285
S"<class 'lxml.etree.XPathFunctionError'>"
p286
sS'ElementDepthFirstIterator'
p287
S"<type 'lxml.etree.ElementDepthFirstIterator'>"
p288
sS'XMLParser'
p289
S"<type 'lxml.etree.XMLParser'>"
p290
sS'XInclude'
p291
S"<type 'lxml.etree.XInclude'>"
p292
sS'ETXPath'
p293
S"<type 'lxml.etree.ETXPath'>"
p294
sS'Schematron'
p295
S"<type 'lxml.etree.Schematron'>"
p296
sS'XPathDocumentEvaluator'
p297
S"<type 'lxml.etree.XPathDocumentEvaluator'>"
p298
sS'__all__'
p299
S"['AttributeBasedElementClassLookup', 'C14NError', 'CDATA', 'Comment', 'CommentBase', 'CustomElementClassLookup', 'DEBUG', 'DTD', 'DTDError', 'DTDParseError', 'DTDValidateError', 'DocumentInvalid', 'ETCompatXMLParser', 'ETXPath', 'Element', 'ElementBase', 'ElementClassLookup', 'ElementDefaultClassLookup', 'ElementNamespaceClassLookup', 'ElementTree', ...]"
p300
sS'_Attrib'
p301
S"<type 'lxml.etree._Attrib'>"
p302
sS'_Document'
p303
S"<type 'lxml.etree._Document'>"
p304
sS'strip_elements'
p305
S'<built-in function strip_elements>'
p306
sS'HTML'
p307
S'<built-in function HTML>'
p308
sS'memory_debugger'
p309
S'<lxml.etree._MemDebug object>'
p310
sS'RelaxNG'
p311
S"<type 'lxml.etree.RelaxNG'>"
p312
sS'_BaseErrorLog'
p313
S"<type 'lxml.etree._BaseErrorLog'>"
p314
sS'PI'
p315
S'<built-in function ProcessingInstruction>'
p316
sS'Extension'
p317
S'<built-in function Extension>'
p318
sS'__builtins__'
p319
S"<module '__builtin__' (built-in)>"
p320
sS'SchematronParseError'
p321
S"<class 'lxml.etree.SchematronParseError'>"
p322
sS'_Element'
p323
S"<type 'lxml.etree._Element'>"
p324
sS'XSLTExtension'
p325
S"<type 'lxml.etree.XSLTExtension'>"
p326
sS'XMLSchemaValidateError'
p327
S"<class 'lxml.etree.XMLSchemaValidateError'>"
p328
sS'XMLSchema'
p329
S"<type 'lxml.etree.XMLSchema'>"
p330
sS'DEBUG'
p331
S'1'
sS'__name__'
p332
S"'lxml.etree'"
p333
sS'_ElementUnicodeResult'
p334
S"<type 'lxml.etree._ElementUnicodeResult'>"
p335
sS'ErrorTypes'
p336
S"<class 'lxml.etree.ErrorTypes'>"
p337
sS'Comment'
p338
S'<built-in function Comment>'
p339
sS'XMLTreeBuilder'
p340
S"<type 'lxml.etree.ETCompatXMLParser'>"
p341
sS'RelaxNGErrorTypes'
p342
S"<class 'lxml.etree.RelaxNGErrorTypes'>"
p343
sS'iterwalk'
p344
S"<type 'lxml.etree.iterwalk'>"
p345
sS'ProcessingInstruction'
p346
S'<built-in function ProcessingInstruction>'
p347
sS'LXML_VERSION'
p348
S'(3, 3, 5, 0)'
p349
sS'LIBXML_COMPILED_VERSION'
p350
S'(2, 9, 1)'
p351
sS'RelaxNGValidateError'
p352
S"<class 'lxml.etree.RelaxNGValidateError'>"
p353
sS'strip_tags'
p354
S'<built-in function strip_tags>'
p355
sS'XIncludeError'
p356
S"<class 'lxml.etree.XIncludeError'>"
p357
sS'tounicode'
p358
S'<built-in function tounicode>'
p359
sS'ElementBase'
p360
S"<type 'lxml.etree.ElementBase'>"
p361
sS'ParserError'
p362
S"<class 'lxml.etree.ParserError'>"
p363
sS'__docformat__'
p364
S"u'restructuredtext en'"
p365
sS'SerialisationError'
p366
S"<class 'lxml.etree.SerialisationError'>"
p367
sS'DocInfo'
p368
S"<type 'lxml.etree.DocInfo'>"
p369
sS'XSLTSaveError'
p370
S"<class 'lxml.etree.XSLTSaveError'>"
p371
sS'LIBXSLT_COMPILED_VERSION'
p372
S'(1, 1, 28)'
p373
sg48
S"'The ``lxml.etree`` module implements the extended ElementTree API\\nfor XML.\\n'"
p374
sS'XPathElementEvaluator'
p375
S"<type 'lxml.etree.XPathElementEvaluator'>"
p376
sS'XML'
p377
S'<built-in function XML>'
p378
sS'XSLTError'
p379
S"<class 'lxml.etree.XSLTError'>"
p380
sS'XSLT'
p381
S"<type 'lxml.etree.XSLT'>"
p382
sS'_DomainErrorLog'
p383
S"<type 'lxml.etree._DomainErrorLog'>"
p384
sS'AncestorsIterator'
p385
S"<type 'lxml.etree.AncestorsIterator'>"
p386
sS'__test__'
p387
S"{u'XML (line 2987)': u'XML(text, parser=None, base_url=None)\\n\\n    P...ternal entities\\n    (DTD, XInclude, ...).\\n    '}"
p388
sS'Error'
p389
S"<class 'lxml.etree.Error'>"
p390
sS'ErrorLevels'
p391
S"<class 'lxml.etree.ErrorLevels'>"
p392
sS'_IDDict'
p393
S"<type 'lxml.etree._IDDict'>"
p394
sS'XPathResultError'
p395
S"<class 'lxml.etree.XPathResultError'>"
p396
sS'XSLTAccessControl'
p397
S"<type 'lxml.etree.XSLTAccessControl'>"
p398
sS'XMLSyntaxError'
p399
S"<class 'lxml.etree.XMLSyntaxError'>"
p400
sS'XMLSchemaParseError'
p401
S"<class 'lxml.etree.XMLSchemaParseError'>"
p402
sS'EntityBase'
p403
S"<type 'lxml.etree.EntityBase'>"
p404
sS'SubElement'
p405
S'<built-in function SubElement>'
p406
sS'CDATA'
p407
S"<type 'lxml.etree.CDATA'>"
p408
sS'_ElementTagMatcher'
p409
S"<type 'lxml.etree._ElementTagMatcher'>"
p410
sS'DTDError'
p411
S"<class 'lxml.etree.DTDError'>"
p412
sS'_ProcessingInstruction'
p413
S"<type 'lxml.etree._ProcessingInstruction'>"
p414
sS'get_default_parser'
p415
S'<built-in function get_default_parser>'
p416
sS'ErrorDomains'
p417
S"<class 'lxml.etree.ErrorDomains'>"
p418
sS'DTDValidateError'
p419
S"<class 'lxml.etree.DTDValidateError'>"
p420
sS'_SaxParserTarget'
p421
S"<type 'lxml.etree._SaxParserTarget'>"
p422
sS'parse'
p423
S'<built-in function parse>'
p424
sS'set_element_class_lookup'
p425
S'<built-in function set_element_class_lookup>'
p426
sS'CustomElementClassLookup'
p427
S"<type 'lxml.etree.CustomElementClassLookup'>"
p428
sS'_TargetParserResult'
p429
S"<class 'lxml.etree._TargetParserResult'>"
p430
sS'FallbackElementClassLookup'
p431
S"<type 'lxml.etree.FallbackElementClassLookup'>"
p432
sS'RelaxNGError'
p433
S"<class 'lxml.etree.RelaxNGError'>"
p434
sS'HTMLPullParser'
p435
S"<type 'lxml.etree.HTMLPullParser'>"
p436
sS'PythonElementClassLookup'
p437
S"<type 'lxml.etree.PythonElementClassLookup'>"
p438
sS'clear_error_log'
p439
S'<built-in function clear_error_log>'
p440
sS'_RotatingErrorLog'
p441
S"<type 'lxml.etree._RotatingErrorLog'>"
p442
sS'__package__'
p443
S'None'
p444
sS'AttributeBasedElementClassLookup'
p445
S"<type 'lxml.etree.AttributeBasedElementClassLookup'>"
p446
sS'SchematronError'
p447
S"<class 'lxml.etree.SchematronError'>"
p448
sS'Resolver'
p449
S"<type 'lxml.etree.Resolver'>"
p450
sS'fromstringlist'
p451
S'<built-in function fromstringlist>'
p452
sS'XSLTApplyError'
p453
S"<class 'lxml.etree.XSLTApplyError'>"
p454
sS'_Comment'
p455
S"<type 'lxml.etree._Comment'>"
p456
sS'_Validator'
p457
S"<type 'lxml.etree._Validator'>"
p458
sS'DTDParseError'
p459
S"<class 'lxml.etree.DTDParseError'>"
p460
sS'_ElementIterator'
p461
S"<type 'lxml.etree._ElementIterator'>"
p462
sS'_ErrorLog'
p463
S"<type 'lxml.etree._ErrorLog'>"
p464
sS'Element'
p465
S'<built-in function Element>'
p466
sS'PIBase'
p467
S"<type 'lxml.etree.PIBase'>"
p468
sS'_ElementStringResult'
p469
S"<class 'lxml.etree._ElementStringResult'>"
p470
sS'XPathSyntaxError'
p471
S"<class 'lxml.etree.XPathSyntaxError'>"
p472
sS'_XSLTResultTree'
p473
S"<type 'lxml.etree._XSLTResultTree'>"
p474
sS'XMLSchemaError'
p475
S"<class 'lxml.etree.XMLSchemaError'>"
p476
sS'use_global_python_log'
p477
S'<built-in function use_global_python_log>'
p478
sS'_XPathEvaluatorBase'
p479
S"<type 'lxml.etree._XPathEvaluatorBase'>"
p480
sS'tostringlist'
p481
S'<built-in function tostringlist>'
p482
sS'fromstring'
p483
S'<built-in function fromstring>'
p484
sS'QName'
p485
S"<type 'lxml.etree.QName'>"
p486
sS'SchematronValidateError'
p487
S"<class 'lxml.etree.SchematronValidateError'>"
p488
sS'ETCompatXMLParser'
p489
S"<type 'lxml.etree.ETCompatXMLParser'>"
p490
sS'RelaxNGParseError'
p491
S"<class 'lxml.etree.RelaxNGParseError'>"
p492
sS'ElementDefaultClassLookup'
p493
S"<type 'lxml.etree.ElementDefaultClassLookup'>"
p494
sssS'traceback'
p495
S'Traceback (most recent call last):\n  File "/home/concordance/web2py/gluon/restricted.py", line 220, in restricted\n    exec ccode in environment\n  File "/home/concordance/web2py/applications/test/controllers/control.py", line 213, in <module>\n  File "applications/test/modules/plugin_sqleditable/editable.py", line 394, in extract\n    r=func()\n  File "/home/concordance/web2py/applications/test/controllers/control.py", line 102, in create_xml\n    a = etree.SubElement(page, \'author\').text = trymysql(trymysql.author.id==n).select().first().family\n  File "lxml.etree.pyx", line 953, in lxml.etree._Element.text.__set__ (src/lxml/lxml.etree.c:44971)\n  File "apihelpers.pxi", line 677, in lxml.etree._setNodeText (src/lxml/lxml.etree.c:20273)\n  File "apihelpers.pxi", line 1395, in lxml.etree._utf8 (src/lxml/lxml.etree.c:26485)\nValueError: All strings must be XML compatible: Unicode or ASCII, no NULL bytes or control characters\n'
p496
s.