(dp1
S'output'
p2
S"<type 'exceptions.NameError'> global name 'allword' is not defined"
p3
sS'layer'
p4
S'/home/concordance/web2py/applications/test/controllers/concordance.py'
p5
sS'code'
p6
S'# coding: utf8\n# coding: utf8\nimport nltk\nimport pymorphy2\nfrom operator import itemgetter\nimport select\nimport gensim, logging\nfrom gensim import corpora, models, similarities\nfrom gensim.models import doc2vec\nlogging.basicConfig(format=\'%(asctime)s : %(levelname)s : %(message)s\', level=logging.INFO)\nimport pickle\n\npartos = [\'VERB\', \'NOUN\', \'ADJF\', \'ADJS\', \'INFN\', \'GRND\', \'PRTF\', \'PRTS\', \'ADVB\']\n\ndef index(): # concordance of one text\n    all_words = trymysql(trymysql.allword.title==request.args(0)).select()\n    lens=len(all_words)\n    vocab = []\n    for row in all_words:\n        w = row.word\n        q = trymysql((trymysql.allword.word==row.word)&(trymysql.allword.title==request.args(0))).select()\n        qq = round(((len(q)/float(lens))*100), 2)\n        c = [w, len(q), qq]\n        if c not in vocab:\n            vocab.append(c)\n    vocab.sort(key = itemgetter(0), reverse=False)\n    return dict(lens=lens, vocab=vocab)\n\ndef create_concordance():\n    f = open(\'/home/concordance/dictionary.txt\', \'r\')\n    words = f.readlines()\n    count=len(words)\n    return dict(words=words, count=count)\n\ndef create_number():\n    all_texts=trymysql(trymysql.allword.title<10).select()\n    concor=trymysql(trymysql.concordance.id>0).select()\n    words_concordance = [one.word for one in concor]\n    for all in all_texts:\n        if all.word in words_concordance:\n            number = trymysql(trymysql.concordance.word==all.word).select()[0]\n            number_id=number.id\n            all.update_record(concordance_number=number_id)\n        else:\n            all.update_record(concordance_number=0)\n    return dict(words=words_concordance[:10], all_texts=all_texts)\n\ndef create_vector():\n    all_texts=trymysql(trymysql.text1.id<10).select()\n    vector = []\n    for all in all_texts:\n        numbers = [all.concordance_number for all in trymysql(trymysql.allword.title==all.id).select()]\n        vector.append(numbers)\n    return dict(vector=vector)\n\nstop = [\'\xd1\x81\xd0\xb0\xd0\xbc\', \'\xd1\x82\xd0\xb0\xd0\xba\xd0\xbe\xd0\xb9\', \'\xd1\x81\xd0\xb2\xd0\xbe\xd0\xb9\', \'\xd1\x8d\xd1\x82\xd0\xbe\xd1\x82\', \'\xd0\xb4\xd1\x80\xd1\x83\xd0\xb3\xd0\xbe\xd0\xb9\', \'\xd1\x85\xd0\xbe\xd1\x80\xd0\xbe\xd1\x88\xd0\xb8\xd0\xb9\', \'\xd1\x86\xd0\xb5\xd0\xbb\xd1\x8b\xd0\xb9\', \'\xd0\xb2\xd0\xb5\xd1\x81\xd1\x8c\', \'\xd1\x82\xd0\xbe\xd1\x82\', \'\xd0\xbf\xd0\xbe\xd1\x81\xd0\xbb\xd0\xb5\xd0\xb4\xd0\xbd\xd0\xb8\xd0\xb9\', \'\xd0\xbc\xd0\xbe\xd0\xb9\', \'\xd1\x82\xd0\xb2\xd0\xbe\xd0\xb9\', \'\xd0\xbd\xd0\xb0\xd1\x88\', \'\xd1\x80\xd0\xb0\xd0\xb7\', \'\xd0\xba\xd0\xb0\xd0\xba\xd0\xbe\xd0\xb9\', \'\xd0\xbe\xd0\xb4\xd0\xb8\xd0\xbd\', \'\xd0\xbd\xd0\xbe\xd0\xb2\xd1\x8b\xd0\xb9\', \'\xd0\xbf\xd0\xbe\xd0\xbb\xd0\xbd\xd1\x8b\xd0\xb9\', \'\xd1\x82\xd1\x83\xd0\xba\', \'\xd0\xba\xd0\xb0\xd0\xb6\xd0\xb4\xd1\x8b\xd0\xb9\', \'\xd0\xb1\xd0\xbe\xd0\xbb\xd1\x8c\xd1\x88\xd0\xbe\xd0\xb9\', \'\xd0\xb2\xd1\x81\xd1\x8f\xd0\xba\xd0\xb8\xd0\xb9\', \'\xd1\x81\xd0\xb0\xd0\xbc\xd1\x8b\xd0\xb9\']\n\ndef word2vec():\n    sentences1 = []\n    for all in trymysql(trymysql.text1.id>0).select():\n        part=[\'NOUN\', \'ADJF\']\n        one = [alles.word for alles in trymysql((trymysql.allword.title==all.id)&(trymysql.allword.partos.belongs(part))).select() if alles.word not in stop]\n        sentences1.append(one)\n    model1 = gensim.models.Word2Vec(sentences1, min_count=20, window=30, size=300)\n    model1.save("/home/concordance/web2py/applications/test/uploads/models/model_from_10_win2_size300")\n    return dict(model1=model1)\n\ndef model():\n    #new_model = gensim.models.Word2Vec.load("/home/concordance/web2py/applications/test/uploads/models/a_model_from_50_win20_size300")\n    new_model = gensim.models.Word2Vec.load("/home/concordance/web2py/applications/test/uploads/models/model_from_10_win2_size300")\n    #new_model = gensim.models.Word2Vec.load(\'/home/concordance/deposit/model3\')\n    words = [\'\xd0\xb3\xd0\xbe\xd1\x80\xd0\xbe\xd0\xb4\', \'\xd0\xba\xd0\xbe\xd0\xbd\xd1\x8c\', \'\xd1\x81\xd0\xbe\xd0\xbd\', \'\xd0\xbe\xd0\xb3\xd0\xbe\xd0\xbd\xd1\x8c\', \'\xd0\xbc\xd0\xb8\xd1\x80\', \'\xd0\xbc\xd0\xbe\xd1\x80\xd0\xb5\', \'\xd0\xb4\xd0\xb5\xd0\xbd\xd1\x8c\', \'\xd0\xb4\xd0\xbe\xd0\xbc\', \'\xd0\xbd\xd0\xbe\xd1\x87\xd1\x8c\']\n    words = [all.decode(\'utf-8\') for all in words]\n    return dict(model1=new_model, words=words)\n\ndef doc2vec():\n    documents = []\n    authors = [1, 2, 4, 5, 7, 8, 9, 10, 11, 12, 13, 14, 15, 16, 17, 18, 19, 20, 21]\n    titles = [all.id for all in trymysql(trymysql.text1.author.belongs(authors)).select()]\n    part=[\'ADJF\', \'NOUN\', \'VERB\']\n    for all in titles:\n        one = [alles.word for alles in trymysql((trymysql.allword.title==all)&(trymysql.allword.partos.belongs(part))).select()]\n        docs = gensim.models.doc2vec.TaggedDocument(words=one, tags=[all])\n        documents.append(docs)\n    model = gensim.models.doc2vec.Doc2Vec(documents, size=100, window=8, min_count=5, workers=4)\n    model.save("/home/concordance/web2py/applications/test/uploads/models/blok")\n#    for x in authors:\n#        newdocuments = []\n#        titles = [all.id for all in trymysql(trymysql.text1.author==x).select()]\n#        for all in titles:\n#            one = [alles.word for alles in trymysql((trymysql.allword.title==all)&(trymysql.allword.partos.belongs(part))).select()]\n#            docs = gensim.models.doc2vec.TaggedDocument(words=one, tags=[all])\n#            newdocuments.append(docs)\n#        model.train(newdocuments)\n#    model.save("/home/concordance/web2py/applications/test/uploads/models/texts")\n    c = model.docvecs.most_similar(9999)\n    docs = []\n    for all in c:\n        text = trymysql(trymysql.text1.id==all[0]).select()[0]\n        docs.append(text)\n    osn = trymysql(trymysql.text1.id==9999).select()[0]\n    return dict(documents=c, docs= docs, osn=osn)\n\ndef doc2vec_find():\n#    model = gensim.models.doc2vec.Doc2Vec.load("/home/concordance/web2py/applications/test/uploads/models/blok")\n    authors = [1, 2, 4, 5, 7, 8, 9, 10, 11, 12, 13, 14, 15, 16, 17, 18, 19, 20, 21]\n    part=[\'ADJF\', \'NOUN\', \'VERB\']\n    newdocuments = []\n    for x in authors:\n        titles = [all.id for all in trymysql(trymysql.text1.author==x).select()]\n        for all in titles:\n            one = [alles.word for alles in trymysql((trymysql.allword.title==all)&(trymysql.allword.partos.belongs(part))).select()]\n            docs = gensim.models.doc2vec.TaggedDocument(words=one, tags=[all])\n            newdocuments.append(docs)\n    model = gensim.models.doc2vec.Doc2Vec(newdocuments, size=100, window=8, min_count=5, workers=4)\n    model.save("/home/concordance/web2py/applications/test/uploads/models/texts")\n    #c = model.docvecs.most_similar(\'8098L\')\n    return dict(model=model)\n\ndef doc2vec_load():\n    model = Doc2Vec.load("/home/concordance/web2py/applications/test/uploads/models/texts")\n    c = model.docvecs.most_similar(\'8098L\')\n    return dict(c=c)\n\ndef couple_form():\n    form = SQLFORM.factory(Field(\'first\'), Field(\'second\')).process()\n    if form.accepted:\n        redirect(URL(\'couple\', vars = form.vars))\n    return dict(form=form)\n\ndef couple():\n    title = []\n    first = [all.title for all in trymysql(trymysql.allword.word==request.vars.first).select()]\n    for all in first:\n        if len(trymysql((trymysql.allword.word == request.vars.second)&(trymysql.allword.title==all)).select()) > 0:\n            title.append(all)\n    title = sorted(set(title))\n    texts = trymysql(trymysql.text1.id.belongs(title)).select()\n    return dict(title=title, one = request.vars.first, two = request.vars.second, texts=texts)\n\ndef test_gensim():\n    alles = []\n    for all in trymysql(trymysql.text1.id>0).select():\n        one=[new.word for new in trymysql((trymysql.allword.title==all.id)&(trymysql.allword.partos=="NOUN")).select()]\n        alles.append(one)\n    dictionary = gensim.corpora.Dictionary(alles)\n    corpus = [dictionary.doc2bow(alle) for alle in alles]\n    tfidf = models.TfidfModel(corpus, id2word=dictionary)\n    corpus_tfidf = tfidf[corpus]\n    #lsi = models.lsimodel.LsiModel(corpus_tfidf, id2word=dictionary, num_topics=5)\n    lda = gensim.models.ldamodel.LdaModel(corpus_tfidf, id2word=dictionary, num_topics=15, update_every=1, chunksize=10000, passes=1)\n    #topics=lsi.print_topics(15)\n    topics=lda.print_topics(20)\n    return dict(topics=topics)\n\ndef birds():\n    new_model = gensim.models.Word2Vec.load("/home/concordance/web2py/applications/test/uploads/models/model_from_10_win2_size300")\n    return dict(model1=new_model)\n\ndef zveri():\n    new_model = gensim.models.Word2Vec.load("/home/concordance/web2py/applications/test/uploads/models/model_from_10_win2_size300")\n    words = [\'\xd0\xb2\xd0\xbe\xd0\xbb\xd0\xba\', \'\xd0\xb7\xd0\xb2\xd0\xb5\xd1\x80\xd1\x8c\', \'\xd0\xba\xd0\xbe\xd0\xbd\xd1\x8c\', \'\xd0\xbb\xd0\xbe\xd1\x88\xd0\xb0\xd0\xb4\xd1\x8c\', \'\xd0\xbc\xd1\x8b\xd1\x88\xd1\x8c\', \'\xd0\xbf\xd1\x91\xd1\x81\', \'\xd1\x81\xd0\xbe\xd0\xb1\xd0\xb0\xd0\xba\xd0\xb0\']\n    words = [all.decode(\'utf-8\') for all in words]\n    return dict(model1=new_model, words=words)\n\ndef conc(): #\xd1\x81\xd0\xb0\xd0\xbc\xd1\x8b\xd0\xb5 \xd1\x83\xd0\xbf\xd0\xbe\xd1\x82\xd1\x80\xd0\xb5\xd0\xb1\xd0\xbb\xd1\x8f\xd0\xb5\xd0\xbc\xd1\x8b\xd0\xb5 \xd1\x81\xd0\xbb\xd0\xbe\xd0\xb2\xd0\xb0 (\xd0\xbe\xd1\x82 500)\n    count = trymysql.allword.id.count()\n    words = []\n    for row in trymysql(trymysql.allword.id>0).select(trymysql.allword.word, count, groupby=trymysql.allword.word):\n        if row[count] >500:\n            words.append([row.allword.word, row[count]])\n    words.sort(key = itemgetter(1), reverse=True)\n\n    return dict(words=words)\n\ndef save_words():\n    sentences1 = []\n    part=[\'NOUN\', \'ADJF\']\n    for all in trymysql(trymysql.text1.id>0).select():\n        #sentences1.append([alles.word for alles in trymysql((trymysql.allword.title==all.id)&(trymysql.allword.partos.belongs(part))).select() if alles.word not in stop])\n        sentences1.append([trymysql((trymysql.allword.title==all.id)&(trymysql.allword.partos.belongs(part))).select(allword.word)])\n    #model1 = gensim.models.Word2Vec(sentences1, min_count=20, window=15, size=300)\n    #model1.save("/home/concordance/web2py/applications/test/uploads/models/all_model_from_20_win15_size300")\n    with open(\'/home/concordance/web2py/applications/test/uploads/models/nouns_adjf.txt\', \'wb\') as f:\n        pickle.dump(sentences1, f)\n    return dict(model1=len(sentences1))\n\nresponse._vars=response._caller(save_words)\n'
p7
sS'snapshot'
p8
(dp9
S'exception'
p10
(dp11
S'__hash__'
p12
S"<method-wrapper '__hash__' of exceptions.NameError object>"
p13
sS'__setattr__'
p14
S"<method-wrapper '__setattr__' of exceptions.NameError object>"
p15
sS'__reduce_ex__'
p16
S'<built-in method __reduce_ex__ of exceptions.NameError object>'
p17
sS'__getslice__'
p18
S"<method-wrapper '__getslice__' of exceptions.NameError object>"
p19
sS'__getitem__'
p20
S"<method-wrapper '__getitem__' of exceptions.NameError object>"
p21
sS'__setstate__'
p22
S'<built-in method __setstate__ of exceptions.NameError object>'
p23
sS'args'
p24
S'("global name \'allword\' is not defined",)'
p25
sS'__reduce__'
p26
S'<built-in method __reduce__ of exceptions.NameError object>'
p27
sS'__str__'
p28
S"<method-wrapper '__str__' of exceptions.NameError object>"
p29
sS'__format__'
p30
S'<built-in method __format__ of exceptions.NameError object>'
p31
sS'__getattribute__'
p32
S"<method-wrapper '__getattribute__' of exceptions.NameError object>"
p33
sS'__class__'
p34
S"<type 'exceptions.NameError'>"
p35
sS'__unicode__'
p36
S'<built-in method __unicode__ of exceptions.NameError object>'
p37
sS'__delattr__'
p38
S"<method-wrapper '__delattr__' of exceptions.NameError object>"
p39
sS'__subclasshook__'
p40
S'<built-in method __subclasshook__ of type object>'
p41
sS'__repr__'
p42
S"<method-wrapper '__repr__' of exceptions.NameError object>"
p43
sS'__dict__'
p44
S'{}'
p45
sS'__sizeof__'
p46
S'<built-in method __sizeof__ of exceptions.NameError object>'
p47
sS'__doc__'
p48
S"'Name not found globally.'"
p49
sS'__init__'
p50
S"<method-wrapper '__init__' of exceptions.NameError object>"
p51
sS'__new__'
p52
S'<built-in method __new__ of type object>'
p53
ssS'evalue'
p54
S"global name 'allword' is not defined"
p55
sS'request'
p56
cgluon.html
XML_unpickle
p57
(S'sIc\x00\x00<div><table><tr><td style="font-weight:bold;vertical-align:top;">ajax</td><td style="vertical-align:top;">:</td><td><div>False</div></td></tr><tr><td style="font-weight:bold;vertical-align:top;">application</td><td style="vertical-align:top;">:</td><td><div>test</div></td></tr><tr><td style="font-weight:bold;vertical-align:top;">args</td><td style="vertical-align:top;">:</td><td><div><table></table></div></td></tr><tr><td style="font-weight:bold;vertical-align:top;">cid</td><td style="vertical-align:top;">:</td><td><div>None</div></td></tr><tr><td style="font-weight:bold;vertical-align:top;">client</td><td style="vertical-align:top;">:</td><td><div>128.199.254.26</div></td></tr><tr><td style="font-weight:bold;vertical-align:top;">controller</td><td style="vertical-align:top;">:</td><td><div>concordance</div></td></tr><tr><td style="font-weight:bold;vertical-align:top;">cookies</td><td style="vertical-align:top;">:</td><td><div><table><tr><td style="font-weight:bold;vertical-align:top;">session_id_admin</td><td style="vertical-align:top;">:</td><td><div>188.162.65.62-f2315a1e-fca7-41a2-a02b-74ed5fc98c41<table><tr><td style="font-weight:bold;vertical-align:top;">comment</td><td style="vertical-align:top;">:</td><td><div></div></td></tr><tr><td style="font-weight:bold;vertical-align:top;">domain</td><td style="vertical-align:top;">:</td><td><div></div></td></tr><tr><td style="font-weight:bold;vertical-align:top;">expires</td><td style="vertical-align:top;">:</td><td><div></div></td></tr><tr><td style="font-weight:bold;vertical-align:top;">httponly</td><td style="vertical-align:top;">:</td><td><div></div></td></tr><tr><td style="font-weight:bold;vertical-align:top;">max-age</td><td style="vertical-align:top;">:</td><td><div></div></td></tr><tr><td style="font-weight:bold;vertical-align:top;">path</td><td style="vertical-align:top;">:</td><td><div></div></td></tr><tr><td style="font-weight:bold;vertical-align:top;">secure</td><td style="vertical-align:top;">:</td><td><div></div></td></tr><tr><td style="font-weight:bold;vertical-align:top;">version</td><td style="vertical-align:top;">:</td><td><div></div></td></tr></table></div></td></tr><tr><td style="font-weight:bold;vertical-align:top;">session_id_english</td><td style="vertical-align:top;">:</td><td><div>188.162.64.139-de0cbb9e-f276-48d2-8540-f830647f7782<table><tr><td style="font-weight:bold;vertical-align:top;">comment</td><td style="vertical-align:top;">:</td><td><div></div></td></tr><tr><td style="font-weight:bold;vertical-align:top;">domain</td><td style="vertical-align:top;">:</td><td><div></div></td></tr><tr><td style="font-weight:bold;vertical-align:top;">expires</td><td style="vertical-align:top;">:</td><td><div></div></td></tr><tr><td style="font-weight:bold;vertical-align:top;">httponly</td><td style="vertical-align:top;">:</td><td><div></div></td></tr><tr><td style="font-weight:bold;vertical-align:top;">max-age</td><td style="vertical-align:top;">:</td><td><div></div></td></tr><tr><td style="font-weight:bold;vertical-align:top;">path</td><td style="vertical-align:top;">:</td><td><div></div></td></tr><tr><td style="font-weight:bold;vertical-align:top;">secure</td><td style="vertical-align:top;">:</td><td><div></div></td></tr><tr><td style="font-weight:bold;vertical-align:top;">version</td><td style="vertical-align:top;">:</td><td><div></div></td></tr></table></div></td></tr><tr><td style="font-weight:bold;vertical-align:top;">session_id_test</td><td style="vertical-align:top;">:</td><td><div>178.62.237.202-2cb16a4e-c5ff-4976-8a39-eb01ecbb6525<table><tr><td style="font-weight:bold;vertical-align:top;">comment</td><td style="vertical-align:top;">:</td><td><div></div></td></tr><tr><td style="font-weight:bold;vertical-align:top;">domain</td><td style="vertical-align:top;">:</td><td><div></div></td></tr><tr><td style="font-weight:bold;vertical-align:top;">expires</td><td style="vertical-align:top;">:</td><td><div></div></td></tr><tr><td style="font-weight:bold;vertical-align:top;">httponly</td><td style="vertical-align:top;">:</td><td><div></div></td></tr><tr><td style="font-weight:bold;vertical-align:top;">max-age</td><td style="vertical-align:top;">:</td><td><div></div></td></tr><tr><td style="font-weight:bold;vertical-align:top;">path</td><td style="vertical-align:top;">:</td><td><div></div></td></tr><tr><td style="font-weight:bold;vertical-align:top;">secure</td><td style="vertical-align:top;">:</td><td><div></div></td></tr><tr><td style="font-weight:bold;vertical-align:top;">version</td><td style="vertical-align:top;">:</td><td><div></div></td></tr></table></div></td></tr><tr><td style="font-weight:bold;vertical-align:top;">session_id_welcome</td><td style="vertical-align:top;">:</td><td><div>188.162.64.139-fa706910-42d8-4dc5-bb5a-20e77db1a69c<table><tr><td style="font-weight:bold;vertical-align:top;">comment</td><td style="vertical-align:top;">:</td><td><div></div></td></tr><tr><td style="font-weight:bold;vertical-align:top;">domain</td><td style="vertical-align:top;">:</td><td><div></div></td></tr><tr><td style="font-weight:bold;vertical-align:top;">expires</td><td style="vertical-align:top;">:</td><td><div></div></td></tr><tr><td style="font-weight:bold;vertical-align:top;">httponly</td><td style="vertical-align:top;">:</td><td><div></div></td></tr><tr><td style="font-weight:bold;vertical-align:top;">max-age</td><td style="vertical-align:top;">:</td><td><div></div></td></tr><tr><td style="font-weight:bold;vertical-align:top;">path</td><td style="vertical-align:top;">:</td><td><div></div></td></tr><tr><td style="font-weight:bold;vertical-align:top;">secure</td><td style="vertical-align:top;">:</td><td><div></div></td></tr><tr><td style="font-weight:bold;vertical-align:top;">version</td><td style="vertical-align:top;">:</td><td><div></div></td></tr></table></div></td></tr><tr><td style="font-weight:bold;vertical-align:top;">sessionid</td><td style="vertical-align:top;">:</td><td><div>xycqss9uouj7t5npfuyz3au3h7367z6e<table><tr><td style="font-weight:bold;vertical-align:top;">comment</td><td style="vertical-align:top;">:</td><td><div></div></td></tr><tr><td style="font-weight:bold;vertical-align:top;">domain</td><td style="vertical-align:top;">:</td><td><div></div></td></tr><tr><td style="font-weight:bold;vertical-align:top;">expires</td><td style="vertical-align:top;">:</td><td><div></div></td></tr><tr><td style="font-weight:bold;vertical-align:top;">httponly</td><td style="vertical-align:top;">:</td><td><div></div></td></tr><tr><td style="font-weight:bold;vertical-align:top;">max-age</td><td style="vertical-align:top;">:</td><td><div></div></td></tr><tr><td style="font-weight:bold;vertical-align:top;">path</td><td style="vertical-align:top;">:</td><td><div></div></td></tr><tr><td style="font-weight:bold;vertical-align:top;">secure</td><td style="vertical-align:top;">:</td><td><div></div></td></tr><tr><td style="font-weight:bold;vertical-align:top;">version</td><td style="vertical-align:top;">:</td><td><div></div></td></tr></table></div></td></tr></table></div></td></tr><tr><td style="font-weight:bold;vertical-align:top;">env</td><td style="vertical-align:top;">:</td><td><div><table><tr><td style="font-weight:bold;vertical-align:top;">CONTENT_LENGTH</td><td style="vertical-align:top;">:</td><td><div></div></td></tr><tr><td style="font-weight:bold;vertical-align:top;">CONTENT_TYPE</td><td style="vertical-align:top;">:</td><td><div></div></td></tr><tr><td style="font-weight:bold;vertical-align:top;">DOCUMENT_ROOT</td><td style="vertical-align:top;">:</td><td><div>/usr/local/openresty/nginx/html</div></td></tr><tr><td style="font-weight:bold;vertical-align:top;">HTTPS</td><td style="vertical-align:top;">:</td><td><div>on</div></td></tr><tr><td style="font-weight:bold;vertical-align:top;">HTTP_ACCEPT</td><td style="vertical-align:top;">:</td><td><div>text/html,application/xhtml+xml,application/xml;q=0.9,image/webp,*/*;q=0.8</div></td></tr><tr><td style="font-weight:bold;vertical-align:top;">HTTP_ACCEPT_ENCODING</td><td style="vertical-align:top;">:</td><td><div>gzip, deflate, sdch, br</div></td></tr><tr><td style="font-weight:bold;vertical-align:top;">HTTP_ACCEPT_LANGUAGE</td><td style="vertical-align:top;">:</td><td><div>ru,en;q=0.8,en-US;q=0.6</div></td></tr><tr><td style="font-weight:bold;vertical-align:top;">HTTP_CACHE_CONTROL</td><td style="vertical-align:top;">:</td><td><div>max-age=0</div></td></tr><tr><td style="font-weight:bold;vertical-align:top;">HTTP_CONNECTION</td><td style="vertical-align:top;">:</td><td><div>close</div></td></tr><tr><td style="font-weight:bold;vertical-align:top;">HTTP_COOKIE</td><td style="vertical-align:top;">:</td><td><div>session_id_english=188.162.64.139-de0cbb9e-f276-48d2-8540-f830647f7782; session_id_welcome=188.162.64.139-fa706910-42d8-4dc5-bb5a-20e77db1a69c; sessionid=xycqss9uouj7t5npfuyz3au3h7367z6e; _ga=GA1.2.1930206007.1461909814; session_id_test=178.62.237.202-2cb16a4e-c5ff-4976-8a39-eb01ecbb6525; __utma=134993891.1930206007.1461909814.1467544613.1467547797.36; __utmb=134993891.8.10.1467547797; __utmc=134993891; __utmz=134993891.1461913226.1.1.utmcsr=(direct)|utmccn=(direct)|utmcmd=(none); session_id_admin=188.162.65.62-f2315a1e-fca7-41a2-a02b-74ed5fc98c41</div></td></tr><tr><td style="font-weight:bold;vertical-align:top;">HTTP_HOST</td><td style="vertical-align:top;">:</td><td><div>concordance.pythonanywhere.com</div></td></tr><tr><td style="font-weight:bold;vertical-align:top;">HTTP_UPGRADE_INSECURE_REQUESTS</td><td style="vertical-align:top;">:</td><td><div>1</div></td></tr><tr><td style="font-weight:bold;vertical-align:top;">HTTP_USER_AGENT</td><td style="vertical-align:top;">:</td><td><div>Mozilla/5.0 (Windows NT 10.0; WOW64) AppleWebKit/537.36 (KHTML, like Gecko) Chrome/51.0.2704.103 Safari/537.36</div></td></tr><tr><td style="font-weight:bold;vertical-align:top;">HTTP_X_FORWARDED_FOR</td><td style="vertical-align:top;">:</td><td><div>128.199.254.26</div></td></tr><tr><td style="font-weight:bold;vertical-align:top;">HTTP_X_REAL_IP</td><td style="vertical-align:top;">:</td><td><div>128.199.254.26</div></td></tr><tr><td style="font-weight:bold;vertical-align:top;">PATH_INFO</td><td style="vertical-align:top;">:</td><td><div>/test/concordance/save_words</div></td></tr><tr><td style="font-weight:bold;vertical-align:top;">QUERY_STRING</td><td style="vertical-align:top;">:</td><td><div></div></td></tr><tr><td style="font-weight:bold;vertical-align:top;">REMOTE_ADDR</td><td style="vertical-align:top;">:</td><td><div>10.149.68.189</div></td></tr><tr><td style="font-weight:bold;vertical-align:top;">REMOTE_PORT</td><td style="vertical-align:top;">:</td><td><div>37087</div></td></tr><tr><td style="font-weight:bold;vertical-align:top;">REQUEST_METHOD</td><td style="vertical-align:top;">:</td><td><div>GET</div></td></tr><tr><td style="font-weight:bold;vertical-align:top;">REQUEST_URI</td><td style="vertical-align:top;">:</td><td><div>/test/concordance/save_words</div></td></tr><tr><td style="font-weight:bold;vertical-align:top;">SCRIPT_NAME</td><td style="vertical-align:top;">:</td><td><div></div></td></tr><tr><td style="font-weight:bold;vertical-align:top;">SERVER_NAME</td><td style="vertical-align:top;">:</td><td><div>concordance.pythonanywhere.com</div></td></tr><tr><td style="font-weight:bold;vertical-align:top;">SERVER_PORT</td><td style="vertical-align:top;">:</td><td><div>443</div></td></tr><tr><td style="font-weight:bold;vertical-align:top;">SERVER_PROTOCOL</td><td style="vertical-align:top;">:</td><td><div>HTTP/1.1</div></td></tr><tr><td style="font-weight:bold;vertical-align:top;">app_folders</td><td style="vertical-align:top;">:</td><td><div>set([&#x27;/home/concordance/web2py/applications/admin/&#x27;, &#x27;/home/concordance/web2py/applications/test/&#x27;])</div></td></tr><tr><td style="font-weight:bold;vertical-align:top;">applications_parent</td><td style="vertical-align:top;">:</td><td><div>/home/concordance/web2py</div></td></tr><tr><td style="font-weight:bold;vertical-align:top;">content_length</td><td style="vertical-align:top;">:</td><td><div></div></td></tr><tr><td style="font-weight:bold;vertical-align:top;">content_type</td><td style="vertical-align:top;">:</td><td><div></div></td></tr><tr><td style="font-weight:bold;vertical-align:top;">db_sessions</td><td style="vertical-align:top;">:</td><td><div>set([])</div></td></tr><tr><td style="font-weight:bold;vertical-align:top;">debugging</td><td style="vertical-align:top;">:</td><td><div>False</div></td></tr><tr><td style="font-weight:bold;vertical-align:top;">document_root</td><td style="vertical-align:top;">:</td><td><div>/usr/local/openresty/nginx/html</div></td></tr><tr><td style="font-weight:bold;vertical-align:top;">gluon_parent</td><td style="vertical-align:top;">:</td><td><div>/home/concordance/web2py</div></td></tr><tr><td style="font-weight:bold;vertical-align:top;">http_accept</td><td style="vertical-align:top;">:</td><td><div>text/html,application/xhtml+xml,application/xml;q=0.9,image/webp,*/*;q=0.8</div></td></tr><tr><td style="font-weight:bold;vertical-align:top;">http_accept_encoding</td><td style="vertical-align:top;">:</td><td><div>gzip, deflate, sdch, br</div></td></tr><tr><td style="font-weight:bold;vertical-align:top;">http_accept_language</td><td style="vertical-align:top;">:</td><td><div>ru,en;q=0.8,en-US;q=0.6</div></td></tr><tr><td style="font-weight:bold;vertical-align:top;">http_cache_control</td><td style="vertical-align:top;">:</td><td><div>max-age=0</div></td></tr><tr><td style="font-weight:bold;vertical-align:top;">http_connection</td><td style="vertical-align:top;">:</td><td><div>close</div></td></tr><tr><td style="font-weight:bold;vertical-align:top;">http_cookie</td><td style="vertical-align:top;">:</td><td><div>session_id_english=188.162.64.139-de0cbb9e-f276-48d2-8540-f830647f7782; session_id_welcome=188.162.64.139-fa706910-42d8-4dc5-bb5a-20e77db1a69c; sessionid=xycqss9uouj7t5npfuyz3au3h7367z6e; _ga=GA1.2.1930206007.1461909814; session_id_test=178.62.237.202-2cb16a4e-c5ff-4976-8a39-eb01ecbb6525; __utma=134993891.1930206007.1461909814.1467544613.1467547797.36; __utmb=134993891.8.10.1467547797; __utmc=134993891; __utmz=134993891.1461913226.1.1.utmcsr=(direct)|utmccn=(direct)|utmcmd=(none); session_id_admin=188.162.65.62-f2315a1e-fca7-41a2-a02b-74ed5fc98c41</div></td></tr><tr><td style="font-weight:bold;vertical-align:top;">http_host</td><td style="vertical-align:top;">:</td><td><div>concordance.pythonanywhere.com</div></td></tr><tr><td style="font-weight:bold;vertical-align:top;">http_upgrade_insecure_requests</td><td style="vertical-align:top;">:</td><td><div>1</div></td></tr><tr><td style="font-weight:bold;vertical-align:top;">http_user_agent</td><td style="vertical-align:top;">:</td><td><div>Mozilla/5.0 (Windows NT 10.0; WOW64) AppleWebKit/537.36 (KHTML, like Gecko) Chrome/51.0.2704.103 Safari/537.36</div></td></tr><tr><td style="font-weight:bold;vertical-align:top;">http_x_forwarded_for</td><td style="vertical-align:top;">:</td><td><div>128.199.254.26</div></td></tr><tr><td style="font-weight:bold;vertical-align:top;">http_x_real_ip</td><td style="vertical-align:top;">:</td><td><div>128.199.254.26</div></td></tr><tr><td style="font-weight:bold;vertical-align:top;">https</td><td style="vertical-align:top;">:</td><td><div>on</div></td></tr><tr><td style="font-weight:bold;vertical-align:top;">is_jython</td><td style="vertical-align:top;">:</td><td><div>False</div></td></tr><tr><td style="font-weight:bold;vertical-align:top;">is_pypy</td><td style="vertical-align:top;">:</td><td><div>False</div></td></tr><tr><td style="font-weight:bold;vertical-align:top;">is_source</td><td style="vertical-align:top;">:</td><td><div>True</div></td></tr><tr><td style="font-weight:bold;vertical-align:top;">local_hosts</td><td style="vertical-align:top;">:</td><td><div><table><tr><td><div>::ffff:127.0.0.1</div></td></tr><tr><td><div>::1</div></td></tr><tr><td><div>harry-liveweb8</div></td></tr><tr><td><div>50.19.109.98</div></td></tr><tr><td><div>127.0.0.1</div></td></tr><tr><td><div>concordance.pythonanywhere.com</div></td></tr><tr><td><div>localhost</div></td></tr></table></div></td></tr><tr><td style="font-weight:bold;vertical-align:top;">path_info</td><td style="vertical-align:top;">:</td><td><div>/test/concordance/save_words</div></td></tr><tr><td style="font-weight:bold;vertical-align:top;">query_string</td><td style="vertical-align:top;">:</td><td><div></div></td></tr><tr><td style="font-weight:bold;vertical-align:top;">remote_addr</td><td style="vertical-align:top;">:</td><td><div>10.149.68.189</div></td></tr><tr><td style="font-weight:bold;vertical-align:top;">remote_port</td><td style="vertical-align:top;">:</td><td><div>37087</div></td></tr><tr><td style="font-weight:bold;vertical-align:top;">request_method</td><td style="vertical-align:top;">:</td><td><div>GET</div></td></tr><tr><td style="font-weight:bold;vertical-align:top;">request_uri</td><td style="vertical-align:top;">:</td><td><div>/test/concordance/save_words</div></td></tr><tr><td style="font-weight:bold;vertical-align:top;">script_name</td><td style="vertical-align:top;">:</td><td><div></div></td></tr><tr><td style="font-weight:bold;vertical-align:top;">server_name</td><td style="vertical-align:top;">:</td><td><div>concordance.pythonanywhere.com</div></td></tr><tr><td style="font-weight:bold;vertical-align:top;">server_port</td><td style="vertical-align:top;">:</td><td><div>443</div></td></tr><tr><td style="font-weight:bold;vertical-align:top;">server_protocol</td><td style="vertical-align:top;">:</td><td><div>HTTP/1.1</div></td></tr><tr><td style="font-weight:bold;vertical-align:top;">uwsgi.node</td><td style="vertical-align:top;">:</td><td><div>harry-liveweb8</div></td></tr><tr><td style="font-weight:bold;vertical-align:top;">uwsgi.version</td><td style="vertical-align:top;">:</td><td><div>2.0.5.1</div></td></tr><tr><td style="font-weight:bold;vertical-align:top;">uwsgi_node</td><td style="vertical-align:top;">:</td><td><div>harry-liveweb8</div></td></tr><tr><td style="font-weight:bold;vertical-align:top;">uwsgi_version</td><td style="vertical-align:top;">:</td><td><div>2.0.5.1</div></td></tr><tr><td style="font-weight:bold;vertical-align:top;">web2py_original_uri</td><td style="vertical-align:top;">:</td><td><div>/test/concordance/save_words</div></td></tr><tr><td style="font-weight:bold;vertical-align:top;">web2py_path</td><td style="vertical-align:top;">:</td><td><div>/home/concordance/web2py</div></td></tr><tr><td style="font-weight:bold;vertical-align:top;">web2py_version</td><td style="vertical-align:top;">:</td><td><div>2.9.5-stable+timestamp.2014.03.16.02.35.39</div></td></tr><tr><td style="font-weight:bold;vertical-align:top;">wsgi.errors</td><td style="vertical-align:top;">:</td><td><div>&lt;uwsgi_file__bin_user_wsgi_wrapper.ErrorLogFile object at 0x7f8d658ff650&gt;</div></td></tr><tr><td style="font-weight:bold;vertical-align:top;">wsgi.file_wrapper</td><td style="vertical-align:top;">:</td><td><div>&lt;built-in function uwsgi_sendfile&gt;</div></td></tr><tr><td style="font-weight:bold;vertical-align:top;">wsgi.input</td><td style="vertical-align:top;">:</td><td><div>&lt;uwsgi._Input object at 0x7f8d778b4cd8&gt;</div></td></tr><tr><td style="font-weight:bold;vertical-align:top;">wsgi.multiprocess</td><td style="vertical-align:top;">:</td><td><div>True</div></td></tr><tr><td style="font-weight:bold;vertical-align:top;">wsgi.multithread</td><td style="vertical-align:top;">:</td><td><div>False</div></td></tr><tr><td style="font-weight:bold;vertical-align:top;">wsgi.run_once</td><td style="vertical-align:top;">:</td><td><div>False</div></td></tr><tr><td style="font-weight:bold;vertical-align:top;">wsgi.url_scheme</td><td style="vertical-align:top;">:</td><td><div>https</div></td></tr><tr><td style="font-weight:bold;vertical-align:top;">wsgi.version</td><td style="vertical-align:top;">:</td><td><div><table><tr><td><div>1</div></td></tr><tr><td><div>0</div></td></tr></table></div></td></tr><tr><td style="font-weight:bold;vertical-align:top;">wsgi_errors</td><td style="vertical-align:top;">:</td><td><div>&lt;uwsgi_file__bin_user_wsgi_wrapper.ErrorLogFile object at 0x7f8d658ff650&gt;</div></td></tr><tr><td style="font-weight:bold;vertical-align:top;">wsgi_file_wrapper</td><td style="vertical-align:top;">:</td><td><div>&lt;built-in function uwsgi_sendfile&gt;</div></td></tr><tr><td style="font-weight:bold;vertical-align:top;">wsgi_input</td><td style="vertical-align:top;">:</td><td><div>&lt;uwsgi._Input object at 0x7f8d778b4cd8&gt;</div></td></tr><tr><td style="font-weight:bold;vertical-align:top;">wsgi_multiprocess</td><td style="vertical-align:top;">:</td><td><div>True</div></td></tr><tr><td style="font-weight:bold;vertical-align:top;">wsgi_multithread</td><td style="vertical-align:top;">:</td><td><div>False</div></td></tr><tr><td style="font-weight:bold;vertical-align:top;">wsgi_run_once</td><td style="vertical-align:top;">:</td><td><div>False</div></td></tr><tr><td style="font-weight:bold;vertical-align:top;">wsgi_url_scheme</td><td style="vertical-align:top;">:</td><td><div>https</div></td></tr><tr><td style="font-weight:bold;vertical-align:top;">wsgi_version</td><td style="vertical-align:top;">:</td><td><div><table><tr><td><div>1</div></td></tr><tr><td><div>0</div></td></tr></table></div></td></tr></table></div></td></tr><tr><td style="font-weight:bold;vertical-align:top;">extension</td><td style="vertical-align:top;">:</td><td><div>html</div></td></tr><tr><td style="font-weight:bold;vertical-align:top;">folder</td><td style="vertical-align:top;">:</td><td><div>/home/concordance/web2py/applications/test/</div></td></tr><tr><td style="font-weight:bold;vertical-align:top;">function</td><td style="vertical-align:top;">:</td><td><div>save_words</div></td></tr><tr><td style="font-weight:bold;vertical-align:top;">global_settings</td><td style="vertical-align:top;">:</td><td><div><table><tr><td style="font-weight:bold;vertical-align:top;">app_folders</td><td style="vertical-align:top;">:</td><td><div>set([&#x27;/home/concordance/web2py/applications/admin/&#x27;, &#x27;/home/concordance/web2py/applications/test/&#x27;])</div></td></tr><tr><td style="font-weight:bold;vertical-align:top;">applications_parent</td><td style="vertical-align:top;">:</td><td><div>/home/concordance/web2py</div></td></tr><tr><td style="font-weight:bold;vertical-align:top;">db_sessions</td><td style="vertical-align:top;">:</td><td><div>set([])</div></td></tr><tr><td style="font-weight:bold;vertical-align:top;">debugging</td><td style="vertical-align:top;">:</td><td><div>False</div></td></tr><tr><td style="font-weight:bold;vertical-align:top;">gluon_parent</td><td style="vertical-align:top;">:</td><td><div>/home/concordance/web2py</div></td></tr><tr><td style="font-weight:bold;vertical-align:top;">is_jython</td><td style="vertical-align:top;">:</td><td><div>False</div></td></tr><tr><td style="font-weight:bold;vertical-align:top;">is_pypy</td><td style="vertical-align:top;">:</td><td><div>False</div></td></tr><tr><td style="font-weight:bold;vertical-align:top;">is_source</td><td style="vertical-align:top;">:</td><td><div>True</div></td></tr><tr><td style="font-weight:bold;vertical-align:top;">local_hosts</td><td style="vertical-align:top;">:</td><td><div><table><tr><td><div>::ffff:127.0.0.1</div></td></tr><tr><td><div>::1</div></td></tr><tr><td><div>harry-liveweb8</div></td></tr><tr><td><div>50.19.109.98</div></td></tr><tr><td><div>127.0.0.1</div></td></tr><tr><td><div>concordance.pythonanywhere.com</div></td></tr><tr><td><div>localhost</div></td></tr></table></div></td></tr><tr><td style="font-weight:bold;vertical-align:top;">web2py_version</td><td style="vertical-align:top;">:</td><td><div>2.9.5-stable+timestamp.2014.03.16.02.35.39</div></td></tr></table></div></td></tr><tr><td style="font-weight:bold;vertical-align:top;">is_https</td><td style="vertical-align:top;">:</td><td><div>True</div></td></tr><tr><td style="font-weight:bold;vertical-align:top;">is_local</td><td style="vertical-align:top;">:</td><td><div>False</div></td></tr><tr><td style="font-weight:bold;vertical-align:top;">is_restful</td><td style="vertical-align:top;">:</td><td><div>False</div></td></tr><tr><td style="font-weight:bold;vertical-align:top;">now</td><td style="vertical-align:top;">:</td><td><div>datetime.datetime(2016, 7, 3, 13, 32, 48, 324062)</div></td></tr><tr><td style="font-weight:bold;vertical-align:top;">raw_args</td><td style="vertical-align:top;">:</td><td><div></div></td></tr><tr><td style="font-weight:bold;vertical-align:top;">raw_extension</td><td style="vertical-align:top;">:</td><td><div>None</div></td></tr><tr><td style="font-weight:bold;vertical-align:top;">url</td><td style="vertical-align:top;">:</td><td><div>/test/concordance/save_words</div></td></tr><tr><td style="font-weight:bold;vertical-align:top;">utcnow</td><td style="vertical-align:top;">:</td><td><div>datetime.datetime(2016, 7, 3, 13, 32, 48, 324079)</div></td></tr><tr><td style="font-weight:bold;vertical-align:top;">uuid</td><td style="vertical-align:top;">:</td><td><div>test/128.199.254.26.2016-07-03.13-32-48.68e6cf54-3fb3-4841-90b3-9c5e0ac9a131</div></td></tr><tr><td style="font-weight:bold;vertical-align:top;">wsgi</td><td style="vertical-align:top;">:</td><td><div>&lt;gluon.main.LazyWSGI object at 0x7f8d5b9e1290&gt;</div></td></tr></table></div>'
tRp58
sS'frames'
p59
(lp60
(dp61
S'file'
p62
S'/home/concordance/web2py/gluon/restricted.py'
p63
sS'dump'
p64
(dp65
S'environment'
p66
S"{'A': <class 'gluon.html.A'>, 'ANY_OF': <class 'gluon.validators.ANY_OF'>, 'Auth': <class 'gluon.tools.Auth'>, 'B': <class 'gluon.html.B'>, 'BEAUTIFY': <class 'gluon.html.BEAUTIFY'>, 'BODY': <class 'gluon.html.BODY'>, 'BR': <class 'gluon.html.BR'>, 'BUTTON': <class 'gluon.html.BUTTON'>, 'CAT': <class 'gluon.html.CAT'>, 'CENTER': <class 'gluon.html.CENTER'>, ...}"
p67
sS'ccode'
p68
S'<code object <module> at 0x7f8d5b97fab0, file "/...cations/test/controllers/concordance.py", line 3>'
p69
ssS'lnum'
p70
I220
sS'lines'
p71
(dp72
I224
S'        # do not encapsulate (obfuscate) the original RestrictedError'
p73
sI215
S'    try:'
p74
sI216
S'        if isinstance(code, types.CodeType):'
p75
sI217
S'            ccode = code'
p76
sI218
S'        else:'
p77
sI219
S'            ccode = compile2(code, layer)'
p78
sI220
S'        exec ccode in environment'
p79
sI221
S'    except HTTP:'
p80
sI222
S'        raise'
p81
sI223
S'    except RestrictedError:'
p82
ssS'call'
p83
S"(code='# coding: utf8\\n# coding: utf8\\nimport nltk\\nimport...1))\\n\\nresponse._vars=response._caller(save_words)\\n', environment={'A': <class 'gluon.html.A'>, 'ANY_OF': <class 'gluon.validators.ANY_OF'>, 'Auth': <class 'gluon.tools.Auth'>, 'B': <class 'gluon.html.B'>, 'BEAUTIFY': <class 'gluon.html.BEAUTIFY'>, 'BODY': <class 'gluon.html.BODY'>, 'BR': <class 'gluon.html.BR'>, 'BUTTON': <class 'gluon.html.BUTTON'>, 'CAT': <class 'gluon.html.CAT'>, 'CENTER': <class 'gluon.html.CENTER'>, ...}, layer='/home/concordance/web2py/applications/test/controllers/concordance.py')"
p84
sS'func'
p85
S'restricted'
p86
sa(dp87
g62
S'/home/concordance/web2py/applications/test/controllers/concordance.py'
p88
sg64
(dp89
sg70
I188
sg71
(dp90
I177
S'    sentences1 = []'
p91
sI178
S"    part=['NOUN', 'ADJF']"
p92
sI179
S'    for all in trymysql(trymysql.text1.id>0).select():'
p93
sI180
S'        #sentences1.append([alles.word for alles in trymysql((trymysql.allword.title==all.id)&(trymysql.allword.partos.belongs(part))).select() if alles.word not in stop])'
p94
sI181
S'        sentences1.append([trymysql((trymysql.allword.title==all.id)&(trymysql.allword.partos.belongs(part))).select(allword.word)])'
p95
sI182
S'    #model1 = gensim.models.Word2Vec(sentences1, min_count=20, window=15, size=300)'
p96
sI183
S'    #model1.save("/home/concordance/web2py/applications/test/uploads/models/all_model_from_20_win15_size300")'
p97
sI184
S"    with open('/home/concordance/web2py/applications/test/uploads/models/nouns_adjf.txt', 'wb') as f:"
p98
sI185
S'        pickle.dump(sentences1, f)'
p99
sI186
S'    return dict(model1=len(sentences1))'
p100
ssg83
S'()'
p101
sg85
S'<module>'
p102
sa(dp103
g62
S'/home/concordance/web2py/gluon/globals.py'
p104
sg64
(dp105
S'self'
p106
S'undefined'
p107
sS'f'
S'<function save_words>'
p108
ssg70
I385
sg71
(dp109
I384
S'        self._vars = None'
p110
sI385
S'        self._caller = lambda f: f()'
p111
sI386
S'        self._view_environment = None'
p112
sI387
S'        self._custom_commit = None'
p113
sI388
S'        self._custom_rollback = None'
p114
sI389
S''
sI380
S'        self.menu = []             # used by the default view layout'
p115
sI381
S'        self.files = []            # used by web2py_ajax.html'
p116
sI382
S'        self.generic_patterns = []  # patterns to allow generic views'
p117
sI383
S"        self.delimiters = ('{{', '}}')"
p118
ssg83
S'(f=<function save_words>)'
p119
sg85
S'<lambda>'
p120
sa(dp121
g62
S'/home/concordance/web2py/applications/test/controllers/concordance.py'
p122
sg64
(dp123
S'sentences1'
p124
S'[]'
p125
sS'all'
p126
S"<Row {'dmonth_writing': '', 'dyear_writing': '',...: '', 'v': '', 'epigraph': '', 'group_text': 1L}>"
p127
sS'trymysql.allword.partos'
p128
S'<gluon.dal.Field object>'
p129
sS'all.id'
p130
S'1L'
p131
sS'trymysql.allword.partos.belongs'
p132
S'<bound method Field.belongs of <gluon.dal.Field object>>'
p133
sS').select'
p134
g107
sS'allword'
p135
g107
sS'sentences1.append'
p136
S'<built-in method append of list object>'
p137
sS'part'
p138
S"['NOUN', 'ADJF']"
p139
sS'trymysql.allword'
p140
S'<Table allword (id,word,lemma,title,partos,anim,...lexical_group,concordance_number,warning,author)>'
p141
sS'trymysql.allword.title'
p142
S'<gluon.dal.Field object>'
p143
sS'global trymysql'
p144
S'<DAL uri="mysql:******@concordance.mysql.pythonanywhere-services.com/concordance$new">'
p145
ssg70
I181
sg71
(dp146
I176
S'def save_words():'
p147
sI177
S'    sentences1 = []'
p148
sI178
S"    part=['NOUN', 'ADJF']"
p149
sI179
S'    for all in trymysql(trymysql.text1.id>0).select():'
p150
sI180
S'        #sentences1.append([alles.word for alles in trymysql((trymysql.allword.title==all.id)&(trymysql.allword.partos.belongs(part))).select() if alles.word not in stop])'
p151
sI181
S'        sentences1.append([trymysql((trymysql.allword.title==all.id)&(trymysql.allword.partos.belongs(part))).select(allword.word)])'
p152
sI182
S'    #model1 = gensim.models.Word2Vec(sentences1, min_count=20, window=15, size=300)'
p153
sI183
S'    #model1.save("/home/concordance/web2py/applications/test/uploads/models/all_model_from_20_win15_size300")'
p154
sI184
S"    with open('/home/concordance/web2py/applications/test/uploads/models/nouns_adjf.txt', 'wb') as f:"
p155
sI185
S'        pickle.dump(sentences1, f)'
p156
ssg83
S'()'
p157
sg85
S'save_words'
p158
sasS'pyver'
p159
S'Python 2.7.6: /usr/local/bin/uwsgi (prefix: /usr)'
p160
sS'session'
p161
g57
(S'sO\x01\x00\x00<div><table><tr><td style="font-weight:bold;vertical-align:top;">last_orderby</td><td style="vertical-align:top;">:</td><td><div>None</div></td></tr><tr><td style="font-weight:bold;vertical-align:top;">last_query</td><td style="vertical-align:top;">:</td><td><div>trymysql.allword.word==&#x27;\xd0\xb0\xd0\xb4\xd1\x83&#x27;</div></td></tr></table></div>'
tRp162
sS'etype'
p163
S"<type 'exceptions.NameError'>"
p164
sS'date'
p165
S'Sun Jul  3 13:32:55 2016'
p166
sS'response'
p167
g57
(S's\xa1\x1e\x00\x00<div><table><tr><td style="font-weight:bold;vertical-align:top;">body</td><td style="vertical-align:top;">:</td><td><div>&lt;cStringIO.StringO object at 0x7f8d5b990a08&gt;</div></td></tr><tr><td style="font-weight:bold;vertical-align:top;">cookies</td><td style="vertical-align:top;">:</td><td><div><table><tr><td style="font-weight:bold;vertical-align:top;">session_id_test</td><td style="vertical-align:top;">:</td><td><div>178.62.237.202-2cb16a4e-c5ff-4976-8a39-eb01ecbb6525<table><tr><td style="font-weight:bold;vertical-align:top;">comment</td><td style="vertical-align:top;">:</td><td><div></div></td></tr><tr><td style="font-weight:bold;vertical-align:top;">domain</td><td style="vertical-align:top;">:</td><td><div></div></td></tr><tr><td style="font-weight:bold;vertical-align:top;">expires</td><td style="vertical-align:top;">:</td><td><div></div></td></tr><tr><td style="font-weight:bold;vertical-align:top;">httponly</td><td style="vertical-align:top;">:</td><td><div></div></td></tr><tr><td style="font-weight:bold;vertical-align:top;">max-age</td><td style="vertical-align:top;">:</td><td><div></div></td></tr><tr><td style="font-weight:bold;vertical-align:top;">path</td><td style="vertical-align:top;">:</td><td><div>/</div></td></tr><tr><td style="font-weight:bold;vertical-align:top;">secure</td><td style="vertical-align:top;">:</td><td><div></div></td></tr><tr><td style="font-weight:bold;vertical-align:top;">version</td><td style="vertical-align:top;">:</td><td><div></div></td></tr></table></div></td></tr></table></div></td></tr><tr><td style="font-weight:bold;vertical-align:top;">delimiters</td><td style="vertical-align:top;">:</td><td><div><table><tr><td><div>{{</div></td></tr><tr><td><div>}}</div></td></tr></table></div></td></tr><tr><td style="font-weight:bold;vertical-align:top;">files</td><td style="vertical-align:top;">:</td><td><div><table></table></div></td></tr><tr><td style="font-weight:bold;vertical-align:top;">flash</td><td style="vertical-align:top;">:</td><td><div></div></td></tr><tr><td style="font-weight:bold;vertical-align:top;">generic_patterns</td><td style="vertical-align:top;">:</td><td><div><table></table></div></td></tr><tr><td style="font-weight:bold;vertical-align:top;">google_analytics_id</td><td style="vertical-align:top;">:</td><td><div>UA-52567545-1</div></td></tr><tr><td style="font-weight:bold;vertical-align:top;">headers</td><td style="vertical-align:top;">:</td><td><div><table><tr><td style="font-weight:bold;vertical-align:top;">X-Powered-By</td><td style="vertical-align:top;">:</td><td><div>web2py</div></td></tr></table></div></td></tr><tr><td style="font-weight:bold;vertical-align:top;">logo</td><td style="vertical-align:top;">:</td><td><div><a class="brand" href="http://concordances.ru"><b>concor<span>dances</span></b>.ru</a></div></td></tr><tr><td style="font-weight:bold;vertical-align:top;">menu</td><td style="vertical-align:top;">:</td><td><div><table><tr><td><div><table><tr><td><div>Home</div></td></tr><tr><td><div>False</div></td></tr><tr><td><div>/test/default/index</div></td></tr><tr><td><div><table></table></div></td></tr></table></div></td></tr><tr><td><div><table><tr><td><div><span class="highlighted">web2py</span></div></td></tr><tr><td><div>False</div></td></tr><tr><td><div>http://concordances.ru</div></td></tr><tr><td><div><table><tr><td><div><table><tr><td><div>\xd0\x9e \xd0\xbf\xd1\x80\xd0\xbe\xd0\xb5\xd0\xba\xd1\x82\xd0\xb5</div></td></tr><tr><td><div>False</div></td></tr><tr><td><div>/admin/default/about/test</div></td></tr></table></div></td></tr><tr><td><div><table><tr><td><div>\xd0\x90\xd0\xb4\xd0\xbc\xd0\xb8\xd0\xbd\xd0\xba\xd0\xb0</div></td></tr><tr><td><div>False</div></td></tr><tr><td><div>/admin/default/edit/test/controllers/concordance.py</div></td></tr></table></div></td></tr></table></div></td></tr></table></div></td></tr></table></div></td></tr><tr><td style="font-weight:bold;vertical-align:top;">meta</td><td style="vertical-align:top;">:</td><td><div><table><tr><td style="font-weight:bold;vertical-align:top;">author</td><td style="vertical-align:top;">:</td><td><div>Maria Levchenko &lt;marylevchenko@gmail.com&gt;</div></td></tr><tr><td style="font-weight:bold;vertical-align:top;">generator</td><td style="vertical-align:top;">:</td><td><div>\xd0\xa7\xd0\xb0\xd1\x81\xd1\x82\xd0\xbe\xd1\x82\xd0\xbd\xd1\x8b\xd0\xb9 \xd1\x81\xd0\xbb\xd0\xbe\xd0\xb2\xd0\xb0\xd1\x80\xd1\x8c \xd1\x80\xd1\x83\xd1\x81\xd1\x81\xd0\xba\xd0\xbe\xd0\xb9 \xd0\xbb\xd0\xb8\xd1\x82\xd0\xb5\xd1\x80\xd0\xb0\xd1\x82\xd1\x83\xd1\x80\xd1\x8b</div></td></tr><tr><td style="font-weight:bold;vertical-align:top;">keywords</td><td style="vertical-align:top;">:</td><td><div>concordance, natural language processing, critics</div></td></tr></table></div></td></tr><tr><td style="font-weight:bold;vertical-align:top;">models_to_run</td><td style="vertical-align:top;">:</td><td><div><table><tr><td><div>^\\w+\\.py$</div></td></tr><tr><td><div>^concordance/\\w+\\.py$</div></td></tr><tr><td><div>^concordance/save_words/\\w+\\.py$</div></td></tr></table></div></td></tr><tr><td style="font-weight:bold;vertical-align:top;">postprocessing</td><td style="vertical-align:top;">:</td><td><div><table></table></div></td></tr><tr><td style="font-weight:bold;vertical-align:top;">session_client</td><td style="vertical-align:top;">:</td><td><div>128.199.254.26</div></td></tr><tr><td style="font-weight:bold;vertical-align:top;">session_cookie_compression_level</td><td style="vertical-align:top;">:</td><td><div>None</div></td></tr><tr><td style="font-weight:bold;vertical-align:top;">session_cookie_expires</td><td style="vertical-align:top;">:</td><td><div>None</div></td></tr><tr><td style="font-weight:bold;vertical-align:top;">session_cookie_key</td><td style="vertical-align:top;">:</td><td><div>None</div></td></tr><tr><td style="font-weight:bold;vertical-align:top;">session_data_name</td><td style="vertical-align:top;">:</td><td><div>session_data_test</div></td></tr><tr><td style="font-weight:bold;vertical-align:top;">session_file</td><td style="vertical-align:top;">:</td><td><div>&lt;open file &#x27;/home/concordance/web2py/applications/test/sessions/178.62.237.202-2cb16a4e-c5ff-4976-8a39-eb01ecbb6525&#x27;, mode &#x27;rb+&#x27; at 0x7f8d5ba19810&gt;</div></td></tr><tr><td style="font-weight:bold;vertical-align:top;">session_filename</td><td style="vertical-align:top;">:</td><td><div>/home/concordance/web2py/applications/test/sessions/178.62.237.202-2cb16a4e-c5ff-4976-8a39-eb01ecbb6525</div></td></tr><tr><td style="font-weight:bold;vertical-align:top;">session_hash</td><td style="vertical-align:top;">:</td><td><div>b6fed0dd04cc6b39505d4961ebc34f01</div></td></tr><tr><td style="font-weight:bold;vertical-align:top;">session_id</td><td style="vertical-align:top;">:</td><td><div>178.62.237.202-2cb16a4e-c5ff-4976-8a39-eb01ecbb6525</div></td></tr><tr><td style="font-weight:bold;vertical-align:top;">session_id_name</td><td style="vertical-align:top;">:</td><td><div>session_id_test</div></td></tr><tr><td style="font-weight:bold;vertical-align:top;">session_locked</td><td style="vertical-align:top;">:</td><td><div>True</div></td></tr><tr><td style="font-weight:bold;vertical-align:top;">session_masterapp</td><td style="vertical-align:top;">:</td><td><div>test</div></td></tr><tr><td style="font-weight:bold;vertical-align:top;">session_new</td><td style="vertical-align:top;">:</td><td><div>False</div></td></tr><tr><td style="font-weight:bold;vertical-align:top;">session_storage_type</td><td style="vertical-align:top;">:</td><td><div>file</div></td></tr><tr><td style="font-weight:bold;vertical-align:top;">status</td><td style="vertical-align:top;">:</td><td><div>200</div></td></tr><tr><td style="font-weight:bold;vertical-align:top;">subtitle</td><td style="vertical-align:top;">:</td><td><div></div></td></tr><tr><td style="font-weight:bold;vertical-align:top;">title</td><td style="vertical-align:top;">:</td><td><div>Test</div></td></tr><tr><td style="font-weight:bold;vertical-align:top;">view</td><td style="vertical-align:top;">:</td><td><div>concordance/save_words.html</div></td></tr></table></div>'
tRp168
sS'locals'
p169
(dp170
S'sentences1'
p171
S'[]'
p172
sS'all'
p173
S"<Row {'dmonth_writing': '', 'dyear_writing': '',...: '', 'v': '', 'epigraph': '', 'group_text': 1L}>"
p174
sS'part'
p175
S"['NOUN', 'ADJF']"
p176
sssS'traceback'
p177
S'Traceback (most recent call last):\n  File "/home/concordance/web2py/gluon/restricted.py", line 220, in restricted\n    exec ccode in environment\n  File "/home/concordance/web2py/applications/test/controllers/concordance.py", line 188, in <module>\n  File "/home/concordance/web2py/gluon/globals.py", line 385, in <lambda>\n    self._caller = lambda f: f()\n  File "/home/concordance/web2py/applications/test/controllers/concordance.py", line 181, in save_words\n    sentences1.append([trymysql((trymysql.allword.title==all.id)&(trymysql.allword.partos.belongs(part))).select(allword.word)])\nNameError: global name \'allword\' is not defined\n'
p178
s.