(dp1
S'output'
p2
S"<type 'exceptions.AttributeError'> 'Rows' object has no attribute 'count'"
p3
sS'layer'
p4
S'/home/concordance/web2py/applications/test/controllers/control.py'
p5
sS'code'
p6
S'# coding: utf8\nimport simplejson\nimport pymorphy2\nfrom tokenize1 import *\nimport os\nfrom os import listdir\nfrom os.path import isfile, join\nfrom lxml import etree\nfrom plugin_sqleditable.editable import SQLEDITABLE\nSQLEDITABLE.init()\n\ndef index():\n    texts = trymysql().select(trymysql.author.ALL, orderby=trymysql.author.family)\n    return dict(texts=texts)\n\ndef fstring():\n    texts = trymysql(trymysql.text1.id>0).select().count()\n    for all in text:\n        if all.title.endswith(\'...\'):\n            all.update_record(first_string = all.title, title = \'\')\n    return dict(texts=texts)\n\ndef tokenize_all(): # prepares text for tokenization (decoding) and write result in database trymysql.allword, after - morpho/index1.html\n    for x in range(10260,10275): # if text not yet in database (last:4811,7088, 10260)\n        text2 = trymysql(trymysql.text1.id==x).select().first()\n        text1 = text2[\'body\'].decode(\'utf-8\')\n        filename = "/home/concordance/web2py/applications/test/corpus/" + str(text2.author.id) + str(text2.id) + \'.txt\'\n        f = open(filename, \'w\')\n        f.write(text1.encode(\'utf-8\'))\n        f.close()\n        text2.update_record(filename=filename)\n        normal = normalize_new2(text1, 0)\n        for token in normal:\n            trymysql.allword.insert(title=text2.id, word=token[0], partos=str(token[1]), author=text2.author, text_location=token[3], tense=str(token[4]), lemma=str(token[2].encode(\'utf-8\')))\n            message = "\xd0\x92\xd1\x81\xd0\xb5 \xd0\xb4\xd0\xbe\xd0\xb1\xd0\xb0\xd0\xb2\xd0\xbb\xd0\xb5\xd0\xbd\xd0\xbe \xd0\xb2 \xd0\xb1\xd0\xb0\xd0\xb7\xd1\x83"\n    return dict(message=message)\n\nnames = [\'None\', \'Abbr\', \'Name\', \'Surn\', \'Patr\', \'Geox\', \'Init\']\nstyle = [\'Infr\', \'Slng\', \'Arch\', \'Litr\', \'Erro\', \'Dist\']\nother = [\'Ques\', \'Dmns\', \'Prnt\', \'Prdx\', \'Af-p\', \'Anph\', \'Inmx\', \'V-be\', \'V-en\', \'V-ie\', \'V-bi\', \'V-ey\', \'V-oy\', \'Cmp2\', \'V-ej\', \'Fimp\', \'Coun\', \'Coll\', \'V-sh\', \'Vpre\', \'Supr\', \'Qual\', \'Apro\', \'Anum\', \'Poss\']\n\ndef check_old():\n    n = []\n    filename2="/home/concordance/web2py/applications/test/uploads/newdict/verbs.txt"\n    with open(filename2,\'rb\') as inf:\n        ispr = inf.read()\n        inf.close()\n    for new in ispr.split():\n        words = trymysql(trymysql.allword.lemma==new).select()\n        for all in words:\n            n.append(all.word)\n            all.update_record(partos=\'VERB\', word=new, gendr=\'None\', number=\'None\', cas=\'None\', tense=\'None\', aspect=\'None\', person=\'None\', transitivity= \'None\', mood = \'None\', involvment = \'None\', voice = \'None\', sobstv=\'None\', style = \'Infr\')\n    return dict(ispr=ispr, n=n)\n\ndef check_old1():\n    morph = pymorphy2.MorphAnalyzer()\n    mist = []\n    filename2="/home/concordance/web2py/applications/test/uploads/newdict/ispr3.txt"\n    with open(filename2,\'rb\') as inf:\n        ispr = eval(inf.read())\n    for new in ispr.keys():\n        words = trymysql(trymysql.allword.lemma==new).select()\n        normal = morph.parse(new.decode(\'utf-8\'))[ispr[new]]\n        parsed_other = parse_tags(normal.tag, other)[\'result\']\n        parsed_style = parse_tags(normal.tag, style)[\'result\']\n        parsed_name = parse_tags(normal.tag, names[1:])[\'result\']\n        for all in words:\n            all.update_record(word=normal.normal_form, partos = str(normal.tag.POS), anim = str(normal.tag.animacy), gendr=str(normal.tag.gender), number = str(normal.tag.number), cas = str(normal.tag.case), tense = str(normal.tag.tense), aspect = str(normal.tag.aspect), person = str(normal.tag.person), transitivity= str(normal.tag.transitivity), mood = str(normal.tag.mood), involvment = str(normal.tag.involvement), voice = str(normal.tag.voice), sobstv=parsed_name, style = parsed_style, other = parsed_other)\n    return dict(ispr=ispr, mist = mist)\n\ndef parse_tags(tags, list_tags):\n    parsed = [x for x in list_tags if x in tags]\n    result = \'None\'\n    for all in parsed:\n        if all != \'None\':\n            result = str(all)\n    return dict(result=result)\n\n@auth.requires_login()\ndef search_for_files():\n    path = "/home/concordance/web2py/applications/test/corpus/"\n    files = [f for f in listdir(path) if isfile(join(path,f)) ]\n    filename=str(path)+files[0]\n    new = open(filename, \'rb\')\n    content = new.readlines()\n    poems = []\n    text = {}\n    n=0\n    stih=[]\n    zagl=ded=year=day=month=location=epi=a_epi=\'\'\n    string_number=0\n    for all in content:\n        string_number +=1\n        if \'NNN\' in all:\n            zagl = all[3:]\n        elif \'ggg\' in all:\n            year = all[3:]\n        elif \'mmm\' in all:\n            month = all[3:]\n        elif \'dday\' in all:\n            day = all[4:]\n        elif \'lll\' in all:\n            location = all[3:]\n        elif \'DDD\' in all:\n            ded = all[3:]\n        elif \'EPI\' in all:\n            epi = all[3:]\n        elif \'AUT\' in all:\n            a_epi = all[3:]\n        elif "*" in all:\n            text[\'t\']=stih\n            poems.append(text)\n            trymysql.text1.insert(title=zagl, first_string=stih[0]+str("..."), year_writing=year, epigraph = epi, epigraph_author = a_epi, dedication= ded, month_writing=month, day_writing=day, author=8, group_text=81, writing_location=location, body = \'\'.join(text[\'t\']))\n            stih = []\n            text= {}\n            year=\'\'\n            zagl=\'\'\n            month=\'\'\n            day=\'\'\n            location=\'\'\n            ded=epi=a_epi=\'\'\n            n+=1\n            string_number=0\n        else:\n            stih.append(all)\n    return dict(poems=poems)\n\ndef select_one(content):\n    new = content.count(\'*\')\n    poems = []\n    content = \' \'.join(content)\n    for all in range(new):\n        end = content.index(\'*\')\n        poems.append(content[:end])\n        content = content[end-1:]\n    return dict(poems=poems)\n\ndef verbs_all(): # show verbs in the text\n    verbs1=[row[\'word\'] for row in trymysql((trymysql.allword.author==\'1\')&(trymysql.allword.partos==\'VERB\')).select()]\n    verbs1=sorted(set(verbs1))\n    return dict(verbs1=verbs1)\n\n@auth.requires_login()\ndef edit_forms():\n    def record():\n        rows = trymysql(trymysql.allword.title ==request.args(0)).select()\n        return [row.id for row in rows]\n    trymysql.allword.id.readable = True\n    trymysql.allword.word.writable = True\n    trymysql.allword.title.readable = True\n    trymysql.allword.partos.writable = True\n    trymysql.allword.tense.writable = True\n    trymysql.allword.lexical_group.readable=False\n    trymysql.allword.lemma.writable=True\n\n    response.title = \'demo020\'\n    response.view = \'plugin_sqleditable/sample.html\'\n    editable = SQLEDITABLE(trymysql.allword, record=record(), deletable=True).process()\n    return dict(editable=editable)\n\n@auth.requires_login()\ndef edit_forms1():\n    def record():\n        titles = [x for x in range(800,900)]\n        rows = trymysql((trymysql.allword.sobstv == "Geox")&(trymysql.allword.title.belongs(titles))).select()\n        return [row.id for row in rows]\n    trymysql.allword.id.readable = True\n    trymysql.allword.word.writable = True\n    trymysql.allword.title.writable = True\n    trymysql.allword.partos.writable = True\n    trymysql.allword.tense.writable = True\n    trymysql.allword.lexical_group.readable=False\n    trymysql.allword.lemma.writable=True\n\n    response.title = \'demo020\'\n    response.view = \'plugin_sqleditable/sample.html\'\n    editable = SQLEDITABLE(trymysql.allword, record=record(), deletable=True).process()\n    return dict(editable=editable)\n\ndef create_xml():\n    n = 1\n    author_texts = [all.id for all in trymysql(trymysql.text1.author==n).select()]\n    author_id = trymysql(trymysql.author.id==n).select().first()\n    page = etree.Element(\'all\') # create xml tree\n    doc = etree.ElementTree(page)\n    author = etree.SubElement(page, \'author\')\n    family = etree.SubElement(author, \'family\').text=author_id.family.decode(\'utf-8\')\n    name = etree.SubElement(author, \'family\').text=author_id.name.decode(\'utf-8\')\n    for x in author_texts[1:]:\n        texts = trymysql(trymysql.text1.id==int(x)).select()[0] # select one poem\n        words_from_base = trymysql(trymysql.allword.title==int(x)).select() # select the poem\'s words from allword base\n        f = open(texts.filename, \'rb\')\n        content = f.readlines()\n        f.close()\n        text = etree.SubElement(page, \'text\')\n        info = etree.SubElement(text, \'info\')\n        one = etree.SubElement(info, \'title\').text = texts.title.decode(\'utf-8\')\n        if isinstance(texts.under_title, str):\n            subtitle = etree.SubElement(info, \'subtitle\').text=texts.under_title.decode(\'utf-8\')\n        if isinstance(texts.group_text.title, str):\n            group = etree.SubElement(info, \'group\').text=texts.group_text.title.decode(\'utf-8\')\n        if len(texts.dedication)>0:\n            dedication = etree.SubElement(info, \'dedication\').text = texts.dedication.decode(\'utf-8\')\n        try:\n            year = etree.SubElement(info, \'year\').text = texts.year_writing\n            month = etree.SubElement(info, \'month\').text = texts.month_writing\n            day = etree.SubElement(info, \'day\').text = texts.day_writing\n        except:\n            pass\n        poem = etree.SubElement(text, \'poem\')\n        count_stanza = 1                                             # count stanzas\n        line_count = 1                   # get first word\'s id from allword base\n        word_count = 0\n        word_number = words_from_base[0].id\n        stanza = etree.SubElement(poem,  \'stanza\', number = str(count_stanza))\n        for lines in content:\n            if lines in [\'\\n\', \'\\r\\n\']:\n                count_stanza += 1\n                stanza = etree.SubElement(poem, \'stanza\', number = str(count_stanza))\n            else:\n                string = etree.SubElement(stanza, \'line\', number=str(line_count))\n                right_line = tokenize2(lines.decode(\'utf-8\'))\n                line_count +=1\n                for word in right_line:\n                    if len(words_from_base)>0:\n                        if words_from_base[word_count].id != word_number:\n                            slovo=etree.SubElement(string, \'werd\')\n                            word_number+=1\n                        else:\n                            slovo = etree.SubElement(string, \'word\', number=str(words_from_base[word_count].id), pos = words_from_base[word_count].partos).text=words_from_base[word_count].lemma.decode(\'utf-8\')\n                            word_count +=1\n                            word_number +=1\n                    else:\n                        slovo=etree.SubElement(string, \'wurd\')\n                        word_number +=1\n                        word_count += 1\n    path = "applications/test/uploads/xml/"\n    new_name=path + str(n) + ".xml"\n    outFile = open(new_name, \'w\')\n    doc.write(outFile, pretty_print=True, xml_declaration=True, encoding=\'utf-16\')\n    outFile.close()\n\ndef create_xml_unique(): # create one xml for one text\n    ## author_texts = [all.id for all in trymysql(trymysql.text1.author==11).select()]\n    for x in range(483,484):\n        page = etree.Element(\'results\') # create xml tree\n        doc = etree.ElementTree(page)\n        texts = trymysql(trymysql.text1.id==int(x)).select().first() # select one poem\n        words_from_base = trymysql(trymysql.allword.title==int(x)).select().first().id # select the poem\'s words from allword base\n        title = texts.title\n        author = texts.author\n        f = open(texts.filename, \'rb\')\n        content = f.readlines()\n        f.close()\n        text = etree.SubElement(page, \'text\')\n        info = etree.SubElement(text, \'info\')\n        one = etree.SubElement(info, \'title\').text = title.decode(\'utf-8\')\n        two = etree.SubElement(info, \'name\').text = author.name.decode(\'utf-8\')\n        three = etree.SubElement(info, \'author\').text = author.family.decode(\'utf-8\')\n        poem = etree.SubElement(text, \'poem\')\n        count_stanza = 1                                             # count stanzas\n        line_count = 1\n        word_number = words_from_base                       # get first word\'s id from allword base\n        stanza = etree.SubElement(poem,  \'stanza\', number = str(count_stanza))\n        for lines in content:\n            if lines in [\'\\n\', \'\\r\\n\']:\n                count_stanza += 1\n                stanza = etree.SubElement(poem, \'stanza\', number = str(count_stanza))\n            else:\n                string = etree.SubElement(stanza, \'line\', number=str(line_count))\n                right_line = tokenize2(lines.decode(\'utf-8\'))\n                line_count +=1\n                for word in right_line:\n                    if trymysql(trymysql.allword.id==word_number).select().first() is None:\n                        slovo = etree.SubElement(string, \'werd\', number = str(word_number))\n                    else:\n                        if trymysql(trymysql.allword.id==word_number).select().first().id in [all.id for all in trymysql(trymysql.allword.title==x).select()]:\n                            slovo_from_base = trymysql(trymysql.allword.id==word_number).select().first()\n                            if slovo_from_base.id in [all.word_first for all in trymysql(trymysql.variants.id>0).select()]: #write variant of word if any\n                                slovo = etree.SubElement(string, \'word\', number=str(slovo_from_base.id), variant = trymysql(trymysql.variants.word_first==slovo_from_base.id).select().first()[\'comment_text\'].decode(\'utf-8\'), pos = slovo_from_base.partos).text=slovo_from_base.lemma.decode(\'utf-8\')\n                            else:\n                                slovo = etree.SubElement(string, \'word\', number=str(slovo_from_base.id), pos = slovo_from_base.partos).text=slovo_from_base.lemma.decode(\'utf-8\')\n                    word_number+=1 # update word\'s id\n        path = "applications/test/uploads/xml/13/"\n        new_name=path+str(x) + ".xml"\n        #outFile = open(new_name, \'w\')\n        #doc.write(outFile, pretty_print=True, xml_declaration=True, encoding=\'utf-16\')\n        #outFile.close()\n        DECLARATION = """<?xml version="1.0" encoding="utf-8"?>\n        <?xml-stylesheet type="text/xsl" href="style.xslt"?>\\n"""\n        with open(new_name, \'w\') as output: # would be better to write to temp file and rename\n            output.write(DECLARATION)\n            doc.write(output, xml_declaration=False, pretty_print=True, encoding=\'utf-8\')\n\ndef table_as_xml(): #no view yet, for view: {{=TAG(r)}}\n    words = trymysql(trymysql.allword.title==15).select()\n    r = words.xml()\n    return dict(r=r)\n\ndef create_concordance():\n    update_word= []\n    for x in range(9700, 10000):\n        texts = trymysql(trymysql.allword.title==x).select()\n        words = [all.word for all in texts]\n        for w in words:\n            if trymysql(trymysql.concordances.word==w).isempty()==True:\n                trymysql.concordances.insert(word=w)\n                update_word.append(w) # words inserted in concordances table\n    return dict(update_word=update_word)\n#    part=[\'VERB\', \'NOUN\', \'ADJF\', \'ADJS\', \'INFN\', \'GRND\', \'PRTF\', \'PRTS\', \'ADVB\']\n#    all1=[all.word for all in trymysql(trymysql.allword.author==1).select()]\n#    slovar = [all.word for all in trymysql(trymysql.concordance.id>0).select()]\n#    words=sorted(set(all1))\n#    for x in words:\n#        if x not in slovar:\n#            trymysql.concordance.insert(word=x)\n#    return dict(part=words[:100])\n\ndef see_concordances():\n    n=[]\n    s = 1\n    words = trymysql(trymysql.concordances.word.like(\'\xd0\xb0%\')).select()\n    w = [all.word for all in words]\n    w = sorted(w)\n    for all in w:\n        name = \'nomer\'+str(s)\n        name = FORM(INPUT(_name=\'myform\', value=all, requires=IS_NOT_EMPTY()),\n                    INPUT(_type=\'submit\'), action=\'\', method="GET")\n        if name.accepts(request, session, keepvalues=True, formname=all):\n #           response.flash = \'yes!\'\n            trymysql.color.insert(word=all)\n            s+=1\n        n.append(name)\n    return dict(n=n)\n\ndef create_number(): #intrymysql.allword.concordance_number connected to trymysql.concordances.id\n    for all in trymysql((trymysql.concordances.id>3499)&(trymysql.concordances.id<3550)).select():\n        words = trymysql((trymysql.allword.word==all.word)&(trymysql.allword.partos!=\'PNCT\')).select()\n        for w in words:\n            w.update_record(concordance_number=all.id)\n    #for all in trymysql((trymysql.allword.id>49999)&(trymysql.allword.id<60000)).select():\n    #    number = trymysql(trymysql.concordances.word==all.word).select().first().id\n     #   all.update_record(concordance_number= number)\n    return dict(message="OK")\n\ndef save_files():\n    t = []\n    texts = [all.filename for all in trymysql(trymysql.text1.author==request.args(0)).select()]\n    for all in texts:\n        f = open(all, \'rb\')\n        content = f.readlines()\n        t.append(content)\n    f = \'/home/concordance/deposit/poems.txt\'\n    with open(f, \'w\') as ff:\n        for all in t:\n            print>>ff, all\n\nresponse._vars=response._caller(fstring)\n'
p7
sS'snapshot'
p8
(dp9
S'exception'
p10
(dp11
S'__hash__'
p12
S"<method-wrapper '__hash__' of exceptions.AttributeError object>"
p13
sS'__setattr__'
p14
S"<method-wrapper '__setattr__' of exceptions.AttributeError object>"
p15
sS'__reduce_ex__'
p16
S'<built-in method __reduce_ex__ of exceptions.AttributeError object>'
p17
sS'__getslice__'
p18
S"<method-wrapper '__getslice__' of exceptions.AttributeError object>"
p19
sS'__getitem__'
p20
S"<method-wrapper '__getitem__' of exceptions.AttributeError object>"
p21
sS'__setstate__'
p22
S'<built-in method __setstate__ of exceptions.AttributeError object>'
p23
sS'args'
p24
S'("\'Rows\' object has no attribute \'count\'",)'
p25
sS'__reduce__'
p26
S'<built-in method __reduce__ of exceptions.AttributeError object>'
p27
sS'__str__'
p28
S"<method-wrapper '__str__' of exceptions.AttributeError object>"
p29
sS'__format__'
p30
S'<built-in method __format__ of exceptions.AttributeError object>'
p31
sS'__getattribute__'
p32
S"<method-wrapper '__getattribute__' of exceptions.AttributeError object>"
p33
sS'__class__'
p34
S"<type 'exceptions.AttributeError'>"
p35
sS'__unicode__'
p36
S'<built-in method __unicode__ of exceptions.AttributeError object>'
p37
sS'__delattr__'
p38
S"<method-wrapper '__delattr__' of exceptions.AttributeError object>"
p39
sS'__subclasshook__'
p40
S'<built-in method __subclasshook__ of type object>'
p41
sS'__repr__'
p42
S"<method-wrapper '__repr__' of exceptions.AttributeError object>"
p43
sS'__dict__'
p44
S'{}'
p45
sS'__sizeof__'
p46
S'<built-in method __sizeof__ of exceptions.AttributeError object>'
p47
sS'__doc__'
p48
S"'Attribute not found.'"
p49
sS'__init__'
p50
S"<method-wrapper '__init__' of exceptions.AttributeError object>"
p51
sS'__new__'
p52
S'<built-in method __new__ of type object>'
p53
ssS'evalue'
p54
S"'Rows' object has no attribute 'count'"
p55
sS'request'
p56
cgluon.html
XML_unpickle
p57
(S'snS\x00\x00<div><table><tr><td style="font-weight:bold;vertical-align:top;">ajax</td><td style="vertical-align:top;">:</td><td><div>False</div></td></tr><tr><td style="font-weight:bold;vertical-align:top;">application</td><td style="vertical-align:top;">:</td><td><div>test</div></td></tr><tr><td style="font-weight:bold;vertical-align:top;">args</td><td style="vertical-align:top;">:</td><td><div><table></table></div></td></tr><tr><td style="font-weight:bold;vertical-align:top;">cid</td><td style="vertical-align:top;">:</td><td><div>None</div></td></tr><tr><td style="font-weight:bold;vertical-align:top;">client</td><td style="vertical-align:top;">:</td><td><div>178.62.64.106</div></td></tr><tr><td style="font-weight:bold;vertical-align:top;">controller</td><td style="vertical-align:top;">:</td><td><div>control</div></td></tr><tr><td style="font-weight:bold;vertical-align:top;">cookies</td><td style="vertical-align:top;">:</td><td><div><table><tr><td style="font-weight:bold;vertical-align:top;">session_id_admin</td><td style="vertical-align:top;">:</td><td><div>46.101.16.229-66ba3a19-410e-462f-b6b9-57f04f1b0572<table><tr><td style="font-weight:bold;vertical-align:top;">comment</td><td style="vertical-align:top;">:</td><td><div></div></td></tr><tr><td style="font-weight:bold;vertical-align:top;">domain</td><td style="vertical-align:top;">:</td><td><div></div></td></tr><tr><td style="font-weight:bold;vertical-align:top;">expires</td><td style="vertical-align:top;">:</td><td><div></div></td></tr><tr><td style="font-weight:bold;vertical-align:top;">httponly</td><td style="vertical-align:top;">:</td><td><div></div></td></tr><tr><td style="font-weight:bold;vertical-align:top;">max-age</td><td style="vertical-align:top;">:</td><td><div></div></td></tr><tr><td style="font-weight:bold;vertical-align:top;">path</td><td style="vertical-align:top;">:</td><td><div></div></td></tr><tr><td style="font-weight:bold;vertical-align:top;">secure</td><td style="vertical-align:top;">:</td><td><div></div></td></tr><tr><td style="font-weight:bold;vertical-align:top;">version</td><td style="vertical-align:top;">:</td><td><div></div></td></tr></table></div></td></tr><tr><td style="font-weight:bold;vertical-align:top;">session_id_test</td><td style="vertical-align:top;">:</td><td><div>178.62.64.106-d25c0aa7-a824-4047-bd2a-a13e17a0cd42<table><tr><td style="font-weight:bold;vertical-align:top;">comment</td><td style="vertical-align:top;">:</td><td><div></div></td></tr><tr><td style="font-weight:bold;vertical-align:top;">domain</td><td style="vertical-align:top;">:</td><td><div></div></td></tr><tr><td style="font-weight:bold;vertical-align:top;">expires</td><td style="vertical-align:top;">:</td><td><div></div></td></tr><tr><td style="font-weight:bold;vertical-align:top;">httponly</td><td style="vertical-align:top;">:</td><td><div></div></td></tr><tr><td style="font-weight:bold;vertical-align:top;">max-age</td><td style="vertical-align:top;">:</td><td><div></div></td></tr><tr><td style="font-weight:bold;vertical-align:top;">path</td><td style="vertical-align:top;">:</td><td><div></div></td></tr><tr><td style="font-weight:bold;vertical-align:top;">secure</td><td style="vertical-align:top;">:</td><td><div></div></td></tr><tr><td style="font-weight:bold;vertical-align:top;">version</td><td style="vertical-align:top;">:</td><td><div></div></td></tr></table></div></td></tr></table></div></td></tr><tr><td style="font-weight:bold;vertical-align:top;">env</td><td style="vertical-align:top;">:</td><td><div><table><tr><td style="font-weight:bold;vertical-align:top;">CONTENT_LENGTH</td><td style="vertical-align:top;">:</td><td><div></div></td></tr><tr><td style="font-weight:bold;vertical-align:top;">CONTENT_TYPE</td><td style="vertical-align:top;">:</td><td><div></div></td></tr><tr><td style="font-weight:bold;vertical-align:top;">DOCUMENT_ROOT</td><td style="vertical-align:top;">:</td><td><div>/usr/local/openresty/nginx/html</div></td></tr><tr><td style="font-weight:bold;vertical-align:top;">HTTPS</td><td style="vertical-align:top;">:</td><td><div>on</div></td></tr><tr><td style="font-weight:bold;vertical-align:top;">HTTP_ACCEPT</td><td style="vertical-align:top;">:</td><td><div>text/html,application/xhtml+xml,application/xml;q=0.9,image/webp,*/*;q=0.8</div></td></tr><tr><td style="font-weight:bold;vertical-align:top;">HTTP_ACCEPT_ENCODING</td><td style="vertical-align:top;">:</td><td><div>gzip, deflate, sdch, br</div></td></tr><tr><td style="font-weight:bold;vertical-align:top;">HTTP_ACCEPT_LANGUAGE</td><td style="vertical-align:top;">:</td><td><div>ru,en;q=0.8,en-US;q=0.6</div></td></tr><tr><td style="font-weight:bold;vertical-align:top;">HTTP_CACHE_CONTROL</td><td style="vertical-align:top;">:</td><td><div>max-age=0</div></td></tr><tr><td style="font-weight:bold;vertical-align:top;">HTTP_CONNECTION</td><td style="vertical-align:top;">:</td><td><div>close</div></td></tr><tr><td style="font-weight:bold;vertical-align:top;">HTTP_COOKIE</td><td style="vertical-align:top;">:</td><td><div>__utmt=1; session_id_admin=46.101.16.229-66ba3a19-410e-462f-b6b9-57f04f1b0572; session_id_test=178.62.64.106-d25c0aa7-a824-4047-bd2a-a13e17a0cd42; __utma=134993891.2009921225.1482865438.1485385214.1485387965.40; __utmb=134993891.5.10.1485387965; __utmc=134993891; __utmz=134993891.1484355529.1.1.utmcsr=(direct)|utmccn=(direct)|utmcmd=(none); _gat=1; _ga=GA1.2.2009921225.1482865438</div></td></tr><tr><td style="font-weight:bold;vertical-align:top;">HTTP_HOST</td><td style="vertical-align:top;">:</td><td><div>concordance.pythonanywhere.com</div></td></tr><tr><td style="font-weight:bold;vertical-align:top;">HTTP_UPGRADE_INSECURE_REQUESTS</td><td style="vertical-align:top;">:</td><td><div>1</div></td></tr><tr><td style="font-weight:bold;vertical-align:top;">HTTP_USER_AGENT</td><td style="vertical-align:top;">:</td><td><div>Mozilla/5.0 (Windows NT 10.0; WOW64) AppleWebKit/537.36 (KHTML, like Gecko) Chrome/55.0.2883.87 Safari/537.36</div></td></tr><tr><td style="font-weight:bold;vertical-align:top;">HTTP_X_FORWARDED_FOR</td><td style="vertical-align:top;">:</td><td><div>178.62.64.106</div></td></tr><tr><td style="font-weight:bold;vertical-align:top;">HTTP_X_REAL_IP</td><td style="vertical-align:top;">:</td><td><div>178.62.64.106</div></td></tr><tr><td style="font-weight:bold;vertical-align:top;">PATH_INFO</td><td style="vertical-align:top;">:</td><td><div>/test/control/fstring</div></td></tr><tr><td style="font-weight:bold;vertical-align:top;">QUERY_STRING</td><td style="vertical-align:top;">:</td><td><div></div></td></tr><tr><td style="font-weight:bold;vertical-align:top;">REMOTE_ADDR</td><td style="vertical-align:top;">:</td><td><div>10.0.0.14</div></td></tr><tr><td style="font-weight:bold;vertical-align:top;">REMOTE_PORT</td><td style="vertical-align:top;">:</td><td><div>45794</div></td></tr><tr><td style="font-weight:bold;vertical-align:top;">REQUEST_METHOD</td><td style="vertical-align:top;">:</td><td><div>GET</div></td></tr><tr><td style="font-weight:bold;vertical-align:top;">REQUEST_URI</td><td style="vertical-align:top;">:</td><td><div>/test/control/fstring</div></td></tr><tr><td style="font-weight:bold;vertical-align:top;">SCRIPT_NAME</td><td style="vertical-align:top;">:</td><td><div></div></td></tr><tr><td style="font-weight:bold;vertical-align:top;">SERVER_NAME</td><td style="vertical-align:top;">:</td><td><div>concordance.pythonanywhere.com</div></td></tr><tr><td style="font-weight:bold;vertical-align:top;">SERVER_PORT</td><td style="vertical-align:top;">:</td><td><div>443</div></td></tr><tr><td style="font-weight:bold;vertical-align:top;">SERVER_PROTOCOL</td><td style="vertical-align:top;">:</td><td><div>HTTP/1.1</div></td></tr><tr><td style="font-weight:bold;vertical-align:top;">app_folders</td><td style="vertical-align:top;">:</td><td><div>set([&#x27;/home/concordance/web2py/applications/admin/&#x27;, &#x27;/home/concordance/web2py/applications/test/&#x27;])</div></td></tr><tr><td style="font-weight:bold;vertical-align:top;">applications_parent</td><td style="vertical-align:top;">:</td><td><div>/home/concordance/web2py</div></td></tr><tr><td style="font-weight:bold;vertical-align:top;">content_length</td><td style="vertical-align:top;">:</td><td><div></div></td></tr><tr><td style="font-weight:bold;vertical-align:top;">content_type</td><td style="vertical-align:top;">:</td><td><div></div></td></tr><tr><td style="font-weight:bold;vertical-align:top;">db_sessions</td><td style="vertical-align:top;">:</td><td><div>set([])</div></td></tr><tr><td style="font-weight:bold;vertical-align:top;">debugging</td><td style="vertical-align:top;">:</td><td><div>True</div></td></tr><tr><td style="font-weight:bold;vertical-align:top;">document_root</td><td style="vertical-align:top;">:</td><td><div>/usr/local/openresty/nginx/html</div></td></tr><tr><td style="font-weight:bold;vertical-align:top;">gluon_parent</td><td style="vertical-align:top;">:</td><td><div>/home/concordance/web2py</div></td></tr><tr><td style="font-weight:bold;vertical-align:top;">http_accept</td><td style="vertical-align:top;">:</td><td><div>text/html,application/xhtml+xml,application/xml;q=0.9,image/webp,*/*;q=0.8</div></td></tr><tr><td style="font-weight:bold;vertical-align:top;">http_accept_encoding</td><td style="vertical-align:top;">:</td><td><div>gzip, deflate, sdch, br</div></td></tr><tr><td style="font-weight:bold;vertical-align:top;">http_accept_language</td><td style="vertical-align:top;">:</td><td><div>ru,en;q=0.8,en-US;q=0.6</div></td></tr><tr><td style="font-weight:bold;vertical-align:top;">http_cache_control</td><td style="vertical-align:top;">:</td><td><div>max-age=0</div></td></tr><tr><td style="font-weight:bold;vertical-align:top;">http_connection</td><td style="vertical-align:top;">:</td><td><div>close</div></td></tr><tr><td style="font-weight:bold;vertical-align:top;">http_cookie</td><td style="vertical-align:top;">:</td><td><div>__utmt=1; session_id_admin=46.101.16.229-66ba3a19-410e-462f-b6b9-57f04f1b0572; session_id_test=178.62.64.106-d25c0aa7-a824-4047-bd2a-a13e17a0cd42; __utma=134993891.2009921225.1482865438.1485385214.1485387965.40; __utmb=134993891.5.10.1485387965; __utmc=134993891; __utmz=134993891.1484355529.1.1.utmcsr=(direct)|utmccn=(direct)|utmcmd=(none); _gat=1; _ga=GA1.2.2009921225.1482865438</div></td></tr><tr><td style="font-weight:bold;vertical-align:top;">http_host</td><td style="vertical-align:top;">:</td><td><div>concordance.pythonanywhere.com</div></td></tr><tr><td style="font-weight:bold;vertical-align:top;">http_upgrade_insecure_requests</td><td style="vertical-align:top;">:</td><td><div>1</div></td></tr><tr><td style="font-weight:bold;vertical-align:top;">http_user_agent</td><td style="vertical-align:top;">:</td><td><div>Mozilla/5.0 (Windows NT 10.0; WOW64) AppleWebKit/537.36 (KHTML, like Gecko) Chrome/55.0.2883.87 Safari/537.36</div></td></tr><tr><td style="font-weight:bold;vertical-align:top;">http_x_forwarded_for</td><td style="vertical-align:top;">:</td><td><div>178.62.64.106</div></td></tr><tr><td style="font-weight:bold;vertical-align:top;">http_x_real_ip</td><td style="vertical-align:top;">:</td><td><div>178.62.64.106</div></td></tr><tr><td style="font-weight:bold;vertical-align:top;">https</td><td style="vertical-align:top;">:</td><td><div>on</div></td></tr><tr><td style="font-weight:bold;vertical-align:top;">is_jython</td><td style="vertical-align:top;">:</td><td><div>False</div></td></tr><tr><td style="font-weight:bold;vertical-align:top;">is_pypy</td><td style="vertical-align:top;">:</td><td><div>False</div></td></tr><tr><td style="font-weight:bold;vertical-align:top;">is_source</td><td style="vertical-align:top;">:</td><td><div>True</div></td></tr><tr><td style="font-weight:bold;vertical-align:top;">local_hosts</td><td style="vertical-align:top;">:</td><td><div><table><tr><td><div>::ffff:127.0.0.1</div></td></tr><tr><td><div>::1</div></td></tr><tr><td><div>glenn-liveweb5</div></td></tr><tr><td><div>50.19.109.98</div></td></tr><tr><td><div>localhost</div></td></tr><tr><td><div>concordance.pythonanywhere.com</div></td></tr><tr><td><div>127.0.0.1</div></td></tr></table></div></td></tr><tr><td style="font-weight:bold;vertical-align:top;">path_info</td><td style="vertical-align:top;">:</td><td><div>/test/control/fstring</div></td></tr><tr><td style="font-weight:bold;vertical-align:top;">query_string</td><td style="vertical-align:top;">:</td><td><div></div></td></tr><tr><td style="font-weight:bold;vertical-align:top;">remote_addr</td><td style="vertical-align:top;">:</td><td><div>10.0.0.14</div></td></tr><tr><td style="font-weight:bold;vertical-align:top;">remote_port</td><td style="vertical-align:top;">:</td><td><div>45794</div></td></tr><tr><td style="font-weight:bold;vertical-align:top;">request_method</td><td style="vertical-align:top;">:</td><td><div>GET</div></td></tr><tr><td style="font-weight:bold;vertical-align:top;">request_uri</td><td style="vertical-align:top;">:</td><td><div>/test/control/fstring</div></td></tr><tr><td style="font-weight:bold;vertical-align:top;">script_name</td><td style="vertical-align:top;">:</td><td><div></div></td></tr><tr><td style="font-weight:bold;vertical-align:top;">server_name</td><td style="vertical-align:top;">:</td><td><div>concordance.pythonanywhere.com</div></td></tr><tr><td style="font-weight:bold;vertical-align:top;">server_port</td><td style="vertical-align:top;">:</td><td><div>443</div></td></tr><tr><td style="font-weight:bold;vertical-align:top;">server_protocol</td><td style="vertical-align:top;">:</td><td><div>HTTP/1.1</div></td></tr><tr><td style="font-weight:bold;vertical-align:top;">uwsgi.node</td><td style="vertical-align:top;">:</td><td><div>glenn-liveweb5</div></td></tr><tr><td style="font-weight:bold;vertical-align:top;">uwsgi.version</td><td style="vertical-align:top;">:</td><td><div>2.0.5.1</div></td></tr><tr><td style="font-weight:bold;vertical-align:top;">uwsgi_node</td><td style="vertical-align:top;">:</td><td><div>glenn-liveweb5</div></td></tr><tr><td style="font-weight:bold;vertical-align:top;">uwsgi_version</td><td style="vertical-align:top;">:</td><td><div>2.0.5.1</div></td></tr><tr><td style="font-weight:bold;vertical-align:top;">web2py_original_uri</td><td style="vertical-align:top;">:</td><td><div>/test/control/fstring</div></td></tr><tr><td style="font-weight:bold;vertical-align:top;">web2py_path</td><td style="vertical-align:top;">:</td><td><div>/home/concordance/web2py</div></td></tr><tr><td style="font-weight:bold;vertical-align:top;">web2py_version</td><td style="vertical-align:top;">:</td><td><div>2.9.5-stable+timestamp.2014.03.16.02.35.39</div></td></tr><tr><td style="font-weight:bold;vertical-align:top;">wsgi.errors</td><td style="vertical-align:top;">:</td><td><div>&lt;uwsgi_file__bin_user_wsgi_wrapper.ErrorLogFile object at 0x7f3426ddd150&gt;</div></td></tr><tr><td style="font-weight:bold;vertical-align:top;">wsgi.file_wrapper</td><td style="vertical-align:top;">:</td><td><div>&lt;built-in function uwsgi_sendfile&gt;</div></td></tr><tr><td style="font-weight:bold;vertical-align:top;">wsgi.input</td><td style="vertical-align:top;">:</td><td><div>&lt;uwsgi._Input object at 0x7f34001d7048&gt;</div></td></tr><tr><td style="font-weight:bold;vertical-align:top;">wsgi.multiprocess</td><td style="vertical-align:top;">:</td><td><div>True</div></td></tr><tr><td style="font-weight:bold;vertical-align:top;">wsgi.multithread</td><td style="vertical-align:top;">:</td><td><div>False</div></td></tr><tr><td style="font-weight:bold;vertical-align:top;">wsgi.run_once</td><td style="vertical-align:top;">:</td><td><div>False</div></td></tr><tr><td style="font-weight:bold;vertical-align:top;">wsgi.url_scheme</td><td style="vertical-align:top;">:</td><td><div>https</div></td></tr><tr><td style="font-weight:bold;vertical-align:top;">wsgi.version</td><td style="vertical-align:top;">:</td><td><div><table><tr><td><div>1</div></td></tr><tr><td><div>0</div></td></tr></table></div></td></tr><tr><td style="font-weight:bold;vertical-align:top;">wsgi_errors</td><td style="vertical-align:top;">:</td><td><div>&lt;uwsgi_file__bin_user_wsgi_wrapper.ErrorLogFile object at 0x7f3426ddd150&gt;</div></td></tr><tr><td style="font-weight:bold;vertical-align:top;">wsgi_file_wrapper</td><td style="vertical-align:top;">:</td><td><div>&lt;built-in function uwsgi_sendfile&gt;</div></td></tr><tr><td style="font-weight:bold;vertical-align:top;">wsgi_input</td><td style="vertical-align:top;">:</td><td><div>&lt;uwsgi._Input object at 0x7f34001d7048&gt;</div></td></tr><tr><td style="font-weight:bold;vertical-align:top;">wsgi_multiprocess</td><td style="vertical-align:top;">:</td><td><div>True</div></td></tr><tr><td style="font-weight:bold;vertical-align:top;">wsgi_multithread</td><td style="vertical-align:top;">:</td><td><div>False</div></td></tr><tr><td style="font-weight:bold;vertical-align:top;">wsgi_run_once</td><td style="vertical-align:top;">:</td><td><div>False</div></td></tr><tr><td style="font-weight:bold;vertical-align:top;">wsgi_url_scheme</td><td style="vertical-align:top;">:</td><td><div>https</div></td></tr><tr><td style="font-weight:bold;vertical-align:top;">wsgi_version</td><td style="vertical-align:top;">:</td><td><div><table><tr><td><div>1</div></td></tr><tr><td><div>0</div></td></tr></table></div></td></tr></table></div></td></tr><tr><td style="font-weight:bold;vertical-align:top;">extension</td><td style="vertical-align:top;">:</td><td><div>html</div></td></tr><tr><td style="font-weight:bold;vertical-align:top;">folder</td><td style="vertical-align:top;">:</td><td><div>/home/concordance/web2py/applications/test/</div></td></tr><tr><td style="font-weight:bold;vertical-align:top;">function</td><td style="vertical-align:top;">:</td><td><div>fstring</div></td></tr><tr><td style="font-weight:bold;vertical-align:top;">global_settings</td><td style="vertical-align:top;">:</td><td><div><table><tr><td style="font-weight:bold;vertical-align:top;">app_folders</td><td style="vertical-align:top;">:</td><td><div>set([&#x27;/home/concordance/web2py/applications/admin/&#x27;, &#x27;/home/concordance/web2py/applications/test/&#x27;])</div></td></tr><tr><td style="font-weight:bold;vertical-align:top;">applications_parent</td><td style="vertical-align:top;">:</td><td><div>/home/concordance/web2py</div></td></tr><tr><td style="font-weight:bold;vertical-align:top;">db_sessions</td><td style="vertical-align:top;">:</td><td><div>set([])</div></td></tr><tr><td style="font-weight:bold;vertical-align:top;">debugging</td><td style="vertical-align:top;">:</td><td><div>True</div></td></tr><tr><td style="font-weight:bold;vertical-align:top;">gluon_parent</td><td style="vertical-align:top;">:</td><td><div>/home/concordance/web2py</div></td></tr><tr><td style="font-weight:bold;vertical-align:top;">is_jython</td><td style="vertical-align:top;">:</td><td><div>False</div></td></tr><tr><td style="font-weight:bold;vertical-align:top;">is_pypy</td><td style="vertical-align:top;">:</td><td><div>False</div></td></tr><tr><td style="font-weight:bold;vertical-align:top;">is_source</td><td style="vertical-align:top;">:</td><td><div>True</div></td></tr><tr><td style="font-weight:bold;vertical-align:top;">local_hosts</td><td style="vertical-align:top;">:</td><td><div><table><tr><td><div>::ffff:127.0.0.1</div></td></tr><tr><td><div>::1</div></td></tr><tr><td><div>glenn-liveweb5</div></td></tr><tr><td><div>50.19.109.98</div></td></tr><tr><td><div>localhost</div></td></tr><tr><td><div>concordance.pythonanywhere.com</div></td></tr><tr><td><div>127.0.0.1</div></td></tr></table></div></td></tr><tr><td style="font-weight:bold;vertical-align:top;">web2py_version</td><td style="vertical-align:top;">:</td><td><div>2.9.5-stable+timestamp.2014.03.16.02.35.39</div></td></tr></table></div></td></tr><tr><td style="font-weight:bold;vertical-align:top;">is_https</td><td style="vertical-align:top;">:</td><td><div>True</div></td></tr><tr><td style="font-weight:bold;vertical-align:top;">is_local</td><td style="vertical-align:top;">:</td><td><div>False</div></td></tr><tr><td style="font-weight:bold;vertical-align:top;">is_restful</td><td style="vertical-align:top;">:</td><td><div>False</div></td></tr><tr><td style="font-weight:bold;vertical-align:top;">now</td><td style="vertical-align:top;">:</td><td><div>datetime.datetime(2017, 1, 26, 0, 6, 42, 906388)</div></td></tr><tr><td style="font-weight:bold;vertical-align:top;">raw_args</td><td style="vertical-align:top;">:</td><td><div></div></td></tr><tr><td style="font-weight:bold;vertical-align:top;">raw_extension</td><td style="vertical-align:top;">:</td><td><div>None</div></td></tr><tr><td style="font-weight:bold;vertical-align:top;">url</td><td style="vertical-align:top;">:</td><td><div>/test/control/fstring</div></td></tr><tr><td style="font-weight:bold;vertical-align:top;">utcnow</td><td style="vertical-align:top;">:</td><td><div>datetime.datetime(2017, 1, 26, 0, 6, 42, 906406)</div></td></tr><tr><td style="font-weight:bold;vertical-align:top;">uuid</td><td style="vertical-align:top;">:</td><td><div>test/178.62.64.106.2017-01-26.00-06-42.6fe3a583-b131-409d-9e7b-34d388ebd8c3</div></td></tr><tr><td style="font-weight:bold;vertical-align:top;">wsgi</td><td style="vertical-align:top;">:</td><td><div>&lt;gluon.main.LazyWSGI object at 0x7f34026306d0&gt;</div></td></tr></table></div>'
tRp58
sS'frames'
p59
(lp60
(dp61
S'file'
p62
S'/home/concordance/web2py/gluon/restricted.py'
p63
sS'dump'
p64
(dp65
S'environment'
p66
S"{'A': <class 'gluon.html.A'>, 'ANY_OF': <class 'gluon.validators.ANY_OF'>, 'Auth': <class 'gluon.tools.Auth'>, 'B': <class 'gluon.html.B'>, 'BEAUTIFY': <class 'gluon.html.BEAUTIFY'>, 'BODY': <class 'gluon.html.BODY'>, 'BR': <class 'gluon.html.BR'>, 'BUTTON': <class 'gluon.html.BUTTON'>, 'CAT': <class 'gluon.html.CAT'>, 'CENTER': <class 'gluon.html.CENTER'>, ...}"
p67
sS'ccode'
p68
S'<code object <module> at 0x7f3402272730, file "/...pplications/test/controllers/control.py", line 2>'
p69
ssS'lnum'
p70
I220
sS'lines'
p71
(dp72
I224
S'        # do not encapsulate (obfuscate) the original RestrictedError'
p73
sI215
S'    try:'
p74
sI216
S'        if isinstance(code, types.CodeType):'
p75
sI217
S'            ccode = code'
p76
sI218
S'        else:'
p77
sI219
S'            ccode = compile2(code, layer)'
p78
sI220
S'        exec ccode in environment'
p79
sI221
S'    except HTTP:'
p80
sI222
S'        raise'
p81
sI223
S'    except RestrictedError:'
p82
ssS'call'
p83
S"(code='# coding: utf8\\nimport simplejson\\nimport pymorphy...f, all\\n\\nresponse._vars=response._caller(fstring)\\n', environment={'A': <class 'gluon.html.A'>, 'ANY_OF': <class 'gluon.validators.ANY_OF'>, 'Auth': <class 'gluon.tools.Auth'>, 'B': <class 'gluon.html.B'>, 'BEAUTIFY': <class 'gluon.html.BEAUTIFY'>, 'BODY': <class 'gluon.html.BODY'>, 'BR': <class 'gluon.html.BR'>, 'BUTTON': <class 'gluon.html.BUTTON'>, 'CAT': <class 'gluon.html.CAT'>, 'CENTER': <class 'gluon.html.CENTER'>, ...}, layer='/home/concordance/web2py/applications/test/controllers/control.py')"
p84
sS'func'
p85
S'restricted'
p86
sa(dp87
g62
S'/home/concordance/web2py/applications/test/controllers/control.py'
p88
sg64
(dp89
sg70
I358
sg71
(dp90
I352
S'        t.append(content)'
p91
sI353
S"    f = '/home/concordance/deposit/poems.txt'"
p92
sI354
S"    with open(f, 'w') as ff:"
p93
sI355
S'        for all in t:'
p94
sI356
S'            print>>ff, all'
p95
sI347
S'    t = []'
p96
sI348
S'    texts = [all.filename for all in trymysql(trymysql.text1.author==request.args(0)).select()]'
p97
sI349
S'    for all in texts:'
p98
sI350
S"        f = open(all, 'rb')"
p99
sI351
S'        content = f.readlines()'
p100
ssg83
S'()'
p101
sg85
S'<module>'
p102
sa(dp103
g62
S'/home/concordance/web2py/applications/test/modules/plugin_sqleditable/editable.py'
p104
sg64
(dp105
S'r'
S'undefined'
p106
sS'func'
p107
S'<function fstring>'
p108
ssg70
I394
sg71
(dp109
I389
S'        self.next = None'
p110
sI390
S''
sI391
S'    @staticmethod'
p111
sI392
S'    def init():'
p112
sI393
S'        def extract(func):'
p113
sI394
S'            r=func()'
p114
sI395
S'            if request.ajax:'
p115
sI396
S'                if isinstance(r, dict):'
p116
sI397
S'                    for v in r.values():'
p117
sI398
S'                        if isinstance(v, SQLEDITABLE):'
p118
ssg83
S'(func=<function fstring>)'
p119
sg85
S'extract'
p120
sa(dp121
g62
S'/home/concordance/web2py/applications/test/controllers/control.py'
p122
sg64
(dp123
S'texts'
p124
g106
sS'global trymysql'
p125
S'<DAL uri="mysql:******@concordance.mysql.pythonanywhere-services.com/concordance$new">'
p126
sS'trymysql.text1.id'
p127
S'<gluon.dal.Field object>'
p128
sS').select'
p129
g106
sS'trymysql.text1'
p130
S'<Table text1 (id,title,first_string,body,filenam...h_text_name,v,book,group_text,n_in_group,author)>'
p131
ssg70
I17
sg71
(dp132
I12
S'def index():'
p133
sI13
S'    texts = trymysql().select(trymysql.author.ALL, orderby=trymysql.author.family)'
p134
sI14
S'    return dict(texts=texts)'
p135
sI15
S''
sI16
S'def fstring():'
p136
sI17
S'    texts = trymysql(trymysql.text1.id>0).select().count()'
p137
sI18
S'    for all in text:'
p138
sI19
S"        if all.title.endswith('...'):"
p139
sI20
S"            all.update_record(first_string = all.title, title = '')"
p140
sI21
S'    return dict(texts=texts)'
p141
ssg83
S'()'
p142
sg85
S'fstring'
p143
sasS'pyver'
p144
S'Python 2.7.6: /usr/local/bin/uwsgi (prefix: /usr)'
p145
sS'session'
p146
g57
(S's<\x01\x00\x00<div><table><tr><td style="font-weight:bold;vertical-align:top;">last_orderby</td><td style="vertical-align:top;">:</td><td><div>None</div></td></tr><tr><td style="font-weight:bold;vertical-align:top;">last_query</td><td style="vertical-align:top;">:</td><td><div>trymysql.text1.id&gt;0</div></td></tr></table></div>'
tRp147
sS'etype'
p148
S"<type 'exceptions.AttributeError'>"
p149
sS'date'
p150
S'Thu Jan 26 00:07:00 2017'
p151
sS'response'
p152
g57
(S's\xde\x1e\x00\x00<div><table><tr><td style="font-weight:bold;vertical-align:top;">body</td><td style="vertical-align:top;">:</td><td><div>&lt;cStringIO.StringO object at 0x7f34022b4ed8&gt;</div></td></tr><tr><td style="font-weight:bold;vertical-align:top;">cookies</td><td style="vertical-align:top;">:</td><td><div><table><tr><td style="font-weight:bold;vertical-align:top;">session_id_test</td><td style="vertical-align:top;">:</td><td><div>178.62.64.106-d25c0aa7-a824-4047-bd2a-a13e17a0cd42<table><tr><td style="font-weight:bold;vertical-align:top;">comment</td><td style="vertical-align:top;">:</td><td><div></div></td></tr><tr><td style="font-weight:bold;vertical-align:top;">domain</td><td style="vertical-align:top;">:</td><td><div></div></td></tr><tr><td style="font-weight:bold;vertical-align:top;">expires</td><td style="vertical-align:top;">:</td><td><div></div></td></tr><tr><td style="font-weight:bold;vertical-align:top;">httponly</td><td style="vertical-align:top;">:</td><td><div></div></td></tr><tr><td style="font-weight:bold;vertical-align:top;">max-age</td><td style="vertical-align:top;">:</td><td><div></div></td></tr><tr><td style="font-weight:bold;vertical-align:top;">path</td><td style="vertical-align:top;">:</td><td><div>/</div></td></tr><tr><td style="font-weight:bold;vertical-align:top;">secure</td><td style="vertical-align:top;">:</td><td><div></div></td></tr><tr><td style="font-weight:bold;vertical-align:top;">version</td><td style="vertical-align:top;">:</td><td><div></div></td></tr></table></div></td></tr></table></div></td></tr><tr><td style="font-weight:bold;vertical-align:top;">delimiters</td><td style="vertical-align:top;">:</td><td><div><table><tr><td><div>{{</div></td></tr><tr><td><div>}}</div></td></tr></table></div></td></tr><tr><td style="font-weight:bold;vertical-align:top;">files</td><td style="vertical-align:top;">:</td><td><div><table><tr><td><div>/test/static/plugin_sqleditable/js/mindmup-editabletable.js</div></td></tr></table></div></td></tr><tr><td style="font-weight:bold;vertical-align:top;">flash</td><td style="vertical-align:top;">:</td><td><div></div></td></tr><tr><td style="font-weight:bold;vertical-align:top;">generic_patterns</td><td style="vertical-align:top;">:</td><td><div><table></table></div></td></tr><tr><td style="font-weight:bold;vertical-align:top;">google_analytics_id</td><td style="vertical-align:top;">:</td><td><div>UA-52567545-1</div></td></tr><tr><td style="font-weight:bold;vertical-align:top;">headers</td><td style="vertical-align:top;">:</td><td><div><table><tr><td style="font-weight:bold;vertical-align:top;">X-Powered-By</td><td style="vertical-align:top;">:</td><td><div>web2py</div></td></tr></table></div></td></tr><tr><td style="font-weight:bold;vertical-align:top;">logo</td><td style="vertical-align:top;">:</td><td><div><a class="brand" href="http://concordances.ru"><b>concor<span>dances</span></b>.ru</a></div></td></tr><tr><td style="font-weight:bold;vertical-align:top;">menu</td><td style="vertical-align:top;">:</td><td><div><table><tr><td><div><table><tr><td><div>Home</div></td></tr><tr><td><div>False</div></td></tr><tr><td><div>/test/default/index</div></td></tr><tr><td><div><table></table></div></td></tr></table></div></td></tr><tr><td><div><table><tr><td><div><span class="highlighted">web2py</span></div></td></tr><tr><td><div>False</div></td></tr><tr><td><div>http://concordances.ru</div></td></tr><tr><td><div><table><tr><td><div><table><tr><td><div>\xd0\x9e \xd0\xbf\xd1\x80\xd0\xbe\xd0\xb5\xd0\xba\xd1\x82\xd0\xb5</div></td></tr><tr><td><div>False</div></td></tr><tr><td><div>/admin/default/about/test</div></td></tr></table></div></td></tr><tr><td><div><table><tr><td><div>\xd0\x90\xd0\xb4\xd0\xbc\xd0\xb8\xd0\xbd\xd0\xba\xd0\xb0</div></td></tr><tr><td><div>False</div></td></tr><tr><td><div>/admin/default/edit/test/controllers/control.py</div></td></tr></table></div></td></tr></table></div></td></tr></table></div></td></tr></table></div></td></tr><tr><td style="font-weight:bold;vertical-align:top;">meta</td><td style="vertical-align:top;">:</td><td><div><table><tr><td style="font-weight:bold;vertical-align:top;">author</td><td style="vertical-align:top;">:</td><td><div>Maria Levchenko &lt;marylevchenko@gmail.com&gt;</div></td></tr><tr><td style="font-weight:bold;vertical-align:top;">generator</td><td style="vertical-align:top;">:</td><td><div>\xd0\xa7\xd0\xb0\xd1\x81\xd1\x82\xd0\xbe\xd1\x82\xd0\xbd\xd1\x8b\xd0\xb9 \xd1\x81\xd0\xbb\xd0\xbe\xd0\xb2\xd0\xb0\xd1\x80\xd1\x8c \xd1\x80\xd1\x83\xd1\x81\xd1\x81\xd0\xba\xd0\xbe\xd0\xb9 \xd0\xbb\xd0\xb8\xd1\x82\xd0\xb5\xd1\x80\xd0\xb0\xd1\x82\xd1\x83\xd1\x80\xd1\x8b</div></td></tr><tr><td style="font-weight:bold;vertical-align:top;">keywords</td><td style="vertical-align:top;">:</td><td><div>concordance, natural language processing, critics</div></td></tr></table></div></td></tr><tr><td style="font-weight:bold;vertical-align:top;">models_to_run</td><td style="vertical-align:top;">:</td><td><div><table><tr><td><div>^\\w+\\.py$</div></td></tr><tr><td><div>^control/\\w+\\.py$</div></td></tr><tr><td><div>^control/fstring/\\w+\\.py$</div></td></tr></table></div></td></tr><tr><td style="font-weight:bold;vertical-align:top;">postprocessing</td><td style="vertical-align:top;">:</td><td><div><table></table></div></td></tr><tr><td style="font-weight:bold;vertical-align:top;">session_client</td><td style="vertical-align:top;">:</td><td><div>178.62.64.106</div></td></tr><tr><td style="font-weight:bold;vertical-align:top;">session_cookie_compression_level</td><td style="vertical-align:top;">:</td><td><div>None</div></td></tr><tr><td style="font-weight:bold;vertical-align:top;">session_cookie_expires</td><td style="vertical-align:top;">:</td><td><div>None</div></td></tr><tr><td style="font-weight:bold;vertical-align:top;">session_cookie_key</td><td style="vertical-align:top;">:</td><td><div>None</div></td></tr><tr><td style="font-weight:bold;vertical-align:top;">session_data_name</td><td style="vertical-align:top;">:</td><td><div>session_data_test</div></td></tr><tr><td style="font-weight:bold;vertical-align:top;">session_file</td><td style="vertical-align:top;">:</td><td><div>&lt;open file &#x27;/home/concordance/web2py/applications/test/sessions/178.62.64.106-d25c0aa7-a824-4047-bd2a-a13e17a0cd42&#x27;, mode &#x27;rb+&#x27; at 0x7f3402215930&gt;</div></td></tr><tr><td style="font-weight:bold;vertical-align:top;">session_filename</td><td style="vertical-align:top;">:</td><td><div>/home/concordance/web2py/applications/test/sessions/178.62.64.106-d25c0aa7-a824-4047-bd2a-a13e17a0cd42</div></td></tr><tr><td style="font-weight:bold;vertical-align:top;">session_hash</td><td style="vertical-align:top;">:</td><td><div>7509f3a068c9e1fa5dbed085a0d58c39</div></td></tr><tr><td style="font-weight:bold;vertical-align:top;">session_id</td><td style="vertical-align:top;">:</td><td><div>178.62.64.106-d25c0aa7-a824-4047-bd2a-a13e17a0cd42</div></td></tr><tr><td style="font-weight:bold;vertical-align:top;">session_id_name</td><td style="vertical-align:top;">:</td><td><div>session_id_test</div></td></tr><tr><td style="font-weight:bold;vertical-align:top;">session_locked</td><td style="vertical-align:top;">:</td><td><div>True</div></td></tr><tr><td style="font-weight:bold;vertical-align:top;">session_masterapp</td><td style="vertical-align:top;">:</td><td><div>test</div></td></tr><tr><td style="font-weight:bold;vertical-align:top;">session_new</td><td style="vertical-align:top;">:</td><td><div>False</div></td></tr><tr><td style="font-weight:bold;vertical-align:top;">session_storage_type</td><td style="vertical-align:top;">:</td><td><div>file</div></td></tr><tr><td style="font-weight:bold;vertical-align:top;">status</td><td style="vertical-align:top;">:</td><td><div>200</div></td></tr><tr><td style="font-weight:bold;vertical-align:top;">subtitle</td><td style="vertical-align:top;">:</td><td><div></div></td></tr><tr><td style="font-weight:bold;vertical-align:top;">title</td><td style="vertical-align:top;">:</td><td><div>Test</div></td></tr><tr><td style="font-weight:bold;vertical-align:top;">view</td><td style="vertical-align:top;">:</td><td><div>control/fstring.html</div></td></tr></table></div>'
tRp153
sS'locals'
p154
(dp155
ssS'traceback'
p156
S'Traceback (most recent call last):\n  File "/home/concordance/web2py/gluon/restricted.py", line 220, in restricted\n    exec ccode in environment\n  File "/home/concordance/web2py/applications/test/controllers/control.py", line 358, in <module>\n  File "applications/test/modules/plugin_sqleditable/editable.py", line 394, in extract\n    r=func()\n  File "/home/concordance/web2py/applications/test/controllers/control.py", line 17, in fstring\n    texts = trymysql(trymysql.text1.id>0).select().count()\nAttributeError: \'Rows\' object has no attribute \'count\'\n'
p157
s.