(dp1
S'output'
p2
S'<class \'_mysql_exceptions.ProgrammingError\'> (1146, "Table \'concordance$new.dataset\' doesn\'t exist")'
p3
sS'layer'
p4
S'/home/concordance/web2py/applications/test/controllers/appadmin.py'
p5
sS'code'
p6
S'# -*- coding: utf-8 -*-\n\n# ##########################################################\n# ## make sure administrator is on localhost\n# ###########################################################\n\nimport os\nimport socket\nimport datetime\nimport copy\nimport gluon.contenttype\nimport gluon.fileutils\n\ntry:\n    import pygraphviz as pgv\nexcept ImportError:\n    pgv = None\n\nis_gae = request.env.web2py_runtime_gae or False\n\n# ## critical --- make a copy of the environment\n\nglobal_env = copy.copy(globals())\nglobal_env[\'datetime\'] = datetime\n\nhttp_host = request.env.http_host.split(\':\')[0]\nremote_addr = request.env.remote_addr\ntry:\n    hosts = (http_host, socket.gethostname(),\n             socket.gethostbyname(http_host),\n             \'::1\', \'127.0.0.1\', \'::ffff:127.0.0.1\')\nexcept:\n    hosts = (http_host, )\n\nif request.env.http_x_forwarded_for or request.is_https:\n    session.secure()\nelif (remote_addr not in hosts) and (remote_addr != "127.0.0.1") and \\\n    (request.function != \'manage\'):\n    raise HTTP(200, T(\'appadmin is disabled because insecure channel\'))\n\nif request.function == \'manage\':\n    if not \'auth\' in globals() or not request.args:\n        redirect(URL(request.controller, \'index\'))\n    manager_action = auth.settings.manager_actions.get(request.args(0), None)\n    if manager_action is None and request.args(0) == \'auth\':\n        manager_action = dict(role=auth.settings.auth_manager_role,\n                              heading=T(\'Manage Access Control\'),\n                              tables=[auth.table_user(),\n                                      auth.table_group(),\n                                      auth.table_permission()])\n    manager_role = manager_action.get(\'role\', None) if manager_action else None\n    auth.requires_membership(manager_role)(lambda: None)()\n    menu = False\nelif (request.application == \'admin\' and not session.authorized) or \\\n        (request.application != \'admin\' and not gluon.fileutils.check_credentials(request)):\n    redirect(URL(\'admin\', \'default\', \'index\',\n                 vars=dict(send=URL(args=request.args, vars=request.vars))))\nelse:\n    response.subtitle = T(\'Database Administration (appadmin)\')\n    menu = True\n\nignore_rw = True\nresponse.view = \'appadmin.html\'\nif menu:\n    response.menu = [[T(\'design\'), False, URL(\'admin\', \'default\', \'design\',\n                 args=[request.application])], [T(\'db\'), False,\n                 URL(\'index\')], [T(\'state\'), False,\n                 URL(\'state\')], [T(\'cache\'), False,\n                 URL(\'ccache\')]]\n\n# ##########################################################\n# ## auxiliary functions\n# ###########################################################\n\nif False and request.tickets_db:\n    from gluon.restricted import TicketStorage\n    ts = TicketStorage()\n    ts._get_table(request.tickets_db, ts.tablename, request.application)\n\ndef get_databases(request):\n    dbs = {}\n    for (key, value) in global_env.items():\n        cond = False\n        try:\n            cond = isinstance(value, GQLDB)\n        except:\n            cond = isinstance(value, SQLDB)\n        if cond:\n            dbs[key] = value\n    return dbs\n\n\ndatabases = get_databases(None)\n\n\ndef eval_in_global_env(text):\n    exec (\'_ret=%s\' % text, {}, global_env)\n    return global_env[\'_ret\']\n\n\ndef get_database(request):\n    if request.args and request.args[0] in databases:\n        return eval_in_global_env(request.args[0])\n    else:\n        session.flash = T(\'invalid request\')\n        redirect(URL(\'index\'))\n\n\ndef get_table(request):\n    db = get_database(request)\n    if len(request.args) > 1 and request.args[1] in db.tables:\n        return (db, request.args[1])\n    else:\n        session.flash = T(\'invalid request\')\n        redirect(URL(\'index\'))\n\n\ndef get_query(request):\n    try:\n        return eval_in_global_env(request.vars.query)\n    except Exception:\n        return None\n\n\ndef query_by_table_type(tablename, db, request=request):\n    keyed = hasattr(db[tablename], \'_primarykey\')\n    if keyed:\n        firstkey = db[tablename][db[tablename]._primarykey[0]]\n        cond = \'>0\'\n        if firstkey.type in [\'string\', \'text\']:\n            cond = \'!=""\'\n        qry = \'%s.%s.%s%s\' % (\n            request.args[0], request.args[1], firstkey.name, cond)\n    else:\n        qry = \'%s.%s.id>0\' % tuple(request.args[:2])\n    return qry\n\n\n# ##########################################################\n# ## list all databases and tables\n# ###########################################################\ndef index():\n    return dict(databases=databases)\n\n\n# ##########################################################\n# ## insert a new record\n# ###########################################################\n\n\ndef insert():\n    (db, table) = get_table(request)\n    form = SQLFORM(db[table], ignore_rw=ignore_rw)\n    if form.accepts(request.vars, session):\n        response.flash = T(\'new record inserted\')\n    return dict(form=form, table=db[table])\n\n\n# ##########################################################\n# ## list all records in table and insert new record\n# ###########################################################\n\n\ndef download():\n    import os\n    db = get_database(request)\n    return response.download(request, db)\n\n\ndef csv():\n    import gluon.contenttype\n    response.headers[\'Content-Type\'] = \\\n        gluon.contenttype.contenttype(\'.csv\')\n    db = get_database(request)\n    query = get_query(request)\n    if not query:\n        return None\n    response.headers[\'Content-disposition\'] = \'attachment; filename=%s_%s.csv\'\\\n        % tuple(request.vars.query.split(\'.\')[:2])\n    return str(db(query, ignore_common_filters=True).select())\n\n\ndef import_csv(table, file):\n    table.import_from_csv_file(file)\n\n\ndef select():\n    import re\n    db = get_database(request)\n    dbname = request.args[0]\n    try:\n        is_imap = db._uri.startswith("imap://")\n    except (KeyError, AttributeError, TypeError):\n        is_imap = False\n    regex = re.compile(\'(?P<table>\\w+)\\.(?P<field>\\w+)=(?P<value>\\d+)\')\n    if len(request.args) > 1 and hasattr(db[request.args[1]], \'_primarykey\'):\n        regex = re.compile(\'(?P<table>\\w+)\\.(?P<field>\\w+)=(?P<value>.+)\')\n    if request.vars.query:\n        match = regex.match(request.vars.query)\n        if match:\n            request.vars.query = \'%s.%s.%s==%s\' % (request.args[0],\n                                                   match.group(\'table\'), match.group(\'field\'),\n                                                   match.group(\'value\'))\n    else:\n        request.vars.query = session.last_query\n    query = get_query(request)\n    if request.vars.start:\n        start = int(request.vars.start)\n    else:\n        start = 0\n    nrows = 0\n\n    step = 100\n    fields = []\n\n    if is_imap:\n        step = 3\n \n    stop = start + step\n\n    table = None\n    rows = []\n    orderby = request.vars.orderby\n    if orderby:\n        orderby = dbname + \'.\' + orderby\n        if orderby == session.last_orderby:\n            if orderby[0] == \'~\':\n                orderby = orderby[1:]\n            else:\n                orderby = \'~\' + orderby\n    session.last_orderby = orderby\n    session.last_query = request.vars.query\n    form = FORM(TABLE(TR(T(\'Query:\'), \'\', INPUT(_style=\'width:400px\',\n                _name=\'query\', _value=request.vars.query or \'\',\n                requires=IS_NOT_EMPTY(\n                    error_message=T("Cannot be empty")))), TR(T(\'Update:\'),\n                INPUT(_name=\'update_check\', _type=\'checkbox\',\n                value=False), INPUT(_style=\'width:400px\',\n                _name=\'update_fields\', _value=request.vars.update_fields\n                                    or \'\')), TR(T(\'Delete:\'), INPUT(_name=\'delete_check\',\n                _class=\'delete\', _type=\'checkbox\', value=False), \'\'),\n                TR(\'\', \'\', INPUT(_type=\'submit\', _value=T(\'submit\')))),\n                _action=URL(r=request, args=request.args))\n\n    tb = None\n    if form.accepts(request.vars, formname=None):\n        regex = re.compile(request.args[0] + \'\\.(?P<table>\\w+)\\..+\')\n        match = regex.match(form.vars.query.strip())\n        if match:\n            table = match.group(\'table\')\n        try:\n            nrows = db(query, ignore_common_filters=True).count()\n            if form.vars.update_check and form.vars.update_fields:\n                db(query, ignore_common_filters=True).update(\n                    **eval_in_global_env(\'dict(%s)\' % form.vars.update_fields))\n                response.flash = T(\'%s %%{row} updated\', nrows)\n            elif form.vars.delete_check:\n                db(query, ignore_common_filters=True).delete()\n                response.flash = T(\'%s %%{row} deleted\', nrows)\n            nrows = db(query, ignore_common_filters=True).count()\n\n            if is_imap:\n                fields = [db[table][name] for name in\n                    ("id", "uid", "created", "to",\n                     "sender", "subject")]\n            if orderby:\n                rows = db(query, ignore_common_filters=True).select(\n                              *fields, limitby=(start, stop),\n                              orderby=eval_in_global_env(orderby))\n            else:\n                rows = db(query, ignore_common_filters=True).select(\n                    *fields, limitby=(start, stop))\n        except Exception, e:\n            import traceback\n            tb = traceback.format_exc()\n            (rows, nrows) = ([], 0)\n            response.flash = DIV(T(\'Invalid Query\'), PRE(str(e)))\n    # begin handle upload csv\n    csv_table = table or request.vars.table\n    if csv_table:\n        formcsv = FORM(str(T(\'or import from csv file\')) + " ",\n                       INPUT(_type=\'file\', _name=\'csvfile\'),\n                       INPUT(_type=\'hidden\', _value=csv_table, _name=\'table\'),\n                       INPUT(_type=\'submit\', _value=T(\'import\')))\n    else:\n        formcsv = None\n    if formcsv and formcsv.process().accepted:\n        try:\n            import_csv(db[request.vars.table],\n                       request.vars.csvfile.file)\n            response.flash = T(\'data uploaded\')\n        except Exception, e:\n            response.flash = DIV(T(\'unable to parse csv file\'), PRE(str(e)))\n    # end handle upload csv\n\n    return dict(\n        form=form,\n        table=table,\n        start=start,\n        stop=stop,\n        step=step,\n        nrows=nrows,\n        rows=rows,\n        query=request.vars.query,\n        formcsv=formcsv,\n        tb=tb\n    )\n\n\n# ##########################################################\n# ## edit delete one record\n# ###########################################################\n\n\ndef update():\n    (db, table) = get_table(request)\n    keyed = hasattr(db[table], \'_primarykey\')\n    record = None\n    db[table]._common_filter = None\n    if keyed:\n        key = [f for f in request.vars if f in db[table]._primarykey]\n        if key:\n            record = db(db[table][key[0]] == request.vars[key[\n                        0]]).select().first()\n    else:\n        record = db(db[table].id == request.args(\n            2)).select().first()\n\n    if not record:\n        qry = query_by_table_type(table, db)\n        session.flash = T(\'record does not exist\')\n        redirect(URL(\'select\', args=request.args[:1],\n                     vars=dict(query=qry)))\n\n    if keyed:\n        for k in db[table]._primarykey:\n            db[table][k].writable = False\n\n    form = SQLFORM(\n        db[table], record, deletable=True, delete_label=T(\'Check to delete\'),\n        ignore_rw=ignore_rw and not keyed,\n        linkto=URL(\'select\',\n                   args=request.args[:1]), upload=URL(r=request,\n                                                      f=\'download\', args=request.args[:1]))\n\n    if form.accepts(request.vars, session):\n        session.flash = T(\'done!\')\n        qry = query_by_table_type(table, db)\n        redirect(URL(\'select\', args=request.args[:1],\n                 vars=dict(query=qry)))\n    return dict(form=form, table=db[table])\n\n\n# ##########################################################\n# ## get global variables\n# ###########################################################\n\n\ndef state():\n    return dict()\n\n\ndef ccache():\n    if is_gae:\n        form = FORM(\n            P(TAG.BUTTON(T("Clear CACHE?"), _type="submit", _name="yes", _value="yes")))\n    else:\n        cache.ram.initialize()\n        cache.disk.initialize()\n\n        form = FORM(\n            P(TAG.BUTTON(\n                T("Clear CACHE?"), _type="submit", _name="yes", _value="yes")),\n            P(TAG.BUTTON(\n                T("Clear RAM"), _type="submit", _name="ram", _value="ram")),\n            P(TAG.BUTTON(\n                T("Clear DISK"), _type="submit", _name="disk", _value="disk")),\n        )\n\n    if form.accepts(request.vars, session):\n        session.flash = ""\n        if is_gae:\n            if request.vars.yes:\n                cache.ram.clear()\n                session.flash += T("Cache Cleared")\n        else:\n            clear_ram = False\n            clear_disk = False\n            if request.vars.yes:\n                clear_ram = clear_disk = True\n            if request.vars.ram:\n                clear_ram = True\n            if request.vars.disk:\n                clear_disk = True\n            if clear_ram:\n                cache.ram.clear()\n                session.flash += T("Ram Cleared")\n            if clear_disk:\n                cache.disk.clear()\n                session.flash += T("Disk Cleared")\n        redirect(URL(r=request))\n\n    try:\n        from guppy import hpy\n        hp = hpy()\n    except ImportError:\n        hp = False\n\n    import shelve\n    import os\n    import copy\n    import time\n    import math\n    from gluon import portalocker\n\n    ram = {\n        \'entries\': 0,\n        \'bytes\': 0,\n        \'objects\': 0,\n        \'hits\': 0,\n        \'misses\': 0,\n        \'ratio\': 0,\n        \'oldest\': time.time(),\n        \'keys\': []\n    }\n\n    disk = copy.copy(ram)\n    total = copy.copy(ram)\n    disk[\'keys\'] = []\n    total[\'keys\'] = []\n\n    def GetInHMS(seconds):\n        hours = math.floor(seconds / 3600)\n        seconds -= hours * 3600\n        minutes = math.floor(seconds / 60)\n        seconds -= minutes * 60\n        seconds = math.floor(seconds)\n\n        return (hours, minutes, seconds)\n\n    if is_gae:\n        gae_stats = cache.ram.client.get_stats()\n        try:\n            gae_stats[\'ratio\'] = ((gae_stats[\'hits\'] * 100) /\n                (gae_stats[\'hits\'] + gae_stats[\'misses\']))\n        except ZeroDivisionError:\n            gae_stats[\'ratio\'] = T("?")\n        gae_stats[\'oldest\'] = GetInHMS(time.time() - gae_stats[\'oldest_item_age\'])\n        total.update(gae_stats)\n    else:\n        for key, value in cache.ram.storage.iteritems():\n            if isinstance(value, dict):\n                ram[\'hits\'] = value[\'hit_total\'] - value[\'misses\']\n                ram[\'misses\'] = value[\'misses\']\n                try:\n                    ram[\'ratio\'] = ram[\'hits\'] * 100 / value[\'hit_total\']\n                except (KeyError, ZeroDivisionError):\n                    ram[\'ratio\'] = 0\n            else:\n                if hp:\n                    ram[\'bytes\'] += hp.iso(value[1]).size\n                    ram[\'objects\'] += hp.iso(value[1]).count\n                ram[\'entries\'] += 1\n                if value[0] < ram[\'oldest\']:\n                    ram[\'oldest\'] = value[0]\n                ram[\'keys\'].append((key, GetInHMS(time.time() - value[0])))\n        folder = os.path.join(request.folder,\'cache\')\n        if not os.path.exists(folder):\n            os.mkdir(folder)\n        locker = open(os.path.join(folder, \'cache.lock\'), \'a\')\n        portalocker.lock(locker, portalocker.LOCK_EX)\n        disk_storage = shelve.open(\n            os.path.join(folder, \'cache.shelve\'))\n        try:\n            for key, value in disk_storage.items():\n                if isinstance(value, dict):\n                    disk[\'hits\'] = value[\'hit_total\'] - value[\'misses\']\n                    disk[\'misses\'] = value[\'misses\']\n                    try:\n                        disk[\'ratio\'] = disk[\'hits\'] * 100 / value[\'hit_total\']\n                    except (KeyError, ZeroDivisionError):\n                        disk[\'ratio\'] = 0\n                else:\n                    if hp:\n                        disk[\'bytes\'] += hp.iso(value[1]).size\n                        disk[\'objects\'] += hp.iso(value[1]).count\n                    disk[\'entries\'] += 1\n                    if value[0] < disk[\'oldest\']:\n                        disk[\'oldest\'] = value[0]\n                    disk[\'keys\'].append((key, GetInHMS(time.time() - value[0])))\n        finally:\n            portalocker.unlock(locker)\n            locker.close()\n            disk_storage.close()\n\n        total[\'entries\'] = ram[\'entries\'] + disk[\'entries\']\n        total[\'bytes\'] = ram[\'bytes\'] + disk[\'bytes\']\n        total[\'objects\'] = ram[\'objects\'] + disk[\'objects\']\n        total[\'hits\'] = ram[\'hits\'] + disk[\'hits\']\n        total[\'misses\'] = ram[\'misses\'] + disk[\'misses\']\n        total[\'keys\'] = ram[\'keys\'] + disk[\'keys\']\n        try:\n            total[\'ratio\'] = total[\'hits\'] * 100 / (total[\'hits\'] +\n                                                total[\'misses\'])\n        except (KeyError, ZeroDivisionError):\n            total[\'ratio\'] = 0\n\n        if disk[\'oldest\'] < ram[\'oldest\']:\n            total[\'oldest\'] = disk[\'oldest\']\n        else:\n            total[\'oldest\'] = ram[\'oldest\']\n\n        ram[\'oldest\'] = GetInHMS(time.time() - ram[\'oldest\'])\n        disk[\'oldest\'] = GetInHMS(time.time() - disk[\'oldest\'])\n        total[\'oldest\'] = GetInHMS(time.time() - total[\'oldest\'])\n\n    def key_table(keys):\n        return TABLE(\n            TR(TD(B(T(\'Key\'))), TD(B(T(\'Time in Cache (h:m:s)\')))),\n            *[TR(TD(k[0]), TD(\'%02d:%02d:%02d\' % k[1])) for k in keys],\n            **dict(_class=\'cache-keys\',\n                   _style="border-collapse: separate; border-spacing: .5em;"))\n\n    if not is_gae:\n        ram[\'keys\'] = key_table(ram[\'keys\'])\n        disk[\'keys\'] = key_table(disk[\'keys\'])\n        total[\'keys\'] = key_table(total[\'keys\'])\n\n    return dict(form=form, total=total,\n                ram=ram, disk=disk, object_stats=hp != False)\n\n\ndef table_template(table):\n    from gluon.html import TR, TD, TABLE, TAG\n\n    def FONT(*args, **kwargs):\n        return TAG.font(*args, **kwargs)\n\n    def types(field):\n        f_type = field.type\n        if not isinstance(f_type,str):\n            return \' \'\n        elif f_type == \'string\':\n            return field.length\n        elif f_type == \'id\':\n            return B(\'pk\')\n        elif f_type.startswith(\'reference\') or \\\n                f_type.startswith(\'list:reference\'):\n            return B(\'fk\')\n        else:\n            return \' \'\n\n    # This is horribe HTML but the only one graphiz understands\n    rows = []\n    cellpadding = 4\n    color = "#000000"\n    bgcolor = "#FFFFFF"\n    face = "Helvetica"\n    face_bold = "Helvetica Bold"\n    border = 0\n\n    rows.append(TR(TD(FONT(table, _face=face_bold, _color=bgcolor),\n                           _colspan=3, _cellpadding=cellpadding,\n                           _align="center", _bgcolor=color)))\n    for row in db[table]:\n        rows.append(TR(TD(FONT(row.name, _color=color, _face=face_bold),\n                              _align="left", _cellpadding=cellpadding,\n                              _border=border),\n                       TD(FONT(row.type, _color=color, _face=face),\n                               _align="left", _cellpadding=cellpadding,\n                               _border=border),\n                       TD(FONT(types(row), _color=color, _face=face),\n                               _align="center", _cellpadding=cellpadding,\n                               _border=border)))\n    return "< %s >" % TABLE(*rows, **dict(_bgcolor=bgcolor, _border=1,\n                                          _cellborder=0, _cellspacing=0)\n                             ).xml()\n\n\ndef bg_graph_model():\n    graph = pgv.AGraph(layout=\'dot\',  directed=True,  strict=False,  rankdir=\'LR\')\n\n    subgraphs = dict()\n    for tablename in db.tables:\n        if hasattr(db[tablename],\'_meta_graphmodel\'):\n            meta_graphmodel = db[tablename]._meta_graphmodel\n        else:\n            meta_graphmodel = dict(group=\'Undefined\', color=\'#ECECEC\')\n\n        group = meta_graphmodel[\'group\'].replace(\' \', \'\')\n        if not subgraphs.has_key(group):\n            subgraphs[group] = dict(meta=meta_graphmodel, tables=[])\n            subgraphs[group][\'tables\'].append(tablename)\n        else:\n            subgraphs[group][\'tables\'].append(tablename)\n\n        graph.add_node(tablename, name=tablename, shape=\'plaintext\',\n                       label=table_template(tablename))\n\n    for n, key in enumerate(subgraphs.iterkeys()):\n        graph.subgraph(nbunch=subgraphs[key][\'tables\'],\n                    name=\'cluster%d\' % n,\n                    style=\'filled\',\n                    color=subgraphs[key][\'meta\'][\'color\'],\n                    label=subgraphs[key][\'meta\'][\'group\'])\n\n    for tablename in db.tables:\n        for field in db[tablename]:\n            f_type = field.type\n            if isinstance(f_type,str) and (\n                f_type.startswith(\'reference\') or\n                f_type.startswith(\'list:reference\')):\n                referenced_table = f_type.split()[1].split(\'.\')[0]\n                n1 = graph.get_node(tablename)\n                n2 = graph.get_node(referenced_table)\n                graph.add_edge(n1, n2, color="#4C4C4C", label=\'\')\n\n    graph.layout()\n    if not request.args:\n        response.headers[\'Content-Type\'] = \'image/png\'\n        return graph.draw(format=\'png\', prog=\'dot\')\n    else:\n        response.headers[\'Content-Disposition\']=\'attachment;filename=graph.%s\'%request.args(0)\n        if request.args(0) == \'dot\':\n            return graph.string()\n        else:\n            return graph.draw(format=request.args(0), prog=\'dot\')\n\ndef graph_model():\n    return dict(databases=databases, pgv=pgv)\n\ndef manage():\n    tables = manager_action[\'tables\']\n    if isinstance(tables[0], str):\n        db = manager_action.get(\'db\', auth.db)\n        db = globals()[db] if isinstance(db, str) else db\n        tables = [db[table] for table in tables]\n    if request.args(0) == \'auth\':\n        auth.table_user()._plural = T(\'Users\')\n        auth.table_group()._plural = T(\'Roles\')\n        auth.table_membership()._plural = T(\'Memberships\')\n        auth.table_permission()._plural = T(\'Permissions\')\n    if request.extension != \'load\':\n        return dict(heading=manager_action.get(\'heading\',\n                    T(\'Manage %(action)s\') % dict(action=request.args(0).replace(\'_\', \' \').title())),\n                    tablenames=[table._tablename for table in tables],\n                    labels=[table._plural.title() for table in tables])\n\n    table = tables[request.args(1, cast=int)]\n    formname = \'%s_grid\' % table._tablename\n    linked_tables = orderby = None\n    if request.args(0) == \'auth\':\n        auth.table_group()._id.readable = \\\n        auth.table_membership()._id.readable = \\\n        auth.table_permission()._id.readable = False\n        auth.table_membership().user_id.label = T(\'User\')\n        auth.table_membership().group_id.label = T(\'Role\')\n        auth.table_permission().group_id.label = T(\'Role\')\n        auth.table_permission().name.label = T(\'Permission\')\n        if table == auth.table_user():\n            linked_tables=[auth.settings.table_membership_name]\n        elif table == auth.table_group():\n            orderby = \'role\' if not request.args(3) or \'.group_id\' not in request.args(3) else None\n        elif table == auth.table_permission():\n            orderby = \'group_id\'\n    kwargs = dict(user_signature=True, maxtextlength=1000,\n                  orderby=orderby, linked_tables=linked_tables)\n    smartgrid_args = manager_action.get(\'smartgrid_args\', {})\n    kwargs.update(**smartgrid_args.get(\'DEFAULT\', {}))\n    kwargs.update(**smartgrid_args.get(table._tablename, {}))\n    grid = SQLFORM.smartgrid(table, args=request.args[:2], formname=formname, **kwargs)\n    return grid\n\nresponse._vars=response._caller(insert)\n'
p7
sS'snapshot'
p8
(dp9
S'exception'
p10
(dp11
S'__module__'
p12
S"'_mysql_exceptions'"
p13
sS'__getslice__'
p14
S"<method-wrapper '__getslice__' of ProgrammingError object>"
p15
sS'__str__'
p16
S"<method-wrapper '__str__' of ProgrammingError object>"
p17
sS'__reduce__'
p18
S'<built-in method __reduce__ of ProgrammingError object>'
p19
sS'__dict__'
p20
S'{}'
p21
sS'__sizeof__'
p22
S'<built-in method __sizeof__ of ProgrammingError object>'
p23
sS'__weakref__'
p24
S'None'
p25
sS'__init__'
p26
S"<method-wrapper '__init__' of ProgrammingError object>"
p27
sS'__setattr__'
p28
S"<method-wrapper '__setattr__' of ProgrammingError object>"
p29
sS'__reduce_ex__'
p30
S'<built-in method __reduce_ex__ of ProgrammingError object>'
p31
sS'__new__'
p32
S'<built-in method __new__ of type object>'
p33
sS'__format__'
p34
S'<built-in method __format__ of ProgrammingError object>'
p35
sS'__class__'
p36
S"<class '_mysql_exceptions.ProgrammingError'>"
p37
sS'__doc__'
p38
S"'Exception raised for programming errors, e.g. ta...t, wrong number\\n    of parameters specified, etc.'"
p39
sS'__getitem__'
p40
S"<method-wrapper '__getitem__' of ProgrammingError object>"
p41
sS'__setstate__'
p42
S'<built-in method __setstate__ of ProgrammingError object>'
p43
sS'__getattribute__'
p44
S"<method-wrapper '__getattribute__' of ProgrammingError object>"
p45
sS'args'
p46
S'(1146, "Table \'concordance$new.dataset\' doesn\'t exist")'
p47
sS'__subclasshook__'
p48
S'<built-in method __subclasshook__ of type object>'
p49
sS'__unicode__'
p50
S'<built-in method __unicode__ of ProgrammingError object>'
p51
sS'__delattr__'
p52
S"<method-wrapper '__delattr__' of ProgrammingError object>"
p53
sS'__repr__'
p54
S"<method-wrapper '__repr__' of ProgrammingError object>"
p55
sS'__hash__'
p56
S"<method-wrapper '__hash__' of ProgrammingError object>"
p57
ssS'evalue'
p58
S'(1146, "Table \'concordance$new.dataset\' doesn\'t exist")'
p59
sS'request'
p60
cgluon.html
XML_unpickle
p61
(S'sQZ\x00\x00<div><table><tr><td style="font-weight:bold;vertical-align:top;">ajax</td><td style="vertical-align:top;">:</td><td><div>False</div></td></tr><tr><td style="font-weight:bold;vertical-align:top;">application</td><td style="vertical-align:top;">:</td><td><div>test</div></td></tr><tr><td style="font-weight:bold;vertical-align:top;">args</td><td style="vertical-align:top;">:</td><td><div><table><tr><td><div>data</div></td></tr><tr><td><div>dataset</div></td></tr></table></div></td></tr><tr><td style="font-weight:bold;vertical-align:top;">cid</td><td style="vertical-align:top;">:</td><td><div>None</div></td></tr><tr><td style="font-weight:bold;vertical-align:top;">client</td><td style="vertical-align:top;">:</td><td><div>188.166.158.244</div></td></tr><tr><td style="font-weight:bold;vertical-align:top;">controller</td><td style="vertical-align:top;">:</td><td><div>appadmin</div></td></tr><tr><td style="font-weight:bold;vertical-align:top;">cookies</td><td style="vertical-align:top;">:</td><td><div><table><tr><td style="font-weight:bold;vertical-align:top;">session_id_admin</td><td style="vertical-align:top;">:</td><td><div>178.62.89.121-cac448c2-09cd-48d5-ba41-3e90ddfe709d<table><tr><td style="font-weight:bold;vertical-align:top;">comment</td><td style="vertical-align:top;">:</td><td><div></div></td></tr><tr><td style="font-weight:bold;vertical-align:top;">domain</td><td style="vertical-align:top;">:</td><td><div></div></td></tr><tr><td style="font-weight:bold;vertical-align:top;">expires</td><td style="vertical-align:top;">:</td><td><div></div></td></tr><tr><td style="font-weight:bold;vertical-align:top;">httponly</td><td style="vertical-align:top;">:</td><td><div></div></td></tr><tr><td style="font-weight:bold;vertical-align:top;">max-age</td><td style="vertical-align:top;">:</td><td><div></div></td></tr><tr><td style="font-weight:bold;vertical-align:top;">path</td><td style="vertical-align:top;">:</td><td><div></div></td></tr><tr><td style="font-weight:bold;vertical-align:top;">secure</td><td style="vertical-align:top;">:</td><td><div></div></td></tr><tr><td style="font-weight:bold;vertical-align:top;">version</td><td style="vertical-align:top;">:</td><td><div></div></td></tr></table></div></td></tr><tr><td style="font-weight:bold;vertical-align:top;">session_id_test</td><td style="vertical-align:top;">:</td><td><div>178.62.89.121-fc8a6e46-d0da-44db-959c-a1fb89698afd<table><tr><td style="font-weight:bold;vertical-align:top;">comment</td><td style="vertical-align:top;">:</td><td><div></div></td></tr><tr><td style="font-weight:bold;vertical-align:top;">domain</td><td style="vertical-align:top;">:</td><td><div></div></td></tr><tr><td style="font-weight:bold;vertical-align:top;">expires</td><td style="vertical-align:top;">:</td><td><div></div></td></tr><tr><td style="font-weight:bold;vertical-align:top;">httponly</td><td style="vertical-align:top;">:</td><td><div></div></td></tr><tr><td style="font-weight:bold;vertical-align:top;">max-age</td><td style="vertical-align:top;">:</td><td><div></div></td></tr><tr><td style="font-weight:bold;vertical-align:top;">path</td><td style="vertical-align:top;">:</td><td><div></div></td></tr><tr><td style="font-weight:bold;vertical-align:top;">secure</td><td style="vertical-align:top;">:</td><td><div></div></td></tr><tr><td style="font-weight:bold;vertical-align:top;">version</td><td style="vertical-align:top;">:</td><td><div></div></td></tr></table></div></td></tr></table></div></td></tr><tr><td style="font-weight:bold;vertical-align:top;">env</td><td style="vertical-align:top;">:</td><td><div><table><tr><td style="font-weight:bold;vertical-align:top;">CONTENT_LENGTH</td><td style="vertical-align:top;">:</td><td><div>3690</div></td></tr><tr><td style="font-weight:bold;vertical-align:top;">CONTENT_TYPE</td><td style="vertical-align:top;">:</td><td><div>multipart/form-data; boundary=----WebKitFormBoundaryYwDDlI2zEtLX4exb</div></td></tr><tr><td style="font-weight:bold;vertical-align:top;">DOCUMENT_ROOT</td><td style="vertical-align:top;">:</td><td><div>/usr/local/openresty/nginx/html</div></td></tr><tr><td style="font-weight:bold;vertical-align:top;">HTTPS</td><td style="vertical-align:top;">:</td><td><div>on</div></td></tr><tr><td style="font-weight:bold;vertical-align:top;">HTTP_ACCEPT</td><td style="vertical-align:top;">:</td><td><div>text/html,application/xhtml+xml,application/xml;q=0.9,image/webp,*/*;q=0.8</div></td></tr><tr><td style="font-weight:bold;vertical-align:top;">HTTP_ACCEPT_ENCODING</td><td style="vertical-align:top;">:</td><td><div>gzip, deflate, br</div></td></tr><tr><td style="font-weight:bold;vertical-align:top;">HTTP_ACCEPT_LANGUAGE</td><td style="vertical-align:top;">:</td><td><div>ru,en;q=0.8,en-US;q=0.6</div></td></tr><tr><td style="font-weight:bold;vertical-align:top;">HTTP_CACHE_CONTROL</td><td style="vertical-align:top;">:</td><td><div>max-age=0</div></td></tr><tr><td style="font-weight:bold;vertical-align:top;">HTTP_CONNECTION</td><td style="vertical-align:top;">:</td><td><div>close</div></td></tr><tr><td style="font-weight:bold;vertical-align:top;">HTTP_CONTENT_LENGTH</td><td style="vertical-align:top;">:</td><td><div>3690</div></td></tr><tr><td style="font-weight:bold;vertical-align:top;">HTTP_CONTENT_TYPE</td><td style="vertical-align:top;">:</td><td><div>multipart/form-data; boundary=----WebKitFormBoundaryYwDDlI2zEtLX4exb</div></td></tr><tr><td style="font-weight:bold;vertical-align:top;">HTTP_COOKIE</td><td style="vertical-align:top;">:</td><td><div>__utmt=1; _gat=1; _ga=GA1.2.2009921225.1482865438; session_id_test=178.62.89.121-fc8a6e46-d0da-44db-959c-a1fb89698afd; __utma=134993891.2009921225.1482865438.1484136985.1484141361.13; __utmb=134993891.53.10.1484141361; __utmc=134993891; __utmz=134993891.1484005687.1.1.utmcsr=(direct)|utmccn=(direct)|utmcmd=(none); session_id_admin=178.62.89.121-cac448c2-09cd-48d5-ba41-3e90ddfe709d</div></td></tr><tr><td style="font-weight:bold;vertical-align:top;">HTTP_HOST</td><td style="vertical-align:top;">:</td><td><div>concordance.pythonanywhere.com</div></td></tr><tr><td style="font-weight:bold;vertical-align:top;">HTTP_ORIGIN</td><td style="vertical-align:top;">:</td><td><div>https://concordance.pythonanywhere.com</div></td></tr><tr><td style="font-weight:bold;vertical-align:top;">HTTP_REFERER</td><td style="vertical-align:top;">:</td><td><div>https://concordance.pythonanywhere.com/test/appadmin/insert/data/dataset</div></td></tr><tr><td style="font-weight:bold;vertical-align:top;">HTTP_UPGRADE_INSECURE_REQUESTS</td><td style="vertical-align:top;">:</td><td><div>1</div></td></tr><tr><td style="font-weight:bold;vertical-align:top;">HTTP_USER_AGENT</td><td style="vertical-align:top;">:</td><td><div>Mozilla/5.0 (Windows NT 10.0; WOW64) AppleWebKit/537.36 (KHTML, like Gecko) Chrome/55.0.2883.87 Safari/537.36</div></td></tr><tr><td style="font-weight:bold;vertical-align:top;">HTTP_X_FORWARDED_FOR</td><td style="vertical-align:top;">:</td><td><div>188.166.158.244</div></td></tr><tr><td style="font-weight:bold;vertical-align:top;">HTTP_X_REAL_IP</td><td style="vertical-align:top;">:</td><td><div>188.166.158.244</div></td></tr><tr><td style="font-weight:bold;vertical-align:top;">PATH_INFO</td><td style="vertical-align:top;">:</td><td><div>/test/appadmin/insert/data/dataset</div></td></tr><tr><td style="font-weight:bold;vertical-align:top;">QUERY_STRING</td><td style="vertical-align:top;">:</td><td><div></div></td></tr><tr><td style="font-weight:bold;vertical-align:top;">REMOTE_ADDR</td><td style="vertical-align:top;">:</td><td><div>10.0.0.236</div></td></tr><tr><td style="font-weight:bold;vertical-align:top;">REMOTE_PORT</td><td style="vertical-align:top;">:</td><td><div>37076</div></td></tr><tr><td style="font-weight:bold;vertical-align:top;">REQUEST_METHOD</td><td style="vertical-align:top;">:</td><td><div>POST</div></td></tr><tr><td style="font-weight:bold;vertical-align:top;">REQUEST_URI</td><td style="vertical-align:top;">:</td><td><div>/test/appadmin/insert/data/dataset</div></td></tr><tr><td style="font-weight:bold;vertical-align:top;">SCRIPT_NAME</td><td style="vertical-align:top;">:</td><td><div></div></td></tr><tr><td style="font-weight:bold;vertical-align:top;">SERVER_NAME</td><td style="vertical-align:top;">:</td><td><div>concordance.pythonanywhere.com</div></td></tr><tr><td style="font-weight:bold;vertical-align:top;">SERVER_PORT</td><td style="vertical-align:top;">:</td><td><div>443</div></td></tr><tr><td style="font-weight:bold;vertical-align:top;">SERVER_PROTOCOL</td><td style="vertical-align:top;">:</td><td><div>HTTP/1.1</div></td></tr><tr><td style="font-weight:bold;vertical-align:top;">app_folders</td><td style="vertical-align:top;">:</td><td><div>set([&#x27;/home/concordance/web2py/applications/admin/&#x27;, &#x27;/home/concordance/web2py/applications/test/&#x27;])</div></td></tr><tr><td style="font-weight:bold;vertical-align:top;">applications_parent</td><td style="vertical-align:top;">:</td><td><div>/home/concordance/web2py</div></td></tr><tr><td style="font-weight:bold;vertical-align:top;">content_length</td><td style="vertical-align:top;">:</td><td><div>3690</div></td></tr><tr><td style="font-weight:bold;vertical-align:top;">content_type</td><td style="vertical-align:top;">:</td><td><div>multipart/form-data; boundary=----WebKitFormBoundaryYwDDlI2zEtLX4exb</div></td></tr><tr><td style="font-weight:bold;vertical-align:top;">db_sessions</td><td style="vertical-align:top;">:</td><td><div>set([])</div></td></tr><tr><td style="font-weight:bold;vertical-align:top;">debugging</td><td style="vertical-align:top;">:</td><td><div>True</div></td></tr><tr><td style="font-weight:bold;vertical-align:top;">document_root</td><td style="vertical-align:top;">:</td><td><div>/usr/local/openresty/nginx/html</div></td></tr><tr><td style="font-weight:bold;vertical-align:top;">gluon_parent</td><td style="vertical-align:top;">:</td><td><div>/home/concordance/web2py</div></td></tr><tr><td style="font-weight:bold;vertical-align:top;">http_accept</td><td style="vertical-align:top;">:</td><td><div>text/html,application/xhtml+xml,application/xml;q=0.9,image/webp,*/*;q=0.8</div></td></tr><tr><td style="font-weight:bold;vertical-align:top;">http_accept_encoding</td><td style="vertical-align:top;">:</td><td><div>gzip, deflate, br</div></td></tr><tr><td style="font-weight:bold;vertical-align:top;">http_accept_language</td><td style="vertical-align:top;">:</td><td><div>ru,en;q=0.8,en-US;q=0.6</div></td></tr><tr><td style="font-weight:bold;vertical-align:top;">http_cache_control</td><td style="vertical-align:top;">:</td><td><div>max-age=0</div></td></tr><tr><td style="font-weight:bold;vertical-align:top;">http_connection</td><td style="vertical-align:top;">:</td><td><div>close</div></td></tr><tr><td style="font-weight:bold;vertical-align:top;">http_content_length</td><td style="vertical-align:top;">:</td><td><div>3690</div></td></tr><tr><td style="font-weight:bold;vertical-align:top;">http_content_type</td><td style="vertical-align:top;">:</td><td><div>multipart/form-data; boundary=----WebKitFormBoundaryYwDDlI2zEtLX4exb</div></td></tr><tr><td style="font-weight:bold;vertical-align:top;">http_cookie</td><td style="vertical-align:top;">:</td><td><div>__utmt=1; _gat=1; _ga=GA1.2.2009921225.1482865438; session_id_test=178.62.89.121-fc8a6e46-d0da-44db-959c-a1fb89698afd; __utma=134993891.2009921225.1482865438.1484136985.1484141361.13; __utmb=134993891.53.10.1484141361; __utmc=134993891; __utmz=134993891.1484005687.1.1.utmcsr=(direct)|utmccn=(direct)|utmcmd=(none); session_id_admin=178.62.89.121-cac448c2-09cd-48d5-ba41-3e90ddfe709d</div></td></tr><tr><td style="font-weight:bold;vertical-align:top;">http_host</td><td style="vertical-align:top;">:</td><td><div>concordance.pythonanywhere.com</div></td></tr><tr><td style="font-weight:bold;vertical-align:top;">http_origin</td><td style="vertical-align:top;">:</td><td><div>https://concordance.pythonanywhere.com</div></td></tr><tr><td style="font-weight:bold;vertical-align:top;">http_referer</td><td style="vertical-align:top;">:</td><td><div>https://concordance.pythonanywhere.com/test/appadmin/insert/data/dataset</div></td></tr><tr><td style="font-weight:bold;vertical-align:top;">http_upgrade_insecure_requests</td><td style="vertical-align:top;">:</td><td><div>1</div></td></tr><tr><td style="font-weight:bold;vertical-align:top;">http_user_agent</td><td style="vertical-align:top;">:</td><td><div>Mozilla/5.0 (Windows NT 10.0; WOW64) AppleWebKit/537.36 (KHTML, like Gecko) Chrome/55.0.2883.87 Safari/537.36</div></td></tr><tr><td style="font-weight:bold;vertical-align:top;">http_x_forwarded_for</td><td style="vertical-align:top;">:</td><td><div>188.166.158.244</div></td></tr><tr><td style="font-weight:bold;vertical-align:top;">http_x_real_ip</td><td style="vertical-align:top;">:</td><td><div>188.166.158.244</div></td></tr><tr><td style="font-weight:bold;vertical-align:top;">https</td><td style="vertical-align:top;">:</td><td><div>on</div></td></tr><tr><td style="font-weight:bold;vertical-align:top;">is_jython</td><td style="vertical-align:top;">:</td><td><div>False</div></td></tr><tr><td style="font-weight:bold;vertical-align:top;">is_pypy</td><td style="vertical-align:top;">:</td><td><div>False</div></td></tr><tr><td style="font-weight:bold;vertical-align:top;">is_source</td><td style="vertical-align:top;">:</td><td><div>True</div></td></tr><tr><td style="font-weight:bold;vertical-align:top;">local_hosts</td><td style="vertical-align:top;">:</td><td><div><table><tr><td><div>::ffff:127.0.0.1</div></td></tr><tr><td><div>::1</div></td></tr><tr><td><div>giles-liveweb6</div></td></tr><tr><td><div>50.19.109.98</div></td></tr><tr><td><div>127.0.0.1</div></td></tr><tr><td><div>concordance.pythonanywhere.com</div></td></tr><tr><td><div>localhost</div></td></tr></table></div></td></tr><tr><td style="font-weight:bold;vertical-align:top;">path_info</td><td style="vertical-align:top;">:</td><td><div>/test/appadmin/insert/data/dataset</div></td></tr><tr><td style="font-weight:bold;vertical-align:top;">query_string</td><td style="vertical-align:top;">:</td><td><div></div></td></tr><tr><td style="font-weight:bold;vertical-align:top;">remote_addr</td><td style="vertical-align:top;">:</td><td><div>10.0.0.236</div></td></tr><tr><td style="font-weight:bold;vertical-align:top;">remote_port</td><td style="vertical-align:top;">:</td><td><div>37076</div></td></tr><tr><td style="font-weight:bold;vertical-align:top;">request_method</td><td style="vertical-align:top;">:</td><td><div>POST</div></td></tr><tr><td style="font-weight:bold;vertical-align:top;">request_uri</td><td style="vertical-align:top;">:</td><td><div>/test/appadmin/insert/data/dataset</div></td></tr><tr><td style="font-weight:bold;vertical-align:top;">script_name</td><td style="vertical-align:top;">:</td><td><div></div></td></tr><tr><td style="font-weight:bold;vertical-align:top;">server_name</td><td style="vertical-align:top;">:</td><td><div>concordance.pythonanywhere.com</div></td></tr><tr><td style="font-weight:bold;vertical-align:top;">server_port</td><td style="vertical-align:top;">:</td><td><div>443</div></td></tr><tr><td style="font-weight:bold;vertical-align:top;">server_protocol</td><td style="vertical-align:top;">:</td><td><div>HTTP/1.1</div></td></tr><tr><td style="font-weight:bold;vertical-align:top;">uwsgi.node</td><td style="vertical-align:top;">:</td><td><div>giles-liveweb6</div></td></tr><tr><td style="font-weight:bold;vertical-align:top;">uwsgi.version</td><td style="vertical-align:top;">:</td><td><div>2.0.5.1</div></td></tr><tr><td style="font-weight:bold;vertical-align:top;">uwsgi_node</td><td style="vertical-align:top;">:</td><td><div>giles-liveweb6</div></td></tr><tr><td style="font-weight:bold;vertical-align:top;">uwsgi_version</td><td style="vertical-align:top;">:</td><td><div>2.0.5.1</div></td></tr><tr><td style="font-weight:bold;vertical-align:top;">web2py_original_uri</td><td style="vertical-align:top;">:</td><td><div>/test/appadmin/insert/data/dataset</div></td></tr><tr><td style="font-weight:bold;vertical-align:top;">web2py_path</td><td style="vertical-align:top;">:</td><td><div>/home/concordance/web2py</div></td></tr><tr><td style="font-weight:bold;vertical-align:top;">web2py_version</td><td style="vertical-align:top;">:</td><td><div>2.9.5-stable+timestamp.2014.03.16.02.35.39</div></td></tr><tr><td style="font-weight:bold;vertical-align:top;">wsgi.errors</td><td style="vertical-align:top;">:</td><td><div>&lt;uwsgi_file__bin_user_wsgi_wrapper.ErrorLogFile object at 0x7fad3d088150&gt;</div></td></tr><tr><td style="font-weight:bold;vertical-align:top;">wsgi.file_wrapper</td><td style="vertical-align:top;">:</td><td><div>&lt;built-in function uwsgi_sendfile&gt;</div></td></tr><tr><td style="font-weight:bold;vertical-align:top;">wsgi.input</td><td style="vertical-align:top;">:</td><td><div>&lt;uwsgi._Input object at 0x7fad51a4bfd8&gt;</div></td></tr><tr><td style="font-weight:bold;vertical-align:top;">wsgi.multiprocess</td><td style="vertical-align:top;">:</td><td><div>True</div></td></tr><tr><td style="font-weight:bold;vertical-align:top;">wsgi.multithread</td><td style="vertical-align:top;">:</td><td><div>False</div></td></tr><tr><td style="font-weight:bold;vertical-align:top;">wsgi.run_once</td><td style="vertical-align:top;">:</td><td><div>False</div></td></tr><tr><td style="font-weight:bold;vertical-align:top;">wsgi.url_scheme</td><td style="vertical-align:top;">:</td><td><div>https</div></td></tr><tr><td style="font-weight:bold;vertical-align:top;">wsgi.version</td><td style="vertical-align:top;">:</td><td><div><table><tr><td><div>1</div></td></tr><tr><td><div>0</div></td></tr></table></div></td></tr><tr><td style="font-weight:bold;vertical-align:top;">wsgi_errors</td><td style="vertical-align:top;">:</td><td><div>&lt;uwsgi_file__bin_user_wsgi_wrapper.ErrorLogFile object at 0x7fad3d088150&gt;</div></td></tr><tr><td style="font-weight:bold;vertical-align:top;">wsgi_file_wrapper</td><td style="vertical-align:top;">:</td><td><div>&lt;built-in function uwsgi_sendfile&gt;</div></td></tr><tr><td style="font-weight:bold;vertical-align:top;">wsgi_input</td><td style="vertical-align:top;">:</td><td><div>&lt;uwsgi._Input object at 0x7fad51a4bfd8&gt;</div></td></tr><tr><td style="font-weight:bold;vertical-align:top;">wsgi_multiprocess</td><td style="vertical-align:top;">:</td><td><div>True</div></td></tr><tr><td style="font-weight:bold;vertical-align:top;">wsgi_multithread</td><td style="vertical-align:top;">:</td><td><div>False</div></td></tr><tr><td style="font-weight:bold;vertical-align:top;">wsgi_run_once</td><td style="vertical-align:top;">:</td><td><div>False</div></td></tr><tr><td style="font-weight:bold;vertical-align:top;">wsgi_url_scheme</td><td style="vertical-align:top;">:</td><td><div>https</div></td></tr><tr><td style="font-weight:bold;vertical-align:top;">wsgi_version</td><td style="vertical-align:top;">:</td><td><div><table><tr><td><div>1</div></td></tr><tr><td><div>0</div></td></tr></table></div></td></tr></table></div></td></tr><tr><td style="font-weight:bold;vertical-align:top;">extension</td><td style="vertical-align:top;">:</td><td><div>html</div></td></tr><tr><td style="font-weight:bold;vertical-align:top;">folder</td><td style="vertical-align:top;">:</td><td><div>/home/concordance/web2py/applications/test/</div></td></tr><tr><td style="font-weight:bold;vertical-align:top;">function</td><td style="vertical-align:top;">:</td><td><div>insert</div></td></tr><tr><td style="font-weight:bold;vertical-align:top;">global_settings</td><td style="vertical-align:top;">:</td><td><div><table><tr><td style="font-weight:bold;vertical-align:top;">app_folders</td><td style="vertical-align:top;">:</td><td><div>set([&#x27;/home/concordance/web2py/applications/admin/&#x27;, &#x27;/home/concordance/web2py/applications/test/&#x27;])</div></td></tr><tr><td style="font-weight:bold;vertical-align:top;">applications_parent</td><td style="vertical-align:top;">:</td><td><div>/home/concordance/web2py</div></td></tr><tr><td style="font-weight:bold;vertical-align:top;">db_sessions</td><td style="vertical-align:top;">:</td><td><div>set([])</div></td></tr><tr><td style="font-weight:bold;vertical-align:top;">debugging</td><td style="vertical-align:top;">:</td><td><div>True</div></td></tr><tr><td style="font-weight:bold;vertical-align:top;">gluon_parent</td><td style="vertical-align:top;">:</td><td><div>/home/concordance/web2py</div></td></tr><tr><td style="font-weight:bold;vertical-align:top;">is_jython</td><td style="vertical-align:top;">:</td><td><div>False</div></td></tr><tr><td style="font-weight:bold;vertical-align:top;">is_pypy</td><td style="vertical-align:top;">:</td><td><div>False</div></td></tr><tr><td style="font-weight:bold;vertical-align:top;">is_source</td><td style="vertical-align:top;">:</td><td><div>True</div></td></tr><tr><td style="font-weight:bold;vertical-align:top;">local_hosts</td><td style="vertical-align:top;">:</td><td><div><table><tr><td><div>::ffff:127.0.0.1</div></td></tr><tr><td><div>::1</div></td></tr><tr><td><div>giles-liveweb6</div></td></tr><tr><td><div>50.19.109.98</div></td></tr><tr><td><div>127.0.0.1</div></td></tr><tr><td><div>concordance.pythonanywhere.com</div></td></tr><tr><td><div>localhost</div></td></tr></table></div></td></tr><tr><td style="font-weight:bold;vertical-align:top;">web2py_version</td><td style="vertical-align:top;">:</td><td><div>2.9.5-stable+timestamp.2014.03.16.02.35.39</div></td></tr></table></div></td></tr><tr><td style="font-weight:bold;vertical-align:top;">is_https</td><td style="vertical-align:top;">:</td><td><div>True</div></td></tr><tr><td style="font-weight:bold;vertical-align:top;">is_local</td><td style="vertical-align:top;">:</td><td><div>False</div></td></tr><tr><td style="font-weight:bold;vertical-align:top;">is_restful</td><td style="vertical-align:top;">:</td><td><div>False</div></td></tr><tr><td style="font-weight:bold;vertical-align:top;">now</td><td style="vertical-align:top;">:</td><td><div>datetime.datetime(2017, 1, 11, 14, 16, 54, 256572)</div></td></tr><tr><td style="font-weight:bold;vertical-align:top;">raw_args</td><td style="vertical-align:top;">:</td><td><div>data/dataset</div></td></tr><tr><td style="font-weight:bold;vertical-align:top;">raw_extension</td><td style="vertical-align:top;">:</td><td><div>None</div></td></tr><tr><td style="font-weight:bold;vertical-align:top;">url</td><td style="vertical-align:top;">:</td><td><div>/test/appadmin/insert/data/dataset</div></td></tr><tr><td style="font-weight:bold;vertical-align:top;">utcnow</td><td style="vertical-align:top;">:</td><td><div>datetime.datetime(2017, 1, 11, 14, 16, 54, 256591)</div></td></tr><tr><td style="font-weight:bold;vertical-align:top;">uuid</td><td style="vertical-align:top;">:</td><td><div>test/188.166.158.244.2017-01-11.14-16-54.8a2995f0-2710-4077-80b8-f79bfc3f05a2</div></td></tr><tr><td style="font-weight:bold;vertical-align:top;">wsgi</td><td style="vertical-align:top;">:</td><td><div>&lt;gluon.main.LazyWSGI object at 0x7fad365d3790&gt;</div></td></tr></table></div>'
tRp62
sS'frames'
p63
(lp64
(dp65
S'file'
p66
S'/home/concordance/web2py/gluon/restricted.py'
p67
sS'dump'
p68
(dp69
S'environment'
p70
S"{'A': <class 'gluon.html.A'>, 'ANY_OF': <class 'gluon.validators.ANY_OF'>, 'Auth': <class 'gluon.tools.Auth'>, 'B': <class 'gluon.html.B'>, 'BEAUTIFY': <class 'gluon.html.BEAUTIFY'>, 'BODY': <class 'gluon.html.BODY'>, 'BR': <class 'gluon.html.BR'>, 'BUTTON': <class 'gluon.html.BUTTON'>, 'CAT': <class 'gluon.html.CAT'>, 'CENTER': <class 'gluon.html.CENTER'>, ...}"
p71
sS'ccode'
p72
S'<code object <module> at 0x7fad36c545b0, file "/...plications/test/controllers/appadmin.py", line 7>'
p73
ssS'lnum'
p74
I220
sS'lines'
p75
(dp76
I224
S'        # do not encapsulate (obfuscate) the original RestrictedError'
p77
sI215
S'    try:'
p78
sI216
S'        if isinstance(code, types.CodeType):'
p79
sI217
S'            ccode = code'
p80
sI218
S'        else:'
p81
sI219
S'            ccode = compile2(code, layer)'
p82
sI220
S'        exec ccode in environment'
p83
sI221
S'    except HTTP:'
p84
sI222
S'        raise'
p85
sI223
S'    except RestrictedError:'
p86
ssS'call'
p87
S"(code='# -*- coding: utf-8 -*-\\n\\n# #####################...rn grid\\n\\nresponse._vars=response._caller(insert)\\n', environment={'A': <class 'gluon.html.A'>, 'ANY_OF': <class 'gluon.validators.ANY_OF'>, 'Auth': <class 'gluon.tools.Auth'>, 'B': <class 'gluon.html.B'>, 'BEAUTIFY': <class 'gluon.html.BEAUTIFY'>, 'BODY': <class 'gluon.html.BODY'>, 'BR': <class 'gluon.html.BR'>, 'BUTTON': <class 'gluon.html.BUTTON'>, 'CAT': <class 'gluon.html.CAT'>, 'CENTER': <class 'gluon.html.CENTER'>, ...}, layer='/home/concordance/web2py/applications/test/controllers/appadmin.py')"
p88
sS'func'
p89
S'restricted'
p90
sa(dp91
g66
S'/home/concordance/web2py/applications/test/controllers/appadmin.py'
p92
sg68
(dp93
sg74
I674
sg75
(dp94
I672
S'    return grid'
p95
sI663
S"            orderby = 'role' if not request.args(3) or '.group_id' not in request.args(3) else None"
p96
sI664
S'        elif table == auth.table_permission():'
p97
sI665
S"            orderby = 'group_id'"
p98
sI666
S'    kwargs = dict(user_signature=True, maxtextlength=1000,'
p99
sI667
S'                  orderby=orderby, linked_tables=linked_tables)'
p100
sI668
S"    smartgrid_args = manager_action.get('smartgrid_args', {})"
p101
sI669
S"    kwargs.update(**smartgrid_args.get('DEFAULT', {}))"
p102
sI670
S'    kwargs.update(**smartgrid_args.get(table._tablename, {}))'
p103
sI671
S'    grid = SQLFORM.smartgrid(table, args=request.args[:2], formname=formname, **kwargs)'
p104
ssg87
S'()'
p105
sg89
S'<module>'
p106
sa(dp107
g66
S'/home/concordance/web2py/gluon/globals.py'
p108
sg68
(dp109
S'self'
p110
S'undefined'
p111
sS'f'
S'<function insert>'
p112
ssg74
I385
sg75
(dp113
I384
S'        self._vars = None'
p114
sI385
S'        self._caller = lambda f: f()'
p115
sI386
S'        self._view_environment = None'
p116
sI387
S'        self._custom_commit = None'
p117
sI388
S'        self._custom_rollback = None'
p118
sI389
S''
sI380
S'        self.menu = []             # used by the default view layout'
p119
sI381
S'        self.files = []            # used by web2py_ajax.html'
p120
sI382
S'        self.generic_patterns = []  # patterns to allow generic views'
p121
sI383
S"        self.delimiters = ('{{', '}}')"
p122
ssg87
S'(f=<function insert>)'
p123
sg89
S'<lambda>'
p124
sa(dp125
g66
S'/home/concordance/web2py/applications/test/controllers/appadmin.py'
p126
sg68
(dp127
S'global request'
p128
S"<Storage {'_vars': <Storage {'all_verbs': '', 'a...: '/home/concordance/web2py/applications/test/'}>"
p129
sS'request.vars'
p130
S"<Storage {'all_verbs': '', 'all_prep': '', 'all_...l_prts': '', 'length_words': '', 'all_adjf': ''}>"
p131
sS'global session'
p132
S"<Storage {'last_query': 'data.dataset.id>0', '_f...a7408', '2b10e9a8-f85a-4c5c-9810-e9b01e0fec70']}>"
p133
sS'form'
p134
S'<gluon.sqlhtml.SQLFORM object>'
p135
sS'form.accepts'
p136
S'<bound method SQLFORM.accepts of <gluon.sqlhtml.SQLFORM object>>'
p137
ssg74
I154
sg75
(dp138
I149
S''
sI150
S''
sI151
S'def insert():'
p139
sI152
S'    (db, table) = get_table(request)'
p140
sI153
S'    form = SQLFORM(db[table], ignore_rw=ignore_rw)'
p141
sI154
S'    if form.accepts(request.vars, session):'
p142
sI155
S"        response.flash = T('new record inserted')"
p143
sI156
S'    return dict(form=form, table=db[table])'
p144
sI157
S''
sI158
S''
ssg87
S'()'
p145
sg89
S'insert'
p146
sa(dp147
g66
S'/home/concordance/web2py/gluon/sqlhtml.py'
p148
sg68
(dp149
S'self.vars.id'
p150
S'None'
p151
sS'fields'
p152
S"{'all_adjf': '', 'all_adjs': '', 'all_advb': '', 'all_comma': '', 'all_conj': '', 'all_exclam': '', 'all_grnd': '', 'all_infn': '', 'all_nouns': '', 'all_npro': '', ...}"
p153
sS'self'
p154
S'<gluon.sqlhtml.SQLFORM object>'
p155
sS'self.vars'
p156
S"<Storage {'all_verbs': '', 'all_prep': '', 'len_...l_prts': '', 'length_words': '', 'all_adjf': ''}>"
p157
sS'self.table.insert'
p158
S'<bound method Table.insert of <Table dataset (id...words,words_range,len_text,len_line,len_line_w)>>'
p159
sS'self.table'
p160
S'<Table dataset (id,author,book,year,alltexts,all..._words,words_range,len_text,len_line,len_line_w)>'
p161
ssg74
I1592
sg75
(dp162
I1587
S'                    self.vars.id = self.record[self.id_field_name]'
p163
sI1588
S'                    if fields:'
p164
sI1589
S'                        self.table._db(self.table._id == self.record['
p165
sI1590
S'                                       self.id_field_name]).update(**fields)'
p166
sI1591
S'                else:'
p167
sI1592
S'                    self.vars.id = self.table.insert(**fields)'
p168
sI1593
S'        self.accepted = ret'
p169
sI1594
S'        return ret'
p170
sI1595
S''
sI1596
S'    AUTOTYPES = {'
p171
ssg87
S"(self=<gluon.sqlhtml.SQLFORM object>, request_vars=<Storage {'all_verbs': '', 'all_prep': '', 'all_...l_prts': '', 'length_words': '', 'all_adjf': ''}>, session=<Storage {'last_query': 'data.dataset.id>0', '_f...a7408', '2b10e9a8-f85a-4c5c-9810-e9b01e0fec70']}>, formname='dataset/create', keepvalues=False, onvalidation=None, dbio=True, hideerror=False, detect_record_change=False, **kwargs={})"
p172
sg89
S'accepts'
p173
sa(dp174
g66
S'/home/concordance/web2py/gluon/dal.py'
p175
sg68
(dp176
S'self._listify'
p177
S'<bound method Table._listify of <Table dataset (...words,words_range,len_text,len_line,len_line_w)>>'
p178
sS'fields'
p179
S"{'all_adjf': '', 'all_adjs': '', 'all_advb': '', 'all_comma': '', 'all_conj': '', 'all_exclam': '', 'all_grnd': '', 'all_infn': '', 'all_nouns': '', 'all_npro': '', ...}"
p180
sS'self'
p181
S'<Table dataset (id,author,book,year,alltexts,all..._words,words_range,len_text,len_line,len_line_w)>'
p182
sS'ret'
p183
g111
sS'self._db._adapter'
p184
S'<gluon.dal.MySQLAdapter object>'
p185
sS'self._db._adapter.insert'
p186
S'<bound method MySQLAdapter.insert of <gluon.dal.MySQLAdapter object>>'
p187
sS'self._db'
p188
S'<DAL uri="mysql:******@concordance.mysql.pythonanywhere-services.com/concordance$new">'
p189
ssg74
I9114
sg75
(dp190
I9109
S''
sI9110
S'    def insert(self, **fields):'
p191
sI9111
S'        fields = self._defaults(fields)'
p192
sI9112
S'        self._attempt_upload(fields)'
p193
sI9113
S'        if any(f(fields) for f in self._before_insert): return 0'
p194
sI9114
S'        ret =  self._db._adapter.insert(self, self._listify(fields))'
p195
sI9115
S'        if ret and self._after_insert:'
p196
sI9116
S'            fields = Row(fields)'
p197
sI9117
S'            [f(fields,ret) for f in self._after_insert]'
p198
sI9118
S'        return ret'
p199
ssg87
S"(self=<Table dataset (id,author,book,year,alltexts,all..._words,words_range,len_text,len_line,len_line_w)>, **fields={'all_adjf': '', 'all_adjs': '', 'all_advb': '', 'all_comma': '', 'all_conj': '', 'all_exclam': '', 'all_grnd': '', 'all_infn': '', 'all_nouns': '', 'all_npro': '', ...})"
p200
sg89
g146
sa(dp201
g66
S'/home/concordance/web2py/gluon/dal.py'
p202
sg68
(dp203
S'e'
S'ProgrammingError(1146, "Table \'concordance$new.dataset\' doesn\'t exist")'
p204
ssg74
I1360
sg75
(dp205
I1355
S'            self.execute(query)'
p206
sI1356
S'        except Exception:'
p207
sI1357
S'            e = sys.exc_info()[1]'
p208
sI1358
S"            if hasattr(table,'_on_insert_error'):"
p209
sI1359
S'                return table._on_insert_error(table,fields,e)'
p210
sI1360
S'            raise e'
p211
sI1361
S"        if hasattr(table, '_primarykey'):"
p212
sI1362
S'            mydict = dict([(k[0].name, k[1]) for k in fields if k[0].name in table._primarykey])'
p213
sI1363
S'            if mydict != {}:'
p214
sI1364
S'                return mydict'
p215
ssg87
S"(self=<gluon.dal.MySQLAdapter object>, table=<Table dataset (id,author,book,year,alltexts,all..._words,words_range,len_text,len_line,len_line_w)>, fields=[(<gluon.dal.Field object>, ''), (<gluon.dal.Field object>, ''), (<gluon.dal.Field object>, ''), (<gluon.dal.Field object>, ''), (<gluon.dal.Field object>, ''), (<gluon.dal.Field object>, ''), (<gluon.dal.Field object>, ''), (<gluon.dal.Field object>, ''), (<gluon.dal.Field object>, ''), (<gluon.dal.Field object>, '1'), (<gluon.dal.Field object>, ''), (<gluon.dal.Field object>, ''), (<gluon.dal.Field object>, ''), (<gluon.dal.Field object>, ''), (<gluon.dal.Field object>, ''), (<gluon.dal.Field object>, ''), (<gluon.dal.Field object>, ''), (<gluon.dal.Field object>, ''), (<gluon.dal.Field object>, ''), (<gluon.dal.Field object>, ''), ...])"
p216
sg89
g146
sasS'pyver'
p217
S'Python 2.7.6: /usr/local/bin/uwsgi (prefix: /usr)'
p218
sS'session'
p219
g61
(S's\xbc\x01\x00\x00<div><table><tr><td style="font-weight:bold;vertical-align:top;">flash</td><td style="vertical-align:top;">:</td><td><div>None</div></td></tr><tr><td style="font-weight:bold;vertical-align:top;">last_orderby</td><td style="vertical-align:top;">:</td><td><div>None</div></td></tr><tr><td style="font-weight:bold;vertical-align:top;">last_query</td><td style="vertical-align:top;">:</td><td><div>data.dataset.id&gt;0</div></td></tr></table></div>'
tRp220
sS'etype'
p221
S"<class '_mysql_exceptions.ProgrammingError'>"
p222
sS'date'
p223
S'Wed Jan 11 14:16:54 2017'
p224
sS'response'
p225
g61
(S's\x0f\x1e\x00\x00<div><table><tr><td style="font-weight:bold;vertical-align:top;">body</td><td style="vertical-align:top;">:</td><td><div>&lt;cStringIO.StringO object at 0x7fad3d09d810&gt;</div></td></tr><tr><td style="font-weight:bold;vertical-align:top;">cookies</td><td style="vertical-align:top;">:</td><td><div><table><tr><td style="font-weight:bold;vertical-align:top;">session_id_test</td><td style="vertical-align:top;">:</td><td><div>178.62.89.121-fc8a6e46-d0da-44db-959c-a1fb89698afd<table><tr><td style="font-weight:bold;vertical-align:top;">comment</td><td style="vertical-align:top;">:</td><td><div></div></td></tr><tr><td style="font-weight:bold;vertical-align:top;">domain</td><td style="vertical-align:top;">:</td><td><div></div></td></tr><tr><td style="font-weight:bold;vertical-align:top;">expires</td><td style="vertical-align:top;">:</td><td><div></div></td></tr><tr><td style="font-weight:bold;vertical-align:top;">httponly</td><td style="vertical-align:top;">:</td><td><div></div></td></tr><tr><td style="font-weight:bold;vertical-align:top;">max-age</td><td style="vertical-align:top;">:</td><td><div></div></td></tr><tr><td style="font-weight:bold;vertical-align:top;">path</td><td style="vertical-align:top;">:</td><td><div>/</div></td></tr><tr><td style="font-weight:bold;vertical-align:top;">secure</td><td style="vertical-align:top;">:</td><td><div></div></td></tr><tr><td style="font-weight:bold;vertical-align:top;">version</td><td style="vertical-align:top;">:</td><td><div></div></td></tr></table></div></td></tr></table></div></td></tr><tr><td style="font-weight:bold;vertical-align:top;">delimiters</td><td style="vertical-align:top;">:</td><td><div><table><tr><td><div>{{</div></td></tr><tr><td><div>}}</div></td></tr></table></div></td></tr><tr><td style="font-weight:bold;vertical-align:top;">files</td><td style="vertical-align:top;">:</td><td><div><table></table></div></td></tr><tr><td style="font-weight:bold;vertical-align:top;">flash</td><td style="vertical-align:top;">:</td><td><div></div></td></tr><tr><td style="font-weight:bold;vertical-align:top;">generic_patterns</td><td style="vertical-align:top;">:</td><td><div><table></table></div></td></tr><tr><td style="font-weight:bold;vertical-align:top;">google_analytics_id</td><td style="vertical-align:top;">:</td><td><div>UA-52567545-1</div></td></tr><tr><td style="font-weight:bold;vertical-align:top;">headers</td><td style="vertical-align:top;">:</td><td><div><table><tr><td style="font-weight:bold;vertical-align:top;">X-Powered-By</td><td style="vertical-align:top;">:</td><td><div>web2py</div></td></tr></table></div></td></tr><tr><td style="font-weight:bold;vertical-align:top;">logo</td><td style="vertical-align:top;">:</td><td><div><a class="brand" href="http://concordances.ru"><b>concor<span>dances</span></b>.ru</a></div></td></tr><tr><td style="font-weight:bold;vertical-align:top;">menu</td><td style="vertical-align:top;">:</td><td><div><table><tr><td><div><table><tr><td><div>\xd0\xb4\xd0\xb8\xd0\xb7\xd0\xb0\xd0\xb9\xd0\xbd</div></td></tr><tr><td><div>False</div></td></tr><tr><td><div>/admin/default/design/test</div></td></tr></table></div></td></tr><tr><td><div><table><tr><td><div>\xd0\x91\xd0\x94</div></td></tr><tr><td><div>False</div></td></tr><tr><td><div>/test/appadmin/index</div></td></tr></table></div></td></tr><tr><td><div><table><tr><td><div>\xd1\x81\xd0\xbe\xd1\x81\xd1\x82\xd0\xbe\xd1\x8f\xd0\xbd\xd0\xb8\xd0\xb5</div></td></tr><tr><td><div>False</div></td></tr><tr><td><div>/test/appadmin/state</div></td></tr></table></div></td></tr><tr><td><div><table><tr><td><div>cache</div></td></tr><tr><td><div>False</div></td></tr><tr><td><div>/test/appadmin/ccache</div></td></tr></table></div></td></tr></table></div></td></tr><tr><td style="font-weight:bold;vertical-align:top;">meta</td><td style="vertical-align:top;">:</td><td><div><table><tr><td style="font-weight:bold;vertical-align:top;">author</td><td style="vertical-align:top;">:</td><td><div>Maria Levchenko &lt;marylevchenko@gmail.com&gt;</div></td></tr><tr><td style="font-weight:bold;vertical-align:top;">generator</td><td style="vertical-align:top;">:</td><td><div>\xd0\xa7\xd0\xb0\xd1\x81\xd1\x82\xd0\xbe\xd1\x82\xd0\xbd\xd1\x8b\xd0\xb9 \xd1\x81\xd0\xbb\xd0\xbe\xd0\xb2\xd0\xb0\xd1\x80\xd1\x8c \xd1\x80\xd1\x83\xd1\x81\xd1\x81\xd0\xba\xd0\xbe\xd0\xb9 \xd0\xbb\xd0\xb8\xd1\x82\xd0\xb5\xd1\x80\xd0\xb0\xd1\x82\xd1\x83\xd1\x80\xd1\x8b</div></td></tr><tr><td style="font-weight:bold;vertical-align:top;">keywords</td><td style="vertical-align:top;">:</td><td><div>concordance, natural language processing, critics</div></td></tr></table></div></td></tr><tr><td style="font-weight:bold;vertical-align:top;">models_to_run</td><td style="vertical-align:top;">:</td><td><div><table><tr><td><div>^\\w+\\.py$</div></td></tr><tr><td><div>^appadmin/\\w+\\.py$</div></td></tr><tr><td><div>^appadmin/insert/\\w+\\.py$</div></td></tr></table></div></td></tr><tr><td style="font-weight:bold;vertical-align:top;">postprocessing</td><td style="vertical-align:top;">:</td><td><div><table></table></div></td></tr><tr><td style="font-weight:bold;vertical-align:top;">session_client</td><td style="vertical-align:top;">:</td><td><div>188.166.158.244</div></td></tr><tr><td style="font-weight:bold;vertical-align:top;">session_cookie_compression_level</td><td style="vertical-align:top;">:</td><td><div>None</div></td></tr><tr><td style="font-weight:bold;vertical-align:top;">session_cookie_expires</td><td style="vertical-align:top;">:</td><td><div>None</div></td></tr><tr><td style="font-weight:bold;vertical-align:top;">session_cookie_key</td><td style="vertical-align:top;">:</td><td><div>None</div></td></tr><tr><td style="font-weight:bold;vertical-align:top;">session_data_name</td><td style="vertical-align:top;">:</td><td><div>session_data_test</div></td></tr><tr><td style="font-weight:bold;vertical-align:top;">session_file</td><td style="vertical-align:top;">:</td><td><div>&lt;open file &#x27;/home/concordance/web2py/applications/test/sessions/178.62.89.121-fc8a6e46-d0da-44db-959c-a1fb89698afd&#x27;, mode &#x27;rb+&#x27; at 0x7fad36ca5a50&gt;</div></td></tr><tr><td style="font-weight:bold;vertical-align:top;">session_filename</td><td style="vertical-align:top;">:</td><td><div>/home/concordance/web2py/applications/test/sessions/178.62.89.121-fc8a6e46-d0da-44db-959c-a1fb89698afd</div></td></tr><tr><td style="font-weight:bold;vertical-align:top;">session_hash</td><td style="vertical-align:top;">:</td><td><div>becc4dab333e3ffaffe44087a1f02542</div></td></tr><tr><td style="font-weight:bold;vertical-align:top;">session_id</td><td style="vertical-align:top;">:</td><td><div>178.62.89.121-fc8a6e46-d0da-44db-959c-a1fb89698afd</div></td></tr><tr><td style="font-weight:bold;vertical-align:top;">session_id_name</td><td style="vertical-align:top;">:</td><td><div>session_id_test</div></td></tr><tr><td style="font-weight:bold;vertical-align:top;">session_locked</td><td style="vertical-align:top;">:</td><td><div>True</div></td></tr><tr><td style="font-weight:bold;vertical-align:top;">session_masterapp</td><td style="vertical-align:top;">:</td><td><div>test</div></td></tr><tr><td style="font-weight:bold;vertical-align:top;">session_new</td><td style="vertical-align:top;">:</td><td><div>False</div></td></tr><tr><td style="font-weight:bold;vertical-align:top;">session_storage_type</td><td style="vertical-align:top;">:</td><td><div>file</div></td></tr><tr><td style="font-weight:bold;vertical-align:top;">status</td><td style="vertical-align:top;">:</td><td><div>200</div></td></tr><tr><td style="font-weight:bold;vertical-align:top;">subtitle</td><td style="vertical-align:top;">:</td><td><div>Database Administration (appadmin)</div></td></tr><tr><td style="font-weight:bold;vertical-align:top;">title</td><td style="vertical-align:top;">:</td><td><div>Test</div></td></tr><tr><td style="font-weight:bold;vertical-align:top;">view</td><td style="vertical-align:top;">:</td><td><div>appadmin.html</div></td></tr></table></div>'
tRp226
sS'locals'
p227
(dp228
S'fields'
p229
S"[(<gluon.dal.Field object>, ''), (<gluon.dal.Field object>, ''), (<gluon.dal.Field object>, ''), (<gluon.dal.Field object>, ''), (<gluon.dal.Field object>, ''), (<gluon.dal.Field object>, ''), (<gluon.dal.Field object>, ''), (<gluon.dal.Field object>, ''), (<gluon.dal.Field object>, ''), (<gluon.dal.Field object>, '1'), (<gluon.dal.Field object>, ''), (<gluon.dal.Field object>, ''), (<gluon.dal.Field object>, ''), (<gluon.dal.Field object>, ''), (<gluon.dal.Field object>, ''), (<gluon.dal.Field object>, ''), (<gluon.dal.Field object>, ''), (<gluon.dal.Field object>, ''), (<gluon.dal.Field object>, ''), (<gluon.dal.Field object>, ''), ...]"
p230
sS'self'
p231
S'<gluon.dal.MySQLAdapter object>'
p232
sS'e'
S'ProgrammingError(1146, "Table \'concordance$new.dataset\' doesn\'t exist")'
p233
sS'table'
p234
S'<Table dataset (id,author,book,year,alltexts,all..._words,words_range,len_text,len_line,len_line_w)>'
p235
sS'query'
p236
S'"INSERT INTO dataset(all_verbs,all_prep,all_prcl,...\'\',\'\',\'\',\'\',\'\',\'\',\'\',\'\',\'\',\'\',\'\',\'\',\'\',\'\',\'\',\'\');"'
p237
sssS'traceback'
p238
S'Traceback (most recent call last):\n  File "/home/concordance/web2py/gluon/restricted.py", line 220, in restricted\n    exec ccode in environment\n  File "/home/concordance/web2py/applications/test/controllers/appadmin.py", line 674, in <module>\n  File "/home/concordance/web2py/gluon/globals.py", line 385, in <lambda>\n    self._caller = lambda f: f()\n  File "/home/concordance/web2py/applications/test/controllers/appadmin.py", line 154, in insert\n    if form.accepts(request.vars, session):\n  File "/home/concordance/web2py/gluon/sqlhtml.py", line 1592, in accepts\n    self.vars.id = self.table.insert(**fields)\n  File "/home/concordance/web2py/gluon/dal.py", line 9114, in insert\n    ret =  self._db._adapter.insert(self, self._listify(fields))\n  File "/home/concordance/web2py/gluon/dal.py", line 1360, in insert\n    raise e\nProgrammingError: (1146, "Table \'concordance$new.dataset\' doesn\'t exist")\n'
p239
s.