(dp1
S'output'
p2
S"<type 'exceptions.UnicodeDecodeError'> 'ascii' codec can't decode byte 0xd0 in position 0: ordinal not in range(128)"
p3
sS'layer'
p4
S'/home/concordance/web2py/applications/test/controllers/concordance.py'
p5
sS'code'
p6
S'# coding: utf8\n# coding: utf8\nimport nltk\nimport pymorphy2\nfrom operator import itemgetter\nimport select\nimport gensim, logging\nfrom gensim import corpora, models, similarities\nfrom gensim.models import doc2vec\nlogging.basicConfig(format=\'%(asctime)s : %(levelname)s : %(message)s\', level=logging.INFO)\nimport pickle\n\npartos = [\'VERB\', \'NOUN\', \'ADJF\', \'ADJS\', \'INFN\', \'GRND\', \'PRTF\', \'PRTS\', \'ADVB\']\n\ndef index(): # concordance of one text\n    all_words = trymysql(trymysql.allword.title==request.args(0)).select()\n    lens=len(all_words)\n    vocab = []\n    for row in all_words:\n        w = row.word\n        q = trymysql((trymysql.allword.word==row.word)&(trymysql.allword.title==request.args(0))).select()\n        qq = round(((len(q)/float(lens))*100), 2)\n        c = [w, len(q), qq]\n        if c not in vocab:\n            vocab.append(c)\n    vocab.sort(key = itemgetter(0), reverse=False)\n    return dict(lens=lens, vocab=vocab)\n\ndef create_concordance():\n    f = open(\'/home/concordance/dictionary.txt\', \'r\')\n    words = f.readlines()\n    count=len(words)\n    return dict(words=words, count=count)\n\ndef create_number():\n    all_texts=trymysql(trymysql.allword.title<10).select()\n    concor=trymysql(trymysql.concordance.id>0).select()\n    words_concordance = [one.word for one in concor]\n    for all in all_texts:\n        if all.word in words_concordance:\n            number = trymysql(trymysql.concordance.word==all.word).select()[0]\n            number_id=number.id\n            all.update_record(concordance_number=number_id)\n        else:\n            all.update_record(concordance_number=0)\n    return dict(words=words_concordance[:10], all_texts=all_texts)\n\ndef create_vector():\n    all_texts=trymysql(trymysql.text1.id<10).select()\n    vector = []\n    for all in all_texts:\n        numbers = [all.concordance_number for all in trymysql(trymysql.allword.title==all.id).select()]\n        vector.append(numbers)\n    return dict(vector=vector)\n\nstop = [\'\xd1\x81\xd0\xb0\xd0\xbc\', \'\xd1\x82\xd0\xb0\xd0\xba\xd0\xbe\xd0\xb9\', \'\xd1\x81\xd0\xb2\xd0\xbe\xd0\xb9\', \'\xd1\x8d\xd1\x82\xd0\xbe\xd1\x82\', \'\xd0\xb4\xd1\x80\xd1\x83\xd0\xb3\xd0\xbe\xd0\xb9\', \'\xd1\x85\xd0\xbe\xd1\x80\xd0\xbe\xd1\x88\xd0\xb8\xd0\xb9\', \'\xd1\x86\xd0\xb5\xd0\xbb\xd1\x8b\xd0\xb9\', \'\xd0\xb2\xd0\xb5\xd1\x81\xd1\x8c\', \'\xd1\x82\xd0\xbe\xd1\x82\', \'\xd0\xbf\xd0\xbe\xd1\x81\xd0\xbb\xd0\xb5\xd0\xb4\xd0\xbd\xd0\xb8\xd0\xb9\', \'\xd0\xbc\xd0\xbe\xd0\xb9\', \'\xd1\x82\xd0\xb2\xd0\xbe\xd0\xb9\', \'\xd0\xbd\xd0\xb0\xd1\x88\', \'\xd1\x80\xd0\xb0\xd0\xb7\', \'\xd0\xba\xd0\xb0\xd0\xba\xd0\xbe\xd0\xb9\', \'\xd0\xbe\xd0\xb4\xd0\xb8\xd0\xbd\', \'\xd0\xbd\xd0\xbe\xd0\xb2\xd1\x8b\xd0\xb9\', \'\xd0\xbf\xd0\xbe\xd0\xbb\xd0\xbd\xd1\x8b\xd0\xb9\', \'\xd1\x82\xd1\x83\xd0\xba\', \'\xd0\xba\xd0\xb0\xd0\xb6\xd0\xb4\xd1\x8b\xd0\xb9\', \'\xd0\xb1\xd0\xbe\xd0\xbb\xd1\x8c\xd1\x88\xd0\xbe\xd0\xb9\', \'\xd0\xb2\xd1\x81\xd1\x8f\xd0\xba\xd0\xb8\xd0\xb9\', \'\xd1\x81\xd0\xb0\xd0\xbc\xd1\x8b\xd0\xb9\']\n\ndef word2vec():\n    sentences1 = []\n    for all in trymysql(trymysql.text1.id>0).select():\n        part=[\'NOUN\', \'ADJF\']\n        one = [alles.word for alles in trymysql((trymysql.allword.title==all.id)&(trymysql.allword.partos.belongs(part))).select() if alles.word not in stop]\n        sentences1.append(one)\n    model1 = gensim.models.Word2Vec(sentences1, min_count=20, window=30, size=300)\n    model1.save("/home/concordance/web2py/applications/test/uploads/models/model_from_10_win2_size300")\n    return dict(model1=model1)\n\ndef model():\n    #new_model = gensim.models.Word2Vec.load("/home/concordance/web2py/applications/test/uploads/models/a_model_from_50_win20_size300")\n    new_model = gensim.models.Word2Vec.load("/home/concordance/web2py/applications/test/uploads/models/model_from_10_win2_size300")\n    #new_model = gensim.models.Word2Vec.load(\'/home/concordance/deposit/model3\')\n    words = [\'\xd0\xb3\xd0\xbe\xd1\x80\xd0\xbe\xd0\xb4\', \'\xd0\xba\xd0\xbe\xd0\xbd\xd1\x8c\', \'\xd1\x81\xd0\xbe\xd0\xbd\', \'\xd0\xbe\xd0\xb3\xd0\xbe\xd0\xbd\xd1\x8c\', \'\xd0\xbc\xd0\xb8\xd1\x80\', \'\xd0\xbc\xd0\xbe\xd1\x80\xd0\xb5\', \'\xd0\xb4\xd0\xb5\xd0\xbd\xd1\x8c\', \'\xd0\xb4\xd0\xbe\xd0\xbc\', \'\xd0\xbd\xd0\xbe\xd1\x87\xd1\x8c\']\n    words = [all.decode(\'utf-8\') for all in words]\n    return dict(model1=new_model, words=words)\n\ndef ask_model():\n    form = SQLFORM.factory(Field(\'first\')).process()\n    if form.accepted:\n        redirect(URL(\'resp_model\', vars = form.vars))\n    return dict(form=form)\n\ndef resp_model():\n    model = gensim.models.Word2Vec.load("/home/concordance/web2py/applications/test/uploads/models/model_from_10_win2_size300")\n    words = request.vars.first.encode(\'utf-8\')\n    return dict(model=model, words=words)\n\ndef doc2vec():\n    documents = []\n    authors = [1, 2, 4, 5, 7, 8, 9, 10, 11, 12, 13, 14, 15, 16, 17, 18, 19, 20, 21]\n    titles = [all.id for all in trymysql(trymysql.text1.author.belongs(authors)).select()]\n    part=[\'ADJF\', \'NOUN\', \'VERB\']\n    for all in titles:\n        one = [alles.word for alles in trymysql((trymysql.allword.title==all)&(trymysql.allword.partos.belongs(part))).select()]\n        docs = gensim.models.doc2vec.TaggedDocument(words=one, tags=[all])\n        documents.append(docs)\n    model = gensim.models.doc2vec.Doc2Vec(documents, size=100, window=8, min_count=5, workers=4)\n    model.save("/home/concordance/web2py/applications/test/uploads/models/blok")\n#    for x in authors:\n#        newdocuments = []\n#        titles = [all.id for all in trymysql(trymysql.text1.author==x).select()]\n#        for all in titles:\n#            one = [alles.word for alles in trymysql((trymysql.allword.title==all)&(trymysql.allword.partos.belongs(part))).select()]\n#            docs = gensim.models.doc2vec.TaggedDocument(words=one, tags=[all])\n#            newdocuments.append(docs)\n#        model.train(newdocuments)\n#    model.save("/home/concordance/web2py/applications/test/uploads/models/texts")\n    c = model.docvecs.most_similar(9999)\n    docs = []\n    for all in c:\n        text = trymysql(trymysql.text1.id==all[0]).select()[0]\n        docs.append(text)\n    osn = trymysql(trymysql.text1.id==9999).select()[0]\n    return dict(documents=c, docs= docs, osn=osn)\n\ndef doc2vec_find():\n#    model = gensim.models.doc2vec.Doc2Vec.load("/home/concordance/web2py/applications/test/uploads/models/blok")\n    authors = [1, 2, 4, 5, 7, 8, 9, 10, 11, 12, 13, 14, 15, 16, 17, 18, 19, 20, 21]\n    part=[\'ADJF\', \'NOUN\', \'VERB\']\n    newdocuments = []\n    for x in authors:\n        titles = [all.id for all in trymysql(trymysql.text1.author==x).select()]\n        for all in titles:\n            one = [alles.word for alles in trymysql((trymysql.allword.title==all)&(trymysql.allword.partos.belongs(part))).select()]\n            docs = gensim.models.doc2vec.TaggedDocument(words=one, tags=[all])\n            newdocuments.append(docs)\n    model = gensim.models.doc2vec.Doc2Vec(newdocuments, size=100, window=8, min_count=5, workers=4)\n    model.save("/home/concordance/web2py/applications/test/uploads/models/texts")\n    #c = model.docvecs.most_similar(\'8098L\')\n    return dict(model=model)\n\ndef doc2vec_load():\n    model = Doc2Vec.load("/home/concordance/web2py/applications/test/uploads/models/texts")\n    c = model.docvecs.most_similar(\'8098L\')\n    return dict(c=c)\n\ndef couple_form():\n    form = SQLFORM.factory(Field(\'first\'), Field(\'second\')).process()\n    if form.accepted:\n        redirect(URL(\'couple\', vars = form.vars))\n    return dict(form=form)\n\ndef couple():\n    title = []\n    first = [all.title for all in trymysql(trymysql.allword.word==request.vars.first).select()]\n    for all in first:\n        if len(trymysql((trymysql.allword.word == request.vars.second)&(trymysql.allword.title==all)).select()) > 0:\n            title.append(all)\n    title = sorted(set(title))\n    texts = trymysql(trymysql.text1.id.belongs(title)).select()\n    return dict(title=title, one = request.vars.first, two = request.vars.second, texts=texts)\n\ndef test_gensim():\n    alles = []\n    for all in trymysql(trymysql.text1.id>0).select():\n        one=[new.word for new in trymysql((trymysql.allword.title==all.id)&(trymysql.allword.partos=="NOUN")).select()]\n        alles.append(one)\n    dictionary = gensim.corpora.Dictionary(alles)\n    corpus = [dictionary.doc2bow(alle) for alle in alles]\n    tfidf = models.TfidfModel(corpus, id2word=dictionary)\n    corpus_tfidf = tfidf[corpus]\n    #lsi = models.lsimodel.LsiModel(corpus_tfidf, id2word=dictionary, num_topics=5)\n    lda = gensim.models.ldamodel.LdaModel(corpus_tfidf, id2word=dictionary, num_topics=15, update_every=1, chunksize=10000, passes=1)\n    #topics=lsi.print_topics(15)\n    topics=lda.print_topics(20)\n    return dict(topics=topics)\n\ndef birds():\n    new_model = gensim.models.Word2Vec.load("/home/concordance/web2py/applications/test/uploads/models/model_from_10_win2_size300")\n    return dict(model1=new_model)\n\ndef zveri():\n    new_model = gensim.models.Word2Vec.load("/home/concordance/web2py/applications/test/uploads/models/model_from_10_win2_size300")\n    words = [\'\xd0\xb2\xd0\xbe\xd0\xbb\xd0\xba\', \'\xd0\xb7\xd0\xb2\xd0\xb5\xd1\x80\xd1\x8c\', \'\xd0\xba\xd0\xbe\xd0\xbd\xd1\x8c\', \'\xd0\xbb\xd0\xbe\xd1\x88\xd0\xb0\xd0\xb4\xd1\x8c\', \'\xd0\xbc\xd1\x8b\xd1\x88\xd1\x8c\', \'\xd0\xbf\xd1\x91\xd1\x81\', \'\xd1\x81\xd0\xbe\xd0\xb1\xd0\xb0\xd0\xba\xd0\xb0\']\n    words = [all.decode(\'utf-8\') for all in words]\n    return dict(model1=new_model, words=words)\n\ndef conc(): #\xd1\x81\xd0\xb0\xd0\xbc\xd1\x8b\xd0\xb5 \xd1\x83\xd0\xbf\xd0\xbe\xd1\x82\xd1\x80\xd0\xb5\xd0\xb1\xd0\xbb\xd1\x8f\xd0\xb5\xd0\xbc\xd1\x8b\xd0\xb5 \xd1\x81\xd0\xbb\xd0\xbe\xd0\xb2\xd0\xb0 (\xd0\xbe\xd1\x82 500)\n    count = trymysql.allword.id.count()\n    words = []\n    for row in trymysql(trymysql.allword.id>0).select(trymysql.allword.word, count, groupby=trymysql.allword.word):\n        if row[count] >500:\n            words.append([row.allword.word, row[count]])\n    words.sort(key = itemgetter(1), reverse=True)\n\n    return dict(words=words)\n\ndef save_words():\n    sentences1 = []\n    part=[\'NOUN\', \'ADJF\']\n    for all in trymysql(trymysql.text1.id>0).select():\n        #sentences1.append([alles.word for alles in trymysql((trymysql.allword.title==all.id)&(trymysql.allword.partos.belongs(part))).select() if alles.word not in stop])\n        words = trymysql(trymysql.allword.title==all.id).select(trymysql.allword.word)\n        l = [all.word for all in words if all.word not in stop]\n        sentences1.append(l)\n    #model1 = gensim.models.Word2Vec(sentences1, min_count=20, window=15, size=300)\n    #model1.save("/home/concordance/web2py/applications/test/uploads/models/all_model_from_20_win15_size300")\n    words = [all.word for all in trymysql((trymysql.allword.title==\'1000L\')&(trymysql.allword.partos.belongs(part))).select(trymysql.allword.word)]\n    with open(\'/home/concordance/web2py/applications/test/uploads/models/all_partos.txt\', \'wb\') as f:\n        pickle.dump(sentences1, f)\n    return dict(model1=len(sentences1), w=words)\n\nresponse._vars=response._caller(resp_model)\n'
p7
sS'snapshot'
p8
(dp9
S'exception'
p10
(dp11
S'__getslice__'
p12
S"<method-wrapper '__getslice__' of exceptions.UnicodeDecodeError object>"
p13
sS'encoding'
p14
S"'ascii'"
p15
sS'__str__'
p16
S"<method-wrapper '__str__' of exceptions.UnicodeDecodeError object>"
p17
sS'__reduce__'
p18
S'<built-in method __reduce__ of exceptions.UnicodeDecodeError object>'
p19
sS'__dict__'
p20
S'{}'
p21
sS'__sizeof__'
p22
S'<built-in method __sizeof__ of exceptions.UnicodeDecodeError object>'
p23
sS'__init__'
p24
S"<method-wrapper '__init__' of exceptions.UnicodeDecodeError object>"
p25
sS'__setattr__'
p26
S"<method-wrapper '__setattr__' of exceptions.UnicodeDecodeError object>"
p27
sS'__reduce_ex__'
p28
S'<built-in method __reduce_ex__ of exceptions.UnicodeDecodeError object>'
p29
sS'end'
p30
S'1'
sS'__new__'
p31
S'<built-in method __new__ of type object>'
p32
sS'__format__'
p33
S'<built-in method __format__ of exceptions.UnicodeDecodeError object>'
p34
sS'__class__'
p35
S"<type 'exceptions.UnicodeDecodeError'>"
p36
sS'start'
p37
S'0'
sS'__doc__'
p38
S"'Unicode decoding error.'"
p39
sS'object'
p40
S"'\\xd0\\xb4\\xd0\\xb5\\xd0\\xbd\\xd1\\x8c'"
p41
sS'__getitem__'
p42
S"<method-wrapper '__getitem__' of exceptions.UnicodeDecodeError object>"
p43
sS'__setstate__'
p44
S'<built-in method __setstate__ of exceptions.UnicodeDecodeError object>'
p45
sS'__getattribute__'
p46
S"<method-wrapper '__getattribute__' of exceptions.UnicodeDecodeError object>"
p47
sS'args'
p48
S"('ascii', '\\xd0\\xb4\\xd0\\xb5\\xd0\\xbd\\xd1\\x8c', 0, 1, 'ordinal not in range(128)')"
p49
sS'reason'
p50
S"'ordinal not in range(128)'"
p51
sS'__subclasshook__'
p52
S'<built-in method __subclasshook__ of type object>'
p53
sS'__unicode__'
p54
S'<built-in method __unicode__ of exceptions.UnicodeDecodeError object>'
p55
sS'__delattr__'
p56
S"<method-wrapper '__delattr__' of exceptions.UnicodeDecodeError object>"
p57
sS'__repr__'
p58
S"<method-wrapper '__repr__' of exceptions.UnicodeDecodeError object>"
p59
sS'__hash__'
p60
S"<method-wrapper '__hash__' of exceptions.UnicodeDecodeError object>"
p61
ssS'evalue'
p62
S"'ascii' codec can't decode byte 0xd0 in position 0: ordinal not in range(128)"
p63
sS'request'
p64
cgluon.html
XML_unpickle
p65
(S's\xcc[\x00\x00<div><table><tr><td style="font-weight:bold;vertical-align:top;">ajax</td><td style="vertical-align:top;">:</td><td><div>False</div></td></tr><tr><td style="font-weight:bold;vertical-align:top;">application</td><td style="vertical-align:top;">:</td><td><div>test</div></td></tr><tr><td style="font-weight:bold;vertical-align:top;">args</td><td style="vertical-align:top;">:</td><td><div><table></table></div></td></tr><tr><td style="font-weight:bold;vertical-align:top;">cid</td><td style="vertical-align:top;">:</td><td><div>None</div></td></tr><tr><td style="font-weight:bold;vertical-align:top;">client</td><td style="vertical-align:top;">:</td><td><div>188.166.26.63</div></td></tr><tr><td style="font-weight:bold;vertical-align:top;">controller</td><td style="vertical-align:top;">:</td><td><div>concordance</div></td></tr><tr><td style="font-weight:bold;vertical-align:top;">cookies</td><td style="vertical-align:top;">:</td><td><div><table><tr><td style="font-weight:bold;vertical-align:top;">session_id_admin</td><td style="vertical-align:top;">:</td><td><div>82.196.1.179-0e867f0f-fcc2-4602-896c-9ac7a8f9c84d<table><tr><td style="font-weight:bold;vertical-align:top;">comment</td><td style="vertical-align:top;">:</td><td><div></div></td></tr><tr><td style="font-weight:bold;vertical-align:top;">domain</td><td style="vertical-align:top;">:</td><td><div></div></td></tr><tr><td style="font-weight:bold;vertical-align:top;">expires</td><td style="vertical-align:top;">:</td><td><div></div></td></tr><tr><td style="font-weight:bold;vertical-align:top;">httponly</td><td style="vertical-align:top;">:</td><td><div></div></td></tr><tr><td style="font-weight:bold;vertical-align:top;">max-age</td><td style="vertical-align:top;">:</td><td><div></div></td></tr><tr><td style="font-weight:bold;vertical-align:top;">path</td><td style="vertical-align:top;">:</td><td><div></div></td></tr><tr><td style="font-weight:bold;vertical-align:top;">secure</td><td style="vertical-align:top;">:</td><td><div></div></td></tr><tr><td style="font-weight:bold;vertical-align:top;">version</td><td style="vertical-align:top;">:</td><td><div></div></td></tr></table></div></td></tr><tr><td style="font-weight:bold;vertical-align:top;">session_id_test</td><td style="vertical-align:top;">:</td><td><div>178.62.220.63-87e7a15e-159f-4e7e-95f7-672d81e18832<table><tr><td style="font-weight:bold;vertical-align:top;">comment</td><td style="vertical-align:top;">:</td><td><div></div></td></tr><tr><td style="font-weight:bold;vertical-align:top;">domain</td><td style="vertical-align:top;">:</td><td><div></div></td></tr><tr><td style="font-weight:bold;vertical-align:top;">expires</td><td style="vertical-align:top;">:</td><td><div></div></td></tr><tr><td style="font-weight:bold;vertical-align:top;">httponly</td><td style="vertical-align:top;">:</td><td><div></div></td></tr><tr><td style="font-weight:bold;vertical-align:top;">max-age</td><td style="vertical-align:top;">:</td><td><div></div></td></tr><tr><td style="font-weight:bold;vertical-align:top;">path</td><td style="vertical-align:top;">:</td><td><div></div></td></tr><tr><td style="font-weight:bold;vertical-align:top;">secure</td><td style="vertical-align:top;">:</td><td><div></div></td></tr><tr><td style="font-weight:bold;vertical-align:top;">version</td><td style="vertical-align:top;">:</td><td><div></div></td></tr></table></div></td></tr><tr><td style="font-weight:bold;vertical-align:top;">session_id_welcome</td><td style="vertical-align:top;">:</td><td><div>82.196.1.179-bd011b7a-7e45-4f03-86c6-186b3af19fd7<table><tr><td style="font-weight:bold;vertical-align:top;">comment</td><td style="vertical-align:top;">:</td><td><div></div></td></tr><tr><td style="font-weight:bold;vertical-align:top;">domain</td><td style="vertical-align:top;">:</td><td><div></div></td></tr><tr><td style="font-weight:bold;vertical-align:top;">expires</td><td style="vertical-align:top;">:</td><td><div></div></td></tr><tr><td style="font-weight:bold;vertical-align:top;">httponly</td><td style="vertical-align:top;">:</td><td><div></div></td></tr><tr><td style="font-weight:bold;vertical-align:top;">max-age</td><td style="vertical-align:top;">:</td><td><div></div></td></tr><tr><td style="font-weight:bold;vertical-align:top;">path</td><td style="vertical-align:top;">:</td><td><div></div></td></tr><tr><td style="font-weight:bold;vertical-align:top;">secure</td><td style="vertical-align:top;">:</td><td><div></div></td></tr><tr><td style="font-weight:bold;vertical-align:top;">version</td><td style="vertical-align:top;">:</td><td><div></div></td></tr></table></div></td></tr></table></div></td></tr><tr><td style="font-weight:bold;vertical-align:top;">env</td><td style="vertical-align:top;">:</td><td><div><table><tr><td style="font-weight:bold;vertical-align:top;">CONTENT_LENGTH</td><td style="vertical-align:top;">:</td><td><div></div></td></tr><tr><td style="font-weight:bold;vertical-align:top;">CONTENT_TYPE</td><td style="vertical-align:top;">:</td><td><div></div></td></tr><tr><td style="font-weight:bold;vertical-align:top;">DOCUMENT_ROOT</td><td style="vertical-align:top;">:</td><td><div>/usr/local/openresty/nginx/html</div></td></tr><tr><td style="font-weight:bold;vertical-align:top;">HTTPS</td><td style="vertical-align:top;">:</td><td><div>on</div></td></tr><tr><td style="font-weight:bold;vertical-align:top;">HTTP_ACCEPT</td><td style="vertical-align:top;">:</td><td><div>text/html,application/xhtml+xml,application/xml;q=0.9,image/webp,*/*;q=0.8</div></td></tr><tr><td style="font-weight:bold;vertical-align:top;">HTTP_ACCEPT_ENCODING</td><td style="vertical-align:top;">:</td><td><div>gzip, deflate, sdch</div></td></tr><tr><td style="font-weight:bold;vertical-align:top;">HTTP_ACCEPT_LANGUAGE</td><td style="vertical-align:top;">:</td><td><div>ru,en;q=0.8,en-US;q=0.6</div></td></tr><tr><td style="font-weight:bold;vertical-align:top;">HTTP_CACHE_CONTROL</td><td style="vertical-align:top;">:</td><td><div>max-age=0</div></td></tr><tr><td style="font-weight:bold;vertical-align:top;">HTTP_CONNECTION</td><td style="vertical-align:top;">:</td><td><div>close</div></td></tr><tr><td style="font-weight:bold;vertical-align:top;">HTTP_COOKIE</td><td style="vertical-align:top;">:</td><td><div>session_id_welcome=82.196.1.179-bd011b7a-7e45-4f03-86c6-186b3af19fd7; _ga=GA1.2.732317842.1467351336; __utmt=1; __utma=134993891.732317842.1467351336.1467753785.1467791428.10; __utmb=134993891.1.10.1467791428; __utmc=134993891; __utmz=134993891.1467612858.1.1.utmcsr=(direct)|utmccn=(direct)|utmcmd=(none); session_id_test=178.62.220.63-87e7a15e-159f-4e7e-95f7-672d81e18832; session_id_admin=82.196.1.179-0e867f0f-fcc2-4602-896c-9ac7a8f9c84d</div></td></tr><tr><td style="font-weight:bold;vertical-align:top;">HTTP_HOST</td><td style="vertical-align:top;">:</td><td><div>concordance.pythonanywhere.com</div></td></tr><tr><td style="font-weight:bold;vertical-align:top;">HTTP_REFERER</td><td style="vertical-align:top;">:</td><td><div>https://concordance.pythonanywhere.com/test/concordance/ask_model</div></td></tr><tr><td style="font-weight:bold;vertical-align:top;">HTTP_UPGRADE_INSECURE_REQUESTS</td><td style="vertical-align:top;">:</td><td><div>1</div></td></tr><tr><td style="font-weight:bold;vertical-align:top;">HTTP_USER_AGENT</td><td style="vertical-align:top;">:</td><td><div>Mozilla/5.0 (Macintosh; Intel Mac OS X 10_6_8) AppleWebKit/537.36 (KHTML, like Gecko) Chrome/49.0.2623.112 Safari/537.36</div></td></tr><tr><td style="font-weight:bold;vertical-align:top;">HTTP_X_FORWARDED_FOR</td><td style="vertical-align:top;">:</td><td><div>188.166.26.63</div></td></tr><tr><td style="font-weight:bold;vertical-align:top;">HTTP_X_REAL_IP</td><td style="vertical-align:top;">:</td><td><div>188.166.26.63</div></td></tr><tr><td style="font-weight:bold;vertical-align:top;">PATH_INFO</td><td style="vertical-align:top;">:</td><td><div>/test/concordance/resp_model</div></td></tr><tr><td style="font-weight:bold;vertical-align:top;">QUERY_STRING</td><td style="vertical-align:top;">:</td><td><div>first=%D0%B4%D0%B5%D0%BD%D1%8C&amp;id=None</div></td></tr><tr><td style="font-weight:bold;vertical-align:top;">REMOTE_ADDR</td><td style="vertical-align:top;">:</td><td><div>10.149.68.189</div></td></tr><tr><td style="font-weight:bold;vertical-align:top;">REMOTE_PORT</td><td style="vertical-align:top;">:</td><td><div>57469</div></td></tr><tr><td style="font-weight:bold;vertical-align:top;">REQUEST_METHOD</td><td style="vertical-align:top;">:</td><td><div>GET</div></td></tr><tr><td style="font-weight:bold;vertical-align:top;">REQUEST_URI</td><td style="vertical-align:top;">:</td><td><div>/test/concordance/resp_model?first=%D0%B4%D0%B5%D0%BD%D1%8C&amp;id=None</div></td></tr><tr><td style="font-weight:bold;vertical-align:top;">SCRIPT_NAME</td><td style="vertical-align:top;">:</td><td><div></div></td></tr><tr><td style="font-weight:bold;vertical-align:top;">SERVER_NAME</td><td style="vertical-align:top;">:</td><td><div>concordance.pythonanywhere.com</div></td></tr><tr><td style="font-weight:bold;vertical-align:top;">SERVER_PORT</td><td style="vertical-align:top;">:</td><td><div>443</div></td></tr><tr><td style="font-weight:bold;vertical-align:top;">SERVER_PROTOCOL</td><td style="vertical-align:top;">:</td><td><div>HTTP/1.1</div></td></tr><tr><td style="font-weight:bold;vertical-align:top;">app_folders</td><td style="vertical-align:top;">:</td><td><div>set([&#x27;/home/concordance/web2py/applications/welcome/&#x27;, &#x27;/home/concordance/web2py/applications/admin/&#x27;, &#x27;/home/concordance/web2py/applications/test/&#x27;])</div></td></tr><tr><td style="font-weight:bold;vertical-align:top;">applications_parent</td><td style="vertical-align:top;">:</td><td><div>/home/concordance/web2py</div></td></tr><tr><td style="font-weight:bold;vertical-align:top;">content_length</td><td style="vertical-align:top;">:</td><td><div></div></td></tr><tr><td style="font-weight:bold;vertical-align:top;">content_type</td><td style="vertical-align:top;">:</td><td><div></div></td></tr><tr><td style="font-weight:bold;vertical-align:top;">db_sessions</td><td style="vertical-align:top;">:</td><td><div>set([])</div></td></tr><tr><td style="font-weight:bold;vertical-align:top;">debugging</td><td style="vertical-align:top;">:</td><td><div>True</div></td></tr><tr><td style="font-weight:bold;vertical-align:top;">document_root</td><td style="vertical-align:top;">:</td><td><div>/usr/local/openresty/nginx/html</div></td></tr><tr><td style="font-weight:bold;vertical-align:top;">gluon_parent</td><td style="vertical-align:top;">:</td><td><div>/home/concordance/web2py</div></td></tr><tr><td style="font-weight:bold;vertical-align:top;">http_accept</td><td style="vertical-align:top;">:</td><td><div>text/html,application/xhtml+xml,application/xml;q=0.9,image/webp,*/*;q=0.8</div></td></tr><tr><td style="font-weight:bold;vertical-align:top;">http_accept_encoding</td><td style="vertical-align:top;">:</td><td><div>gzip, deflate, sdch</div></td></tr><tr><td style="font-weight:bold;vertical-align:top;">http_accept_language</td><td style="vertical-align:top;">:</td><td><div>ru,en;q=0.8,en-US;q=0.6</div></td></tr><tr><td style="font-weight:bold;vertical-align:top;">http_cache_control</td><td style="vertical-align:top;">:</td><td><div>max-age=0</div></td></tr><tr><td style="font-weight:bold;vertical-align:top;">http_connection</td><td style="vertical-align:top;">:</td><td><div>close</div></td></tr><tr><td style="font-weight:bold;vertical-align:top;">http_cookie</td><td style="vertical-align:top;">:</td><td><div>session_id_welcome=82.196.1.179-bd011b7a-7e45-4f03-86c6-186b3af19fd7; _ga=GA1.2.732317842.1467351336; __utmt=1; __utma=134993891.732317842.1467351336.1467753785.1467791428.10; __utmb=134993891.1.10.1467791428; __utmc=134993891; __utmz=134993891.1467612858.1.1.utmcsr=(direct)|utmccn=(direct)|utmcmd=(none); session_id_test=178.62.220.63-87e7a15e-159f-4e7e-95f7-672d81e18832; session_id_admin=82.196.1.179-0e867f0f-fcc2-4602-896c-9ac7a8f9c84d</div></td></tr><tr><td style="font-weight:bold;vertical-align:top;">http_host</td><td style="vertical-align:top;">:</td><td><div>concordance.pythonanywhere.com</div></td></tr><tr><td style="font-weight:bold;vertical-align:top;">http_referer</td><td style="vertical-align:top;">:</td><td><div>https://concordance.pythonanywhere.com/test/concordance/ask_model</div></td></tr><tr><td style="font-weight:bold;vertical-align:top;">http_upgrade_insecure_requests</td><td style="vertical-align:top;">:</td><td><div>1</div></td></tr><tr><td style="font-weight:bold;vertical-align:top;">http_user_agent</td><td style="vertical-align:top;">:</td><td><div>Mozilla/5.0 (Macintosh; Intel Mac OS X 10_6_8) AppleWebKit/537.36 (KHTML, like Gecko) Chrome/49.0.2623.112 Safari/537.36</div></td></tr><tr><td style="font-weight:bold;vertical-align:top;">http_x_forwarded_for</td><td style="vertical-align:top;">:</td><td><div>188.166.26.63</div></td></tr><tr><td style="font-weight:bold;vertical-align:top;">http_x_real_ip</td><td style="vertical-align:top;">:</td><td><div>188.166.26.63</div></td></tr><tr><td style="font-weight:bold;vertical-align:top;">https</td><td style="vertical-align:top;">:</td><td><div>on</div></td></tr><tr><td style="font-weight:bold;vertical-align:top;">is_jython</td><td style="vertical-align:top;">:</td><td><div>False</div></td></tr><tr><td style="font-weight:bold;vertical-align:top;">is_pypy</td><td style="vertical-align:top;">:</td><td><div>False</div></td></tr><tr><td style="font-weight:bold;vertical-align:top;">is_source</td><td style="vertical-align:top;">:</td><td><div>True</div></td></tr><tr><td style="font-weight:bold;vertical-align:top;">local_hosts</td><td style="vertical-align:top;">:</td><td><div><table><tr><td><div>::ffff:127.0.0.1</div></td></tr><tr><td><div>::1</div></td></tr><tr><td><div>harry-liveweb8</div></td></tr><tr><td><div>50.19.109.98</div></td></tr><tr><td><div>127.0.0.1</div></td></tr><tr><td><div>concordance.pythonanywhere.com</div></td></tr><tr><td><div>localhost</div></td></tr></table></div></td></tr><tr><td style="font-weight:bold;vertical-align:top;">path_info</td><td style="vertical-align:top;">:</td><td><div>/test/concordance/resp_model</div></td></tr><tr><td style="font-weight:bold;vertical-align:top;">query_string</td><td style="vertical-align:top;">:</td><td><div>first=%D0%B4%D0%B5%D0%BD%D1%8C&amp;id=None</div></td></tr><tr><td style="font-weight:bold;vertical-align:top;">remote_addr</td><td style="vertical-align:top;">:</td><td><div>10.149.68.189</div></td></tr><tr><td style="font-weight:bold;vertical-align:top;">remote_port</td><td style="vertical-align:top;">:</td><td><div>57469</div></td></tr><tr><td style="font-weight:bold;vertical-align:top;">request_method</td><td style="vertical-align:top;">:</td><td><div>GET</div></td></tr><tr><td style="font-weight:bold;vertical-align:top;">request_uri</td><td style="vertical-align:top;">:</td><td><div>/test/concordance/resp_model?first=%D0%B4%D0%B5%D0%BD%D1%8C&amp;id=None</div></td></tr><tr><td style="font-weight:bold;vertical-align:top;">script_name</td><td style="vertical-align:top;">:</td><td><div></div></td></tr><tr><td style="font-weight:bold;vertical-align:top;">server_name</td><td style="vertical-align:top;">:</td><td><div>concordance.pythonanywhere.com</div></td></tr><tr><td style="font-weight:bold;vertical-align:top;">server_port</td><td style="vertical-align:top;">:</td><td><div>443</div></td></tr><tr><td style="font-weight:bold;vertical-align:top;">server_protocol</td><td style="vertical-align:top;">:</td><td><div>HTTP/1.1</div></td></tr><tr><td style="font-weight:bold;vertical-align:top;">uwsgi.node</td><td style="vertical-align:top;">:</td><td><div>harry-liveweb8</div></td></tr><tr><td style="font-weight:bold;vertical-align:top;">uwsgi.version</td><td style="vertical-align:top;">:</td><td><div>2.0.5.1</div></td></tr><tr><td style="font-weight:bold;vertical-align:top;">uwsgi_node</td><td style="vertical-align:top;">:</td><td><div>harry-liveweb8</div></td></tr><tr><td style="font-weight:bold;vertical-align:top;">uwsgi_version</td><td style="vertical-align:top;">:</td><td><div>2.0.5.1</div></td></tr><tr><td style="font-weight:bold;vertical-align:top;">web2py_original_uri</td><td style="vertical-align:top;">:</td><td><div>/test/concordance/resp_model?first=%D0%B4%D0%B5%D0%BD%D1%8C&amp;id=None</div></td></tr><tr><td style="font-weight:bold;vertical-align:top;">web2py_path</td><td style="vertical-align:top;">:</td><td><div>/home/concordance/web2py</div></td></tr><tr><td style="font-weight:bold;vertical-align:top;">web2py_version</td><td style="vertical-align:top;">:</td><td><div>2.9.5-stable+timestamp.2014.03.16.02.35.39</div></td></tr><tr><td style="font-weight:bold;vertical-align:top;">wsgi.errors</td><td style="vertical-align:top;">:</td><td><div>&lt;uwsgi_file__bin_user_wsgi_wrapper.ErrorLogFile object at 0x7f8d658ff650&gt;</div></td></tr><tr><td style="font-weight:bold;vertical-align:top;">wsgi.file_wrapper</td><td style="vertical-align:top;">:</td><td><div>&lt;built-in function uwsgi_sendfile&gt;</div></td></tr><tr><td style="font-weight:bold;vertical-align:top;">wsgi.input</td><td style="vertical-align:top;">:</td><td><div>&lt;uwsgi._Input object at 0x7f8d778b4cd8&gt;</div></td></tr><tr><td style="font-weight:bold;vertical-align:top;">wsgi.multiprocess</td><td style="vertical-align:top;">:</td><td><div>True</div></td></tr><tr><td style="font-weight:bold;vertical-align:top;">wsgi.multithread</td><td style="vertical-align:top;">:</td><td><div>False</div></td></tr><tr><td style="font-weight:bold;vertical-align:top;">wsgi.run_once</td><td style="vertical-align:top;">:</td><td><div>False</div></td></tr><tr><td style="font-weight:bold;vertical-align:top;">wsgi.url_scheme</td><td style="vertical-align:top;">:</td><td><div>https</div></td></tr><tr><td style="font-weight:bold;vertical-align:top;">wsgi.version</td><td style="vertical-align:top;">:</td><td><div><table><tr><td><div>1</div></td></tr><tr><td><div>0</div></td></tr></table></div></td></tr><tr><td style="font-weight:bold;vertical-align:top;">wsgi_errors</td><td style="vertical-align:top;">:</td><td><div>&lt;uwsgi_file__bin_user_wsgi_wrapper.ErrorLogFile object at 0x7f8d658ff650&gt;</div></td></tr><tr><td style="font-weight:bold;vertical-align:top;">wsgi_file_wrapper</td><td style="vertical-align:top;">:</td><td><div>&lt;built-in function uwsgi_sendfile&gt;</div></td></tr><tr><td style="font-weight:bold;vertical-align:top;">wsgi_input</td><td style="vertical-align:top;">:</td><td><div>&lt;uwsgi._Input object at 0x7f8d778b4cd8&gt;</div></td></tr><tr><td style="font-weight:bold;vertical-align:top;">wsgi_multiprocess</td><td style="vertical-align:top;">:</td><td><div>True</div></td></tr><tr><td style="font-weight:bold;vertical-align:top;">wsgi_multithread</td><td style="vertical-align:top;">:</td><td><div>False</div></td></tr><tr><td style="font-weight:bold;vertical-align:top;">wsgi_run_once</td><td style="vertical-align:top;">:</td><td><div>False</div></td></tr><tr><td style="font-weight:bold;vertical-align:top;">wsgi_url_scheme</td><td style="vertical-align:top;">:</td><td><div>https</div></td></tr><tr><td style="font-weight:bold;vertical-align:top;">wsgi_version</td><td style="vertical-align:top;">:</td><td><div><table><tr><td><div>1</div></td></tr><tr><td><div>0</div></td></tr></table></div></td></tr></table></div></td></tr><tr><td style="font-weight:bold;vertical-align:top;">extension</td><td style="vertical-align:top;">:</td><td><div>html</div></td></tr><tr><td style="font-weight:bold;vertical-align:top;">folder</td><td style="vertical-align:top;">:</td><td><div>/home/concordance/web2py/applications/test/</div></td></tr><tr><td style="font-weight:bold;vertical-align:top;">function</td><td style="vertical-align:top;">:</td><td><div>resp_model</div></td></tr><tr><td style="font-weight:bold;vertical-align:top;">global_settings</td><td style="vertical-align:top;">:</td><td><div><table><tr><td style="font-weight:bold;vertical-align:top;">app_folders</td><td style="vertical-align:top;">:</td><td><div>set([&#x27;/home/concordance/web2py/applications/welcome/&#x27;, &#x27;/home/concordance/web2py/applications/admin/&#x27;, &#x27;/home/concordance/web2py/applications/test/&#x27;])</div></td></tr><tr><td style="font-weight:bold;vertical-align:top;">applications_parent</td><td style="vertical-align:top;">:</td><td><div>/home/concordance/web2py</div></td></tr><tr><td style="font-weight:bold;vertical-align:top;">db_sessions</td><td style="vertical-align:top;">:</td><td><div>set([])</div></td></tr><tr><td style="font-weight:bold;vertical-align:top;">debugging</td><td style="vertical-align:top;">:</td><td><div>True</div></td></tr><tr><td style="font-weight:bold;vertical-align:top;">gluon_parent</td><td style="vertical-align:top;">:</td><td><div>/home/concordance/web2py</div></td></tr><tr><td style="font-weight:bold;vertical-align:top;">is_jython</td><td style="vertical-align:top;">:</td><td><div>False</div></td></tr><tr><td style="font-weight:bold;vertical-align:top;">is_pypy</td><td style="vertical-align:top;">:</td><td><div>False</div></td></tr><tr><td style="font-weight:bold;vertical-align:top;">is_source</td><td style="vertical-align:top;">:</td><td><div>True</div></td></tr><tr><td style="font-weight:bold;vertical-align:top;">local_hosts</td><td style="vertical-align:top;">:</td><td><div><table><tr><td><div>::ffff:127.0.0.1</div></td></tr><tr><td><div>::1</div></td></tr><tr><td><div>harry-liveweb8</div></td></tr><tr><td><div>50.19.109.98</div></td></tr><tr><td><div>127.0.0.1</div></td></tr><tr><td><div>concordance.pythonanywhere.com</div></td></tr><tr><td><div>localhost</div></td></tr></table></div></td></tr><tr><td style="font-weight:bold;vertical-align:top;">web2py_version</td><td style="vertical-align:top;">:</td><td><div>2.9.5-stable+timestamp.2014.03.16.02.35.39</div></td></tr></table></div></td></tr><tr><td style="font-weight:bold;vertical-align:top;">is_https</td><td style="vertical-align:top;">:</td><td><div>True</div></td></tr><tr><td style="font-weight:bold;vertical-align:top;">is_local</td><td style="vertical-align:top;">:</td><td><div>False</div></td></tr><tr><td style="font-weight:bold;vertical-align:top;">is_restful</td><td style="vertical-align:top;">:</td><td><div>False</div></td></tr><tr><td style="font-weight:bold;vertical-align:top;">now</td><td style="vertical-align:top;">:</td><td><div>datetime.datetime(2016, 7, 6, 19, 55, 47, 512642)</div></td></tr><tr><td style="font-weight:bold;vertical-align:top;">raw_args</td><td style="vertical-align:top;">:</td><td><div></div></td></tr><tr><td style="font-weight:bold;vertical-align:top;">raw_extension</td><td style="vertical-align:top;">:</td><td><div>None</div></td></tr><tr><td style="font-weight:bold;vertical-align:top;">url</td><td style="vertical-align:top;">:</td><td><div>/test/concordance/resp_model</div></td></tr><tr><td style="font-weight:bold;vertical-align:top;">utcnow</td><td style="vertical-align:top;">:</td><td><div>datetime.datetime(2016, 7, 6, 19, 55, 47, 512685)</div></td></tr><tr><td style="font-weight:bold;vertical-align:top;">uuid</td><td style="vertical-align:top;">:</td><td><div>test/188.166.26.63.2016-07-06.19-55-47.68623aa6-3089-4112-986d-76663c62936f</div></td></tr><tr><td style="font-weight:bold;vertical-align:top;">wsgi</td><td style="vertical-align:top;">:</td><td><div>&lt;gluon.main.LazyWSGI object at 0x7f8d3dca6f10&gt;</div></td></tr></table></div>'
tRp66
sS'frames'
p67
(lp68
(dp69
S'file'
p70
S'/home/concordance/web2py/gluon/restricted.py'
p71
sS'dump'
p72
(dp73
S'environment'
p74
S"{'A': <class 'gluon.html.A'>, 'ANY_OF': <class 'gluon.validators.ANY_OF'>, 'Auth': <class 'gluon.tools.Auth'>, 'B': <class 'gluon.html.B'>, 'BEAUTIFY': <class 'gluon.html.BEAUTIFY'>, 'BODY': <class 'gluon.html.BODY'>, 'BR': <class 'gluon.html.BR'>, 'BUTTON': <class 'gluon.html.BUTTON'>, 'CAT': <class 'gluon.html.CAT'>, 'CENTER': <class 'gluon.html.CENTER'>, ...}"
p75
sS'ccode'
p76
S'<code object <module> at 0x7f8d1dbff030, file "/...cations/test/controllers/concordance.py", line 3>'
p77
ssS'lnum'
p78
I220
sS'lines'
p79
(dp80
I224
S'        # do not encapsulate (obfuscate) the original RestrictedError'
p81
sI215
S'    try:'
p82
sI216
S'        if isinstance(code, types.CodeType):'
p83
sI217
S'            ccode = code'
p84
sI218
S'        else:'
p85
sI219
S'            ccode = compile2(code, layer)'
p86
sI220
S'        exec ccode in environment'
p87
sI221
S'    except HTTP:'
p88
sI222
S'        raise'
p89
sI223
S'    except RestrictedError:'
p90
ssS'call'
p91
S"(code='# coding: utf8\\n# coding: utf8\\nimport nltk\\nimport...ds)\\n\\nresponse._vars=response._caller(resp_model)\\n', environment={'A': <class 'gluon.html.A'>, 'ANY_OF': <class 'gluon.validators.ANY_OF'>, 'Auth': <class 'gluon.tools.Auth'>, 'B': <class 'gluon.html.B'>, 'BEAUTIFY': <class 'gluon.html.BEAUTIFY'>, 'BODY': <class 'gluon.html.BODY'>, 'BR': <class 'gluon.html.BR'>, 'BUTTON': <class 'gluon.html.BUTTON'>, 'CAT': <class 'gluon.html.CAT'>, 'CENTER': <class 'gluon.html.CENTER'>, ...}, layer='/home/concordance/web2py/applications/test/controllers/concordance.py')"
p92
sS'func'
p93
S'restricted'
p94
sa(dp95
g70
S'/home/concordance/web2py/applications/test/controllers/concordance.py'
p96
sg72
(dp97
sg78
I202
sg79
(dp98
I192
S'        words = trymysql(trymysql.allword.title==all.id).select(trymysql.allword.word)'
p99
sI193
S'        l = [all.word for all in words if all.word not in stop]'
p100
sI194
S'        sentences1.append(l)'
p101
sI195
S'    #model1 = gensim.models.Word2Vec(sentences1, min_count=20, window=15, size=300)'
p102
sI196
S'    #model1.save("/home/concordance/web2py/applications/test/uploads/models/all_model_from_20_win15_size300")'
p103
sI197
S"    words = [all.word for all in trymysql((trymysql.allword.title=='1000L')&(trymysql.allword.partos.belongs(part))).select(trymysql.allword.word)]"
p104
sI198
S"    with open('/home/concordance/web2py/applications/test/uploads/models/all_partos.txt', 'wb') as f:"
p105
sI199
S'        pickle.dump(sentences1, f)'
p106
sI200
S'    return dict(model1=len(sentences1), w=words)'
p107
sI191
S'        #sentences1.append([alles.word for alles in trymysql((trymysql.allword.title==all.id)&(trymysql.allword.partos.belongs(part))).select() if alles.word not in stop])'
p108
ssg91
S'()'
p109
sg93
S'<module>'
p110
sa(dp111
g70
S'/home/concordance/web2py/gluon/globals.py'
p112
sg72
(dp113
S'self'
p114
S'undefined'
p115
sS'f'
S'<function resp_model>'
p116
ssg78
I385
sg79
(dp117
I384
S'        self._vars = None'
p118
sI385
S'        self._caller = lambda f: f()'
p119
sI386
S'        self._view_environment = None'
p120
sI387
S'        self._custom_commit = None'
p121
sI388
S'        self._custom_rollback = None'
p122
sI389
S''
sI380
S'        self.menu = []             # used by the default view layout'
p123
sI381
S'        self.files = []            # used by web2py_ajax.html'
p124
sI382
S'        self.generic_patterns = []  # patterns to allow generic views'
p125
sI383
S"        self.delimiters = ('{{', '}}')"
p126
ssg91
S'(f=<function resp_model>)'
p127
sg93
S'<lambda>'
p128
sa(dp129
g70
S'/home/concordance/web2py/applications/test/controllers/concordance.py'
p130
sg72
(dp131
S'global request'
p132
S"<Storage {'_vars': <Storage {'id': 'None', 'firs...: '/home/concordance/web2py/applications/test/'}>"
p133
sS'request.vars'
p134
S"<Storage {'id': 'None', 'first': '\\xd0\\xb4\\xd0\\xb5\\xd0\\xbd\\xd1\\x8c'}>"
p135
sS'request.vars.first.encode'
p136
S'<built-in method encode of str object>'
p137
sS'words'
p138
g115
sS'request.vars.first'
p139
S"'\\xd0\\xb4\\xd0\\xb5\\xd0\\xbd\\xd1\\x8c'"
p140
ssg78
I84
sg79
(dp141
I79
S"        redirect(URL('resp_model', vars = form.vars))"
p142
sI80
S'    return dict(form=form)'
p143
sI81
S''
sI82
S'def resp_model():'
p144
sI83
S'    model = gensim.models.Word2Vec.load("/home/concordance/web2py/applications/test/uploads/models/model_from_10_win2_size300")'
p145
sI84
S"    words = request.vars.first.encode('utf-8')"
p146
sI85
S'    return dict(model=model, words=words)'
p147
sI86
S''
sI87
S'def doc2vec():'
p148
sI88
S'    documents = []'
p149
ssg91
S'()'
p150
sg93
S'resp_model'
p151
sasS'pyver'
p152
S'Python 2.7.6: /usr/local/bin/uwsgi (prefix: /usr)'
p153
sS'session'
p154
g65
(S's\xbe\x01\x00\x00<div><table><tr><td style="font-weight:bold;vertical-align:top;">flash</td><td style="vertical-align:top;">:</td><td><div>None</div></td></tr><tr><td style="font-weight:bold;vertical-align:top;">last_orderby</td><td style="vertical-align:top;">:</td><td><div>None</div></td></tr><tr><td style="font-weight:bold;vertical-align:top;">last_query</td><td style="vertical-align:top;">:</td><td><div>trymysql.text1.id&gt;0</div></td></tr></table></div>'
tRp155
sS'etype'
p156
S"<type 'exceptions.UnicodeDecodeError'>"
p157
sS'date'
p158
S'Wed Jul  6 19:55:48 2016'
p159
sS'response'
p160
g65
(S's\x9c\x1e\x00\x00<div><table><tr><td style="font-weight:bold;vertical-align:top;">body</td><td style="vertical-align:top;">:</td><td><div>&lt;cStringIO.StringO object at 0x7f8d33679458&gt;</div></td></tr><tr><td style="font-weight:bold;vertical-align:top;">cookies</td><td style="vertical-align:top;">:</td><td><div><table><tr><td style="font-weight:bold;vertical-align:top;">session_id_test</td><td style="vertical-align:top;">:</td><td><div>178.62.220.63-87e7a15e-159f-4e7e-95f7-672d81e18832<table><tr><td style="font-weight:bold;vertical-align:top;">comment</td><td style="vertical-align:top;">:</td><td><div></div></td></tr><tr><td style="font-weight:bold;vertical-align:top;">domain</td><td style="vertical-align:top;">:</td><td><div></div></td></tr><tr><td style="font-weight:bold;vertical-align:top;">expires</td><td style="vertical-align:top;">:</td><td><div></div></td></tr><tr><td style="font-weight:bold;vertical-align:top;">httponly</td><td style="vertical-align:top;">:</td><td><div></div></td></tr><tr><td style="font-weight:bold;vertical-align:top;">max-age</td><td style="vertical-align:top;">:</td><td><div></div></td></tr><tr><td style="font-weight:bold;vertical-align:top;">path</td><td style="vertical-align:top;">:</td><td><div>/</div></td></tr><tr><td style="font-weight:bold;vertical-align:top;">secure</td><td style="vertical-align:top;">:</td><td><div></div></td></tr><tr><td style="font-weight:bold;vertical-align:top;">version</td><td style="vertical-align:top;">:</td><td><div></div></td></tr></table></div></td></tr></table></div></td></tr><tr><td style="font-weight:bold;vertical-align:top;">delimiters</td><td style="vertical-align:top;">:</td><td><div><table><tr><td><div>{{</div></td></tr><tr><td><div>}}</div></td></tr></table></div></td></tr><tr><td style="font-weight:bold;vertical-align:top;">files</td><td style="vertical-align:top;">:</td><td><div><table></table></div></td></tr><tr><td style="font-weight:bold;vertical-align:top;">flash</td><td style="vertical-align:top;">:</td><td><div></div></td></tr><tr><td style="font-weight:bold;vertical-align:top;">generic_patterns</td><td style="vertical-align:top;">:</td><td><div><table></table></div></td></tr><tr><td style="font-weight:bold;vertical-align:top;">google_analytics_id</td><td style="vertical-align:top;">:</td><td><div>UA-52567545-1</div></td></tr><tr><td style="font-weight:bold;vertical-align:top;">headers</td><td style="vertical-align:top;">:</td><td><div><table><tr><td style="font-weight:bold;vertical-align:top;">X-Powered-By</td><td style="vertical-align:top;">:</td><td><div>web2py</div></td></tr></table></div></td></tr><tr><td style="font-weight:bold;vertical-align:top;">logo</td><td style="vertical-align:top;">:</td><td><div><a class="brand" href="http://concordances.ru"><b>concor<span>dances</span></b>.ru</a></div></td></tr><tr><td style="font-weight:bold;vertical-align:top;">menu</td><td style="vertical-align:top;">:</td><td><div><table><tr><td><div><table><tr><td><div>Home</div></td></tr><tr><td><div>False</div></td></tr><tr><td><div>/test/default/index</div></td></tr><tr><td><div><table></table></div></td></tr></table></div></td></tr><tr><td><div><table><tr><td><div><span class="highlighted">web2py</span></div></td></tr><tr><td><div>False</div></td></tr><tr><td><div>http://concordances.ru</div></td></tr><tr><td><div><table><tr><td><div><table><tr><td><div>\xd0\x9e \xd0\xbf\xd1\x80\xd0\xbe\xd0\xb5\xd0\xba\xd1\x82\xd0\xb5</div></td></tr><tr><td><div>False</div></td></tr><tr><td><div>/admin/default/about/test</div></td></tr></table></div></td></tr><tr><td><div><table><tr><td><div>\xd0\x90\xd0\xb4\xd0\xbc\xd0\xb8\xd0\xbd\xd0\xba\xd0\xb0</div></td></tr><tr><td><div>False</div></td></tr><tr><td><div>/admin/default/edit/test/controllers/concordance.py</div></td></tr></table></div></td></tr></table></div></td></tr></table></div></td></tr></table></div></td></tr><tr><td style="font-weight:bold;vertical-align:top;">meta</td><td style="vertical-align:top;">:</td><td><div><table><tr><td style="font-weight:bold;vertical-align:top;">author</td><td style="vertical-align:top;">:</td><td><div>Maria Levchenko &lt;marylevchenko@gmail.com&gt;</div></td></tr><tr><td style="font-weight:bold;vertical-align:top;">generator</td><td style="vertical-align:top;">:</td><td><div>\xd0\xa7\xd0\xb0\xd1\x81\xd1\x82\xd0\xbe\xd1\x82\xd0\xbd\xd1\x8b\xd0\xb9 \xd1\x81\xd0\xbb\xd0\xbe\xd0\xb2\xd0\xb0\xd1\x80\xd1\x8c \xd1\x80\xd1\x83\xd1\x81\xd1\x81\xd0\xba\xd0\xbe\xd0\xb9 \xd0\xbb\xd0\xb8\xd1\x82\xd0\xb5\xd1\x80\xd0\xb0\xd1\x82\xd1\x83\xd1\x80\xd1\x8b</div></td></tr><tr><td style="font-weight:bold;vertical-align:top;">keywords</td><td style="vertical-align:top;">:</td><td><div>concordance, natural language processing, critics</div></td></tr></table></div></td></tr><tr><td style="font-weight:bold;vertical-align:top;">models_to_run</td><td style="vertical-align:top;">:</td><td><div><table><tr><td><div>^\\w+\\.py$</div></td></tr><tr><td><div>^concordance/\\w+\\.py$</div></td></tr><tr><td><div>^concordance/resp_model/\\w+\\.py$</div></td></tr></table></div></td></tr><tr><td style="font-weight:bold;vertical-align:top;">postprocessing</td><td style="vertical-align:top;">:</td><td><div><table></table></div></td></tr><tr><td style="font-weight:bold;vertical-align:top;">session_client</td><td style="vertical-align:top;">:</td><td><div>188.166.26.63</div></td></tr><tr><td style="font-weight:bold;vertical-align:top;">session_cookie_compression_level</td><td style="vertical-align:top;">:</td><td><div>None</div></td></tr><tr><td style="font-weight:bold;vertical-align:top;">session_cookie_expires</td><td style="vertical-align:top;">:</td><td><div>None</div></td></tr><tr><td style="font-weight:bold;vertical-align:top;">session_cookie_key</td><td style="vertical-align:top;">:</td><td><div>None</div></td></tr><tr><td style="font-weight:bold;vertical-align:top;">session_data_name</td><td style="vertical-align:top;">:</td><td><div>session_data_test</div></td></tr><tr><td style="font-weight:bold;vertical-align:top;">session_file</td><td style="vertical-align:top;">:</td><td><div>&lt;open file &#x27;/home/concordance/web2py/applications/test/sessions/178.62.220.63-87e7a15e-159f-4e7e-95f7-672d81e18832&#x27;, mode &#x27;rb+&#x27; at 0x7f8d32d62540&gt;</div></td></tr><tr><td style="font-weight:bold;vertical-align:top;">session_filename</td><td style="vertical-align:top;">:</td><td><div>/home/concordance/web2py/applications/test/sessions/178.62.220.63-87e7a15e-159f-4e7e-95f7-672d81e18832</div></td></tr><tr><td style="font-weight:bold;vertical-align:top;">session_hash</td><td style="vertical-align:top;">:</td><td><div>0c0f42f667ae5ca9854f7f59cdc4ea1c</div></td></tr><tr><td style="font-weight:bold;vertical-align:top;">session_id</td><td style="vertical-align:top;">:</td><td><div>178.62.220.63-87e7a15e-159f-4e7e-95f7-672d81e18832</div></td></tr><tr><td style="font-weight:bold;vertical-align:top;">session_id_name</td><td style="vertical-align:top;">:</td><td><div>session_id_test</div></td></tr><tr><td style="font-weight:bold;vertical-align:top;">session_locked</td><td style="vertical-align:top;">:</td><td><div>True</div></td></tr><tr><td style="font-weight:bold;vertical-align:top;">session_masterapp</td><td style="vertical-align:top;">:</td><td><div>test</div></td></tr><tr><td style="font-weight:bold;vertical-align:top;">session_new</td><td style="vertical-align:top;">:</td><td><div>False</div></td></tr><tr><td style="font-weight:bold;vertical-align:top;">session_storage_type</td><td style="vertical-align:top;">:</td><td><div>file</div></td></tr><tr><td style="font-weight:bold;vertical-align:top;">status</td><td style="vertical-align:top;">:</td><td><div>200</div></td></tr><tr><td style="font-weight:bold;vertical-align:top;">subtitle</td><td style="vertical-align:top;">:</td><td><div></div></td></tr><tr><td style="font-weight:bold;vertical-align:top;">title</td><td style="vertical-align:top;">:</td><td><div>Test</div></td></tr><tr><td style="font-weight:bold;vertical-align:top;">view</td><td style="vertical-align:top;">:</td><td><div>concordance/resp_model.html</div></td></tr></table></div>'
tRp161
sS'locals'
p162
(dp163
S'model'
p164
S'<gensim.models.word2vec.Word2Vec object>'
p165
sssS'traceback'
p166
S'Traceback (most recent call last):\n  File "/home/concordance/web2py/gluon/restricted.py", line 220, in restricted\n    exec ccode in environment\n  File "/home/concordance/web2py/applications/test/controllers/concordance.py", line 202, in <module>\n  File "/home/concordance/web2py/gluon/globals.py", line 385, in <lambda>\n    self._caller = lambda f: f()\n  File "/home/concordance/web2py/applications/test/controllers/concordance.py", line 84, in resp_model\n    words = request.vars.first.encode(\'utf-8\')\nUnicodeDecodeError: \'ascii\' codec can\'t decode byte 0xd0 in position 0: ordinal not in range(128)\n'
p167
s.