(dp1
S'output'
p2
S"<class 'cPickle.UnpicklingError'> invalid load key, '3'."
p3
sS'layer'
p4
S'/home/concordance/web2py/applications/test/controllers/concordance.py'
p5
sS'code'
p6
S'# coding: utf8\n# coding: utf8\nimport nltk\nimport pymorphy2\nfrom operator import itemgetter\nimport select\nimport gensim, logging\nfrom gensim import corpora, models, similarities\nfrom gensim.models import doc2vec\nlogging.basicConfig(format=\'%(asctime)s : %(levelname)s : %(message)s\', level=logging.INFO)\n\npartos = [\'VERB\', \'NOUN\', \'ADJF\', \'ADJS\', \'INFN\', \'GRND\', \'PRTF\', \'PRTS\', \'ADVB\']\n\ndef index(): # concordance of one text\n    all_words = trymysql(trymysql.allword.title==request.args(0)).select()\n    lens=len(all_words)\n    vocab = []\n    for row in all_words:\n        w = row.word\n        q = trymysql((trymysql.allword.word==row.word)&(trymysql.allword.title==request.args(0))).select()\n        qq = round(((len(q)/float(lens))*100), 2)\n        c = [w, len(q), qq]\n        if c not in vocab:\n            vocab.append(c)\n    vocab.sort(key = itemgetter(0), reverse=False)\n    return dict(lens=lens, vocab=vocab)\n\ndef create_concordance():\n    f = open(\'/home/concordance/dictionary.txt\', \'r\')\n    words = f.readlines()\n    return dict(words=words)\n\ndef create_number():\n    all_texts=trymysql(trymysql.allword.title<10).select()\n    concor=trymysql(trymysql.concordance.id>0).select()\n    words_concordance = [one.word for one in concor]\n    for all in all_texts:\n        if all.word in words_concordance:\n            number = trymysql(trymysql.concordance.word==all.word).select()[0]\n            number_id=number.id\n            all.update_record(concordance_number=number_id)\n        else:\n            all.update_record(concordance_number=0)\n    return dict(words=words_concordance[:10], all_texts=all_texts)\n\ndef create_vector():\n    all_texts=trymysql(trymysql.text1.id<10).select()\n    vector = []\n    for all in all_texts:\n        numbers = [all.concordance_number for all in trymysql(trymysql.allword.title==all.id).select()]\n        vector.append(numbers)\n    return dict(vector=vector)\n\nstop = [\'\xd1\x81\xd0\xb0\xd0\xbc\', \'\xd1\x82\xd0\xb0\xd0\xba\xd0\xbe\xd0\xb9\', \'\xd1\x81\xd0\xb2\xd0\xbe\xd0\xb9\', \'\xd1\x8d\xd1\x82\xd0\xbe\xd1\x82\', \'\xd0\xb4\xd1\x80\xd1\x83\xd0\xb3\xd0\xbe\xd0\xb9\', \'\xd1\x85\xd0\xbe\xd1\x80\xd0\xbe\xd1\x88\xd0\xb8\xd0\xb9\', \'\xd1\x86\xd0\xb5\xd0\xbb\xd1\x8b\xd0\xb9\', \'\xd0\xb2\xd0\xb5\xd1\x81\xd1\x8c\', \'\xd1\x82\xd0\xbe\xd1\x82\', \'\xd0\xbf\xd0\xbe\xd1\x81\xd0\xbb\xd0\xb5\xd0\xb4\xd0\xbd\xd0\xb8\xd0\xb9\', \'\xd0\xbc\xd0\xbe\xd0\xb9\', \'\xd1\x82\xd0\xb2\xd0\xbe\xd0\xb9\', \'\xd0\xbd\xd0\xb0\xd1\x88\', \'\xd1\x80\xd0\xb0\xd0\xb7\', \'\xd0\xba\xd0\xb0\xd0\xba\xd0\xbe\xd0\xb9\', \'\xd0\xbe\xd0\xb4\xd0\xb8\xd0\xbd\', \'\xd0\xbd\xd0\xbe\xd0\xb2\xd1\x8b\xd0\xb9\', \'\xd0\xbf\xd0\xbe\xd0\xbb\xd0\xbd\xd1\x8b\xd0\xb9\', \'\xd1\x82\xd1\x83\xd0\xba\', \'\xd0\xba\xd0\xb0\xd0\xb6\xd0\xb4\xd1\x8b\xd0\xb9\', \'\xd0\xb1\xd0\xbe\xd0\xbb\xd1\x8c\xd1\x88\xd0\xbe\xd0\xb9\', \'\xd0\xb2\xd1\x81\xd1\x8f\xd0\xba\xd0\xb8\xd0\xb9\', \'\xd1\x81\xd0\xb0\xd0\xbc\xd1\x8b\xd0\xb9\']\n\ndef word2vec():\n    sentences1 = []\n    for all in trymysql(trymysql.text1.id>0).select():\n        part=[\'NOUN\', \'ADJF\', \'ADJS\']\n        one = [alles.word for alles in trymysql((trymysql.allword.title==all.id)&(trymysql.allword.partos.belongs(part))).select() if alles.word not in stop]\n        sentences1.append(one)\n    model1 = gensim.models.Word2Vec(sentences1, min_count=10, window=10, size=300)\n    model1.save("/home/concordance/web2py/applications/test/uploads/models/ann_model_from_10_win10_size300")\n    return dict(model1=model1)\n\ndef model():\n    #new_model = gensim.models.Word2Vec.load("/home/concordance/web2py/applications/test/uploads/models/a_model_from_50_win20_size300")\n    new_model = gensim.models.Word2Vec.load(\'/home/concordance/deposit/model2\')\n    return dict(model1=new_model)\n\ndef doc2vec():\n    documents = []\n    authors = [1, 2, 4, 5, 7, 8, 9, 10, 11, 12, 13, 14, 15, 16, 17, 18, 19, 20, 21]\n    titles = [all.id for all in trymysql(trymysql.text1.author.belongs(authors)).select()]\n    part=[\'ADJF\', \'NOUN\', \'VERB\']\n    for all in titles:\n        one = [alles.word for alles in trymysql((trymysql.allword.title==all)&(trymysql.allword.partos.belongs(part))).select()]\n        docs = gensim.models.doc2vec.TaggedDocument(words=one, tags=[all])\n        documents.append(docs)\n    model = gensim.models.doc2vec.Doc2Vec(documents, size=100, window=8, min_count=5, workers=4)\n    model.save("/home/concordance/web2py/applications/test/uploads/models/blok")\n#    for x in authors:\n#        newdocuments = []\n#        titles = [all.id for all in trymysql(trymysql.text1.author==x).select()]\n#        for all in titles:\n#            one = [alles.word for alles in trymysql((trymysql.allword.title==all)&(trymysql.allword.partos.belongs(part))).select()]\n#            docs = gensim.models.doc2vec.TaggedDocument(words=one, tags=[all])\n#            newdocuments.append(docs)\n#        model.train(newdocuments)\n#    model.save("/home/concordance/web2py/applications/test/uploads/models/texts")\n    c = model.docvecs.most_similar(9999)\n    docs = []\n    for all in c:\n        text = trymysql(trymysql.text1.id==all[0]).select()[0]\n        docs.append(text)\n    osn = trymysql(trymysql.text1.id==9999).select()[0]\n    return dict(documents=c, docs= docs, osn=osn)\n\ndef doc2vec_find():\n#    model = gensim.models.doc2vec.Doc2Vec.load("/home/concordance/web2py/applications/test/uploads/models/blok")\n    authors = [1, 2, 4, 5, 7, 8, 9, 10, 11, 12, 13, 14, 15, 16, 17, 18, 19, 20, 21]\n    part=[\'ADJF\', \'NOUN\', \'VERB\']\n    newdocuments = []\n    for x in authors:\n        titles = [all.id for all in trymysql(trymysql.text1.author==x).select()]\n        for all in titles:\n            one = [alles.word for alles in trymysql((trymysql.allword.title==all)&(trymysql.allword.partos.belongs(part))).select()]\n            docs = gensim.models.doc2vec.TaggedDocument(words=one, tags=[all])\n            newdocuments.append(docs)\n    model = gensim.models.doc2vec.Doc2Vec(newdocuments, size=100, window=8, min_count=5, workers=4)\n    model.save("/home/concordance/web2py/applications/test/uploads/models/texts")\n    #c = model.docvecs.most_similar(\'8098L\')\n    return dict(model=model)\n\ndef couple_form():\n    form = SQLFORM.factory(Field(\'first\'), Field(\'second\')).process()\n    if form.accepted:\n        redirect(URL(\'couple\', vars = form.vars))\n    return dict(form=form)\n\ndef couple():\n    title = []\n    first = [all.title for all in trymysql(trymysql.allword.word==request.vars.first).select()]\n    for all in first:\n        if len(trymysql((trymysql.allword.word == request.vars.second)&(trymysql.allword.title==all)).select()) > 0:\n            title.append(all)\n    title = sorted(set(title))\n    texts = trymysql(trymysql.text1.id.belongs(title)).select()\n    return dict(title=title, one = request.vars.first, two = request.vars.second, texts=texts)\n\ndef test_gensim():\n    alles = []\n    for all in trymysql(trymysql.text1.id>0).select():\n        one=[new.word for new in trymysql((trymysql.allword.title==all.id)&(trymysql.allword.partos.belongs(("NOUN", "VERB")))).select()]\n        alles.append(one)\n    dictionary = gensim.corpora.Dictionary(alles)\n    corpus = [dictionary.doc2bow(alle) for alle in alles]\n    tfidf = models.TfidfModel(corpus, id2word=dictionary)\n    corpus_tfidf = tfidf[corpus]\n    lsi = models.lsimodel.LsiModel(corpus_tfidf, id2word=dictionary, num_topics=5)\n    #lda = gensim.models.ldamodel.LdaModel(corpus_tfidf, id2word=dictionary, num_topics=15, update_every=1, chunksize=10000, passes=1)\n    topics=lsi.print_topics(15)\n    return dict(topics=topics)\n\ndef birds():\n    new_model = gensim.models.Word2Vec.load("/home/concordance/web2py/applications/test/uploads/models/ann_model_from_10_win10_size300")\n    return dict(model1=new_model)\n\ndef zveri():\n    new_model = gensim.models.Word2Vec.load("/home/concordance/web2py/applications/test/uploads/models/ann_model_from_10_win10_size300")\n    return dict(model1=new_model)\n\nresponse._vars=response._caller(model)\n'
p7
sS'snapshot'
p8
(dp9
S'exception'
p10
(dp11
S'__module__'
p12
S"'cPickle'"
p13
sS'__getslice__'
p14
S"<method-wrapper '__getslice__' of UnpicklingError object>"
p15
sS'__str__'
p16
S'<bound method UnpicklingError.__str__ of UnpicklingError("invalid load key, \'3\'.",)>'
p17
sS'__reduce__'
p18
S'<built-in method __reduce__ of UnpicklingError object>'
p19
sS'__dict__'
p20
S'{}'
p21
sS'__sizeof__'
p22
S'<built-in method __sizeof__ of UnpicklingError object>'
p23
sS'__weakref__'
p24
S'None'
p25
sS'__init__'
p26
S"<method-wrapper '__init__' of UnpicklingError object>"
p27
sS'__setattr__'
p28
S"<method-wrapper '__setattr__' of UnpicklingError object>"
p29
sS'__reduce_ex__'
p30
S'<built-in method __reduce_ex__ of UnpicklingError object>'
p31
sS'__new__'
p32
S'<built-in method __new__ of type object>'
p33
sS'__format__'
p34
S'<built-in method __format__ of UnpicklingError object>'
p35
sS'__class__'
p36
S"<class 'cPickle.UnpicklingError'>"
p37
sS'__doc__'
p38
S'None'
p39
sS'__getitem__'
p40
S"<method-wrapper '__getitem__' of UnpicklingError object>"
p41
sS'__setstate__'
p42
S'<built-in method __setstate__ of UnpicklingError object>'
p43
sS'__getattribute__'
p44
S"<method-wrapper '__getattribute__' of UnpicklingError object>"
p45
sS'args'
p46
S'("invalid load key, \'3\'.",)'
p47
sS'__subclasshook__'
p48
S'<built-in method __subclasshook__ of type object>'
p49
sS'__unicode__'
p50
S'<built-in method __unicode__ of UnpicklingError object>'
p51
sS'__delattr__'
p52
S"<method-wrapper '__delattr__' of UnpicklingError object>"
p53
sS'__repr__'
p54
S"<method-wrapper '__repr__' of UnpicklingError object>"
p55
sS'__hash__'
p56
S"<method-wrapper '__hash__' of UnpicklingError object>"
p57
ssS'evalue'
p58
S"invalid load key, '3'."
p59
sS'request'
p60
cgluon.html
XML_unpickle
p61
(S's\xc3\\\x00\x00<div><table><tr><td style="font-weight:bold;vertical-align:top;">ajax</td><td style="vertical-align:top;">:</td><td><div>False</div></td></tr><tr><td style="font-weight:bold;vertical-align:top;">application</td><td style="vertical-align:top;">:</td><td><div>test</div></td></tr><tr><td style="font-weight:bold;vertical-align:top;">args</td><td style="vertical-align:top;">:</td><td><div><table></table></div></td></tr><tr><td style="font-weight:bold;vertical-align:top;">cid</td><td style="vertical-align:top;">:</td><td><div>None</div></td></tr><tr><td style="font-weight:bold;vertical-align:top;">client</td><td style="vertical-align:top;">:</td><td><div>188.166.76.195</div></td></tr><tr><td style="font-weight:bold;vertical-align:top;">controller</td><td style="vertical-align:top;">:</td><td><div>concordance</div></td></tr><tr><td style="font-weight:bold;vertical-align:top;">cookies</td><td style="vertical-align:top;">:</td><td><div><table><tr><td style="font-weight:bold;vertical-align:top;">session_id_admin</td><td style="vertical-align:top;">:</td><td><div>188.162.65.62-f2315a1e-fca7-41a2-a02b-74ed5fc98c41<table><tr><td style="font-weight:bold;vertical-align:top;">comment</td><td style="vertical-align:top;">:</td><td><div></div></td></tr><tr><td style="font-weight:bold;vertical-align:top;">domain</td><td style="vertical-align:top;">:</td><td><div></div></td></tr><tr><td style="font-weight:bold;vertical-align:top;">expires</td><td style="vertical-align:top;">:</td><td><div></div></td></tr><tr><td style="font-weight:bold;vertical-align:top;">httponly</td><td style="vertical-align:top;">:</td><td><div></div></td></tr><tr><td style="font-weight:bold;vertical-align:top;">max-age</td><td style="vertical-align:top;">:</td><td><div></div></td></tr><tr><td style="font-weight:bold;vertical-align:top;">path</td><td style="vertical-align:top;">:</td><td><div></div></td></tr><tr><td style="font-weight:bold;vertical-align:top;">secure</td><td style="vertical-align:top;">:</td><td><div></div></td></tr><tr><td style="font-weight:bold;vertical-align:top;">version</td><td style="vertical-align:top;">:</td><td><div></div></td></tr></table></div></td></tr><tr><td style="font-weight:bold;vertical-align:top;">session_id_english</td><td style="vertical-align:top;">:</td><td><div>188.162.64.139-de0cbb9e-f276-48d2-8540-f830647f7782<table><tr><td style="font-weight:bold;vertical-align:top;">comment</td><td style="vertical-align:top;">:</td><td><div></div></td></tr><tr><td style="font-weight:bold;vertical-align:top;">domain</td><td style="vertical-align:top;">:</td><td><div></div></td></tr><tr><td style="font-weight:bold;vertical-align:top;">expires</td><td style="vertical-align:top;">:</td><td><div></div></td></tr><tr><td style="font-weight:bold;vertical-align:top;">httponly</td><td style="vertical-align:top;">:</td><td><div></div></td></tr><tr><td style="font-weight:bold;vertical-align:top;">max-age</td><td style="vertical-align:top;">:</td><td><div></div></td></tr><tr><td style="font-weight:bold;vertical-align:top;">path</td><td style="vertical-align:top;">:</td><td><div></div></td></tr><tr><td style="font-weight:bold;vertical-align:top;">secure</td><td style="vertical-align:top;">:</td><td><div></div></td></tr><tr><td style="font-weight:bold;vertical-align:top;">version</td><td style="vertical-align:top;">:</td><td><div></div></td></tr></table></div></td></tr><tr><td style="font-weight:bold;vertical-align:top;">session_id_test</td><td style="vertical-align:top;">:</td><td><div>178.62.237.202-2cb16a4e-c5ff-4976-8a39-eb01ecbb6525<table><tr><td style="font-weight:bold;vertical-align:top;">comment</td><td style="vertical-align:top;">:</td><td><div></div></td></tr><tr><td style="font-weight:bold;vertical-align:top;">domain</td><td style="vertical-align:top;">:</td><td><div></div></td></tr><tr><td style="font-weight:bold;vertical-align:top;">expires</td><td style="vertical-align:top;">:</td><td><div></div></td></tr><tr><td style="font-weight:bold;vertical-align:top;">httponly</td><td style="vertical-align:top;">:</td><td><div></div></td></tr><tr><td style="font-weight:bold;vertical-align:top;">max-age</td><td style="vertical-align:top;">:</td><td><div></div></td></tr><tr><td style="font-weight:bold;vertical-align:top;">path</td><td style="vertical-align:top;">:</td><td><div></div></td></tr><tr><td style="font-weight:bold;vertical-align:top;">secure</td><td style="vertical-align:top;">:</td><td><div></div></td></tr><tr><td style="font-weight:bold;vertical-align:top;">version</td><td style="vertical-align:top;">:</td><td><div></div></td></tr></table></div></td></tr><tr><td style="font-weight:bold;vertical-align:top;">session_id_welcome</td><td style="vertical-align:top;">:</td><td><div>188.162.64.139-fa706910-42d8-4dc5-bb5a-20e77db1a69c<table><tr><td style="font-weight:bold;vertical-align:top;">comment</td><td style="vertical-align:top;">:</td><td><div></div></td></tr><tr><td style="font-weight:bold;vertical-align:top;">domain</td><td style="vertical-align:top;">:</td><td><div></div></td></tr><tr><td style="font-weight:bold;vertical-align:top;">expires</td><td style="vertical-align:top;">:</td><td><div></div></td></tr><tr><td style="font-weight:bold;vertical-align:top;">httponly</td><td style="vertical-align:top;">:</td><td><div></div></td></tr><tr><td style="font-weight:bold;vertical-align:top;">max-age</td><td style="vertical-align:top;">:</td><td><div></div></td></tr><tr><td style="font-weight:bold;vertical-align:top;">path</td><td style="vertical-align:top;">:</td><td><div></div></td></tr><tr><td style="font-weight:bold;vertical-align:top;">secure</td><td style="vertical-align:top;">:</td><td><div></div></td></tr><tr><td style="font-weight:bold;vertical-align:top;">version</td><td style="vertical-align:top;">:</td><td><div></div></td></tr></table></div></td></tr></table></div></td></tr><tr><td style="font-weight:bold;vertical-align:top;">env</td><td style="vertical-align:top;">:</td><td><div><table><tr><td style="font-weight:bold;vertical-align:top;">CONTENT_LENGTH</td><td style="vertical-align:top;">:</td><td><div></div></td></tr><tr><td style="font-weight:bold;vertical-align:top;">CONTENT_TYPE</td><td style="vertical-align:top;">:</td><td><div></div></td></tr><tr><td style="font-weight:bold;vertical-align:top;">DOCUMENT_ROOT</td><td style="vertical-align:top;">:</td><td><div>/usr/local/openresty/nginx/html</div></td></tr><tr><td style="font-weight:bold;vertical-align:top;">HTTPS</td><td style="vertical-align:top;">:</td><td><div>on</div></td></tr><tr><td style="font-weight:bold;vertical-align:top;">HTTP_ACCEPT</td><td style="vertical-align:top;">:</td><td><div>text/html,application/xhtml+xml,application/xml;q=0.9,image/webp,*/*;q=0.8</div></td></tr><tr><td style="font-weight:bold;vertical-align:top;">HTTP_ACCEPT_ENCODING</td><td style="vertical-align:top;">:</td><td><div>gzip, deflate, sdch, br</div></td></tr><tr><td style="font-weight:bold;vertical-align:top;">HTTP_ACCEPT_LANGUAGE</td><td style="vertical-align:top;">:</td><td><div>ru,en;q=0.8,en-US;q=0.6</div></td></tr><tr><td style="font-weight:bold;vertical-align:top;">HTTP_CONNECTION</td><td style="vertical-align:top;">:</td><td><div>close</div></td></tr><tr><td style="font-weight:bold;vertical-align:top;">HTTP_COOKIE</td><td style="vertical-align:top;">:</td><td><div>session_id_english=188.162.64.139-de0cbb9e-f276-48d2-8540-f830647f7782; session_id_welcome=188.162.64.139-fa706910-42d8-4dc5-bb5a-20e77db1a69c; session_id_test=178.62.237.202-2cb16a4e-c5ff-4976-8a39-eb01ecbb6525; __utma=134993891.1930206007.1461909814.1466591539.1466626682.11; __utmc=134993891; __utmz=134993891.1461913226.1.1.utmcsr=(direct)|utmccn=(direct)|utmcmd=(none); _ga=GA1.2.1930206007.1461909814; _gat=1; session_id_admin=188.162.65.62-f2315a1e-fca7-41a2-a02b-74ed5fc98c41</div></td></tr><tr><td style="font-weight:bold;vertical-align:top;">HTTP_HOST</td><td style="vertical-align:top;">:</td><td><div>concordance.pythonanywhere.com</div></td></tr><tr><td style="font-weight:bold;vertical-align:top;">HTTP_UPGRADE_INSECURE_REQUESTS</td><td style="vertical-align:top;">:</td><td><div>1</div></td></tr><tr><td style="font-weight:bold;vertical-align:top;">HTTP_USER_AGENT</td><td style="vertical-align:top;">:</td><td><div>Mozilla/5.0 (Windows NT 10.0; WOW64) AppleWebKit/537.36 (KHTML, like Gecko) Chrome/51.0.2704.103 Safari/537.36</div></td></tr><tr><td style="font-weight:bold;vertical-align:top;">HTTP_X_FORWARDED_FOR</td><td style="vertical-align:top;">:</td><td><div>188.166.76.195</div></td></tr><tr><td style="font-weight:bold;vertical-align:top;">HTTP_X_REAL_IP</td><td style="vertical-align:top;">:</td><td><div>188.166.76.195</div></td></tr><tr><td style="font-weight:bold;vertical-align:top;">PATH_INFO</td><td style="vertical-align:top;">:</td><td><div>/test/concordance/model</div></td></tr><tr><td style="font-weight:bold;vertical-align:top;">QUERY_STRING</td><td style="vertical-align:top;">:</td><td><div></div></td></tr><tr><td style="font-weight:bold;vertical-align:top;">REMOTE_ADDR</td><td style="vertical-align:top;">:</td><td><div>10.111.216.9</div></td></tr><tr><td style="font-weight:bold;vertical-align:top;">REMOTE_PORT</td><td style="vertical-align:top;">:</td><td><div>36300</div></td></tr><tr><td style="font-weight:bold;vertical-align:top;">REQUEST_METHOD</td><td style="vertical-align:top;">:</td><td><div>GET</div></td></tr><tr><td style="font-weight:bold;vertical-align:top;">REQUEST_URI</td><td style="vertical-align:top;">:</td><td><div>/test/concordance/model</div></td></tr><tr><td style="font-weight:bold;vertical-align:top;">SCRIPT_NAME</td><td style="vertical-align:top;">:</td><td><div></div></td></tr><tr><td style="font-weight:bold;vertical-align:top;">SERVER_NAME</td><td style="vertical-align:top;">:</td><td><div>concordance.pythonanywhere.com</div></td></tr><tr><td style="font-weight:bold;vertical-align:top;">SERVER_PORT</td><td style="vertical-align:top;">:</td><td><div>443</div></td></tr><tr><td style="font-weight:bold;vertical-align:top;">SERVER_PROTOCOL</td><td style="vertical-align:top;">:</td><td><div>HTTP/1.1</div></td></tr><tr><td style="font-weight:bold;vertical-align:top;">app_folders</td><td style="vertical-align:top;">:</td><td><div>set([&#x27;/home/concordance/web2py/applications/admin/&#x27;, &#x27;/home/concordance/web2py/applications/test/&#x27;])</div></td></tr><tr><td style="font-weight:bold;vertical-align:top;">applications_parent</td><td style="vertical-align:top;">:</td><td><div>/home/concordance/web2py</div></td></tr><tr><td style="font-weight:bold;vertical-align:top;">content_length</td><td style="vertical-align:top;">:</td><td><div></div></td></tr><tr><td style="font-weight:bold;vertical-align:top;">content_type</td><td style="vertical-align:top;">:</td><td><div></div></td></tr><tr><td style="font-weight:bold;vertical-align:top;">db_sessions</td><td style="vertical-align:top;">:</td><td><div>set([])</div></td></tr><tr><td style="font-weight:bold;vertical-align:top;">debugging</td><td style="vertical-align:top;">:</td><td><div>True</div></td></tr><tr><td style="font-weight:bold;vertical-align:top;">document_root</td><td style="vertical-align:top;">:</td><td><div>/usr/local/openresty/nginx/html</div></td></tr><tr><td style="font-weight:bold;vertical-align:top;">gluon_parent</td><td style="vertical-align:top;">:</td><td><div>/home/concordance/web2py</div></td></tr><tr><td style="font-weight:bold;vertical-align:top;">http_accept</td><td style="vertical-align:top;">:</td><td><div>text/html,application/xhtml+xml,application/xml;q=0.9,image/webp,*/*;q=0.8</div></td></tr><tr><td style="font-weight:bold;vertical-align:top;">http_accept_encoding</td><td style="vertical-align:top;">:</td><td><div>gzip, deflate, sdch, br</div></td></tr><tr><td style="font-weight:bold;vertical-align:top;">http_accept_language</td><td style="vertical-align:top;">:</td><td><div>ru,en;q=0.8,en-US;q=0.6</div></td></tr><tr><td style="font-weight:bold;vertical-align:top;">http_connection</td><td style="vertical-align:top;">:</td><td><div>close</div></td></tr><tr><td style="font-weight:bold;vertical-align:top;">http_cookie</td><td style="vertical-align:top;">:</td><td><div>session_id_english=188.162.64.139-de0cbb9e-f276-48d2-8540-f830647f7782; session_id_welcome=188.162.64.139-fa706910-42d8-4dc5-bb5a-20e77db1a69c; session_id_test=178.62.237.202-2cb16a4e-c5ff-4976-8a39-eb01ecbb6525; __utma=134993891.1930206007.1461909814.1466591539.1466626682.11; __utmc=134993891; __utmz=134993891.1461913226.1.1.utmcsr=(direct)|utmccn=(direct)|utmcmd=(none); _ga=GA1.2.1930206007.1461909814; _gat=1; session_id_admin=188.162.65.62-f2315a1e-fca7-41a2-a02b-74ed5fc98c41</div></td></tr><tr><td style="font-weight:bold;vertical-align:top;">http_host</td><td style="vertical-align:top;">:</td><td><div>concordance.pythonanywhere.com</div></td></tr><tr><td style="font-weight:bold;vertical-align:top;">http_upgrade_insecure_requests</td><td style="vertical-align:top;">:</td><td><div>1</div></td></tr><tr><td style="font-weight:bold;vertical-align:top;">http_user_agent</td><td style="vertical-align:top;">:</td><td><div>Mozilla/5.0 (Windows NT 10.0; WOW64) AppleWebKit/537.36 (KHTML, like Gecko) Chrome/51.0.2704.103 Safari/537.36</div></td></tr><tr><td style="font-weight:bold;vertical-align:top;">http_x_forwarded_for</td><td style="vertical-align:top;">:</td><td><div>188.166.76.195</div></td></tr><tr><td style="font-weight:bold;vertical-align:top;">http_x_real_ip</td><td style="vertical-align:top;">:</td><td><div>188.166.76.195</div></td></tr><tr><td style="font-weight:bold;vertical-align:top;">https</td><td style="vertical-align:top;">:</td><td><div>on</div></td></tr><tr><td style="font-weight:bold;vertical-align:top;">is_jython</td><td style="vertical-align:top;">:</td><td><div>False</div></td></tr><tr><td style="font-weight:bold;vertical-align:top;">is_pypy</td><td style="vertical-align:top;">:</td><td><div>False</div></td></tr><tr><td style="font-weight:bold;vertical-align:top;">is_source</td><td style="vertical-align:top;">:</td><td><div>True</div></td></tr><tr><td style="font-weight:bold;vertical-align:top;">local_hosts</td><td style="vertical-align:top;">:</td><td><div><table><tr><td><div>giles-liveweb8</div></td></tr><tr><td><div>::ffff:127.0.0.1</div></td></tr><tr><td><div>::1</div></td></tr><tr><td><div>50.19.109.98</div></td></tr><tr><td><div>localhost</div></td></tr><tr><td><div>concordance.pythonanywhere.com</div></td></tr><tr><td><div>127.0.0.1</div></td></tr></table></div></td></tr><tr><td style="font-weight:bold;vertical-align:top;">path_info</td><td style="vertical-align:top;">:</td><td><div>/test/concordance/model</div></td></tr><tr><td style="font-weight:bold;vertical-align:top;">query_string</td><td style="vertical-align:top;">:</td><td><div></div></td></tr><tr><td style="font-weight:bold;vertical-align:top;">remote_addr</td><td style="vertical-align:top;">:</td><td><div>10.111.216.9</div></td></tr><tr><td style="font-weight:bold;vertical-align:top;">remote_port</td><td style="vertical-align:top;">:</td><td><div>36300</div></td></tr><tr><td style="font-weight:bold;vertical-align:top;">request_method</td><td style="vertical-align:top;">:</td><td><div>GET</div></td></tr><tr><td style="font-weight:bold;vertical-align:top;">request_uri</td><td style="vertical-align:top;">:</td><td><div>/test/concordance/model</div></td></tr><tr><td style="font-weight:bold;vertical-align:top;">script_name</td><td style="vertical-align:top;">:</td><td><div></div></td></tr><tr><td style="font-weight:bold;vertical-align:top;">server_name</td><td style="vertical-align:top;">:</td><td><div>concordance.pythonanywhere.com</div></td></tr><tr><td style="font-weight:bold;vertical-align:top;">server_port</td><td style="vertical-align:top;">:</td><td><div>443</div></td></tr><tr><td style="font-weight:bold;vertical-align:top;">server_protocol</td><td style="vertical-align:top;">:</td><td><div>HTTP/1.1</div></td></tr><tr><td style="font-weight:bold;vertical-align:top;">uwsgi.node</td><td style="vertical-align:top;">:</td><td><div>giles-liveweb8</div></td></tr><tr><td style="font-weight:bold;vertical-align:top;">uwsgi.version</td><td style="vertical-align:top;">:</td><td><div>2.0.5.1</div></td></tr><tr><td style="font-weight:bold;vertical-align:top;">uwsgi_node</td><td style="vertical-align:top;">:</td><td><div>giles-liveweb8</div></td></tr><tr><td style="font-weight:bold;vertical-align:top;">uwsgi_version</td><td style="vertical-align:top;">:</td><td><div>2.0.5.1</div></td></tr><tr><td style="font-weight:bold;vertical-align:top;">web2py_original_uri</td><td style="vertical-align:top;">:</td><td><div>/test/concordance/model</div></td></tr><tr><td style="font-weight:bold;vertical-align:top;">web2py_path</td><td style="vertical-align:top;">:</td><td><div>/home/concordance/web2py</div></td></tr><tr><td style="font-weight:bold;vertical-align:top;">web2py_version</td><td style="vertical-align:top;">:</td><td><div>2.9.5-stable+timestamp.2014.03.16.02.35.39</div></td></tr><tr><td style="font-weight:bold;vertical-align:top;">wsgi.errors</td><td style="vertical-align:top;">:</td><td><div>&lt;uwsgi_file__bin_user_wsgi_wrapper.ErrorLogFile object at 0x7ffb004ceb90&gt;</div></td></tr><tr><td style="font-weight:bold;vertical-align:top;">wsgi.file_wrapper</td><td style="vertical-align:top;">:</td><td><div>&lt;built-in function uwsgi_sendfile&gt;</div></td></tr><tr><td style="font-weight:bold;vertical-align:top;">wsgi.input</td><td style="vertical-align:top;">:</td><td><div>&lt;uwsgi._Input object at 0x7ffade489ed0&gt;</div></td></tr><tr><td style="font-weight:bold;vertical-align:top;">wsgi.multiprocess</td><td style="vertical-align:top;">:</td><td><div>True</div></td></tr><tr><td style="font-weight:bold;vertical-align:top;">wsgi.multithread</td><td style="vertical-align:top;">:</td><td><div>False</div></td></tr><tr><td style="font-weight:bold;vertical-align:top;">wsgi.run_once</td><td style="vertical-align:top;">:</td><td><div>False</div></td></tr><tr><td style="font-weight:bold;vertical-align:top;">wsgi.url_scheme</td><td style="vertical-align:top;">:</td><td><div>https</div></td></tr><tr><td style="font-weight:bold;vertical-align:top;">wsgi.version</td><td style="vertical-align:top;">:</td><td><div><table><tr><td><div>1</div></td></tr><tr><td><div>0</div></td></tr></table></div></td></tr><tr><td style="font-weight:bold;vertical-align:top;">wsgi_errors</td><td style="vertical-align:top;">:</td><td><div>&lt;uwsgi_file__bin_user_wsgi_wrapper.ErrorLogFile object at 0x7ffb004ceb90&gt;</div></td></tr><tr><td style="font-weight:bold;vertical-align:top;">wsgi_file_wrapper</td><td style="vertical-align:top;">:</td><td><div>&lt;built-in function uwsgi_sendfile&gt;</div></td></tr><tr><td style="font-weight:bold;vertical-align:top;">wsgi_input</td><td style="vertical-align:top;">:</td><td><div>&lt;uwsgi._Input object at 0x7ffade489ed0&gt;</div></td></tr><tr><td style="font-weight:bold;vertical-align:top;">wsgi_multiprocess</td><td style="vertical-align:top;">:</td><td><div>True</div></td></tr><tr><td style="font-weight:bold;vertical-align:top;">wsgi_multithread</td><td style="vertical-align:top;">:</td><td><div>False</div></td></tr><tr><td style="font-weight:bold;vertical-align:top;">wsgi_run_once</td><td style="vertical-align:top;">:</td><td><div>False</div></td></tr><tr><td style="font-weight:bold;vertical-align:top;">wsgi_url_scheme</td><td style="vertical-align:top;">:</td><td><div>https</div></td></tr><tr><td style="font-weight:bold;vertical-align:top;">wsgi_version</td><td style="vertical-align:top;">:</td><td><div><table><tr><td><div>1</div></td></tr><tr><td><div>0</div></td></tr></table></div></td></tr></table></div></td></tr><tr><td style="font-weight:bold;vertical-align:top;">extension</td><td style="vertical-align:top;">:</td><td><div>html</div></td></tr><tr><td style="font-weight:bold;vertical-align:top;">folder</td><td style="vertical-align:top;">:</td><td><div>/home/concordance/web2py/applications/test/</div></td></tr><tr><td style="font-weight:bold;vertical-align:top;">function</td><td style="vertical-align:top;">:</td><td><div>model</div></td></tr><tr><td style="font-weight:bold;vertical-align:top;">global_settings</td><td style="vertical-align:top;">:</td><td><div><table><tr><td style="font-weight:bold;vertical-align:top;">app_folders</td><td style="vertical-align:top;">:</td><td><div>set([&#x27;/home/concordance/web2py/applications/admin/&#x27;, &#x27;/home/concordance/web2py/applications/test/&#x27;])</div></td></tr><tr><td style="font-weight:bold;vertical-align:top;">applications_parent</td><td style="vertical-align:top;">:</td><td><div>/home/concordance/web2py</div></td></tr><tr><td style="font-weight:bold;vertical-align:top;">db_sessions</td><td style="vertical-align:top;">:</td><td><div>set([])</div></td></tr><tr><td style="font-weight:bold;vertical-align:top;">debugging</td><td style="vertical-align:top;">:</td><td><div>True</div></td></tr><tr><td style="font-weight:bold;vertical-align:top;">gluon_parent</td><td style="vertical-align:top;">:</td><td><div>/home/concordance/web2py</div></td></tr><tr><td style="font-weight:bold;vertical-align:top;">is_jython</td><td style="vertical-align:top;">:</td><td><div>False</div></td></tr><tr><td style="font-weight:bold;vertical-align:top;">is_pypy</td><td style="vertical-align:top;">:</td><td><div>False</div></td></tr><tr><td style="font-weight:bold;vertical-align:top;">is_source</td><td style="vertical-align:top;">:</td><td><div>True</div></td></tr><tr><td style="font-weight:bold;vertical-align:top;">local_hosts</td><td style="vertical-align:top;">:</td><td><div><table><tr><td><div>giles-liveweb8</div></td></tr><tr><td><div>::ffff:127.0.0.1</div></td></tr><tr><td><div>::1</div></td></tr><tr><td><div>50.19.109.98</div></td></tr><tr><td><div>localhost</div></td></tr><tr><td><div>concordance.pythonanywhere.com</div></td></tr><tr><td><div>127.0.0.1</div></td></tr></table></div></td></tr><tr><td style="font-weight:bold;vertical-align:top;">web2py_version</td><td style="vertical-align:top;">:</td><td><div>2.9.5-stable+timestamp.2014.03.16.02.35.39</div></td></tr></table></div></td></tr><tr><td style="font-weight:bold;vertical-align:top;">is_https</td><td style="vertical-align:top;">:</td><td><div>True</div></td></tr><tr><td style="font-weight:bold;vertical-align:top;">is_local</td><td style="vertical-align:top;">:</td><td><div>False</div></td></tr><tr><td style="font-weight:bold;vertical-align:top;">is_restful</td><td style="vertical-align:top;">:</td><td><div>False</div></td></tr><tr><td style="font-weight:bold;vertical-align:top;">now</td><td style="vertical-align:top;">:</td><td><div>datetime.datetime(2016, 6, 22, 20, 52, 49, 791409)</div></td></tr><tr><td style="font-weight:bold;vertical-align:top;">raw_args</td><td style="vertical-align:top;">:</td><td><div></div></td></tr><tr><td style="font-weight:bold;vertical-align:top;">raw_extension</td><td style="vertical-align:top;">:</td><td><div>None</div></td></tr><tr><td style="font-weight:bold;vertical-align:top;">url</td><td style="vertical-align:top;">:</td><td><div>/test/concordance/model</div></td></tr><tr><td style="font-weight:bold;vertical-align:top;">utcnow</td><td style="vertical-align:top;">:</td><td><div>datetime.datetime(2016, 6, 22, 20, 52, 49, 791428)</div></td></tr><tr><td style="font-weight:bold;vertical-align:top;">uuid</td><td style="vertical-align:top;">:</td><td><div>test/188.166.76.195.2016-06-22.20-52-49.b9603b7f-3f6b-4c8a-bb74-438c303977d3</div></td></tr><tr><td style="font-weight:bold;vertical-align:top;">wsgi</td><td style="vertical-align:top;">:</td><td><div>&lt;gluon.main.LazyWSGI object at 0x7ffadd63ddd0&gt;</div></td></tr></table></div>'
tRp62
sS'frames'
p63
(lp64
(dp65
S'file'
p66
S'/home/concordance/web2py/gluon/restricted.py'
p67
sS'dump'
p68
(dp69
S'environment'
p70
S"{'A': <class 'gluon.html.A'>, 'ANY_OF': <class 'gluon.validators.ANY_OF'>, 'Auth': <class 'gluon.tools.Auth'>, 'B': <class 'gluon.html.B'>, 'BEAUTIFY': <class 'gluon.html.BEAUTIFY'>, 'BODY': <class 'gluon.html.BODY'>, 'BR': <class 'gluon.html.BR'>, 'BUTTON': <class 'gluon.html.BUTTON'>, 'CAT': <class 'gluon.html.CAT'>, 'CENTER': <class 'gluon.html.CENTER'>, ...}"
p71
sS'ccode'
p72
S'<code object <module> at 0x7ffadd585630, file "/...cations/test/controllers/concordance.py", line 3>'
p73
ssS'lnum'
p74
I220
sS'lines'
p75
(dp76
I224
S'        # do not encapsulate (obfuscate) the original RestrictedError'
p77
sI215
S'    try:'
p78
sI216
S'        if isinstance(code, types.CodeType):'
p79
sI217
S'            ccode = code'
p80
sI218
S'        else:'
p81
sI219
S'            ccode = compile2(code, layer)'
p82
sI220
S'        exec ccode in environment'
p83
sI221
S'    except HTTP:'
p84
sI222
S'        raise'
p85
sI223
S'    except RestrictedError:'
p86
ssS'call'
p87
S"(code='# coding: utf8\\n# coding: utf8\\nimport nltk\\nimport...w_model)\\n\\nresponse._vars=response._caller(model)\\n', environment={'A': <class 'gluon.html.A'>, 'ANY_OF': <class 'gluon.validators.ANY_OF'>, 'Auth': <class 'gluon.tools.Auth'>, 'B': <class 'gluon.html.B'>, 'BEAUTIFY': <class 'gluon.html.BEAUTIFY'>, 'BODY': <class 'gluon.html.BODY'>, 'BR': <class 'gluon.html.BR'>, 'BUTTON': <class 'gluon.html.BUTTON'>, 'CAT': <class 'gluon.html.CAT'>, 'CENTER': <class 'gluon.html.CENTER'>, ...}, layer='/home/concordance/web2py/applications/test/controllers/concordance.py')"
p88
sS'func'
p89
S'restricted'
p90
sa(dp91
g66
S'/home/concordance/web2py/applications/test/controllers/concordance.py'
p92
sg68
(dp93
sg74
I153
sg75
(dp94
I142
S'    topics=lsi.print_topics(15)'
p95
sI143
S'    return dict(topics=topics)'
p96
sI144
S''
sI145
S'def birds():'
p97
sI146
S'    new_model = gensim.models.Word2Vec.load("/home/concordance/web2py/applications/test/uploads/models/ann_model_from_10_win10_size300")'
p98
sI147
S'    return dict(model1=new_model)'
p99
sI148
S''
sI149
S'def zveri():'
p100
sI150
S'    new_model = gensim.models.Word2Vec.load("/home/concordance/web2py/applications/test/uploads/models/ann_model_from_10_win10_size300")'
p101
sI151
S'    return dict(model1=new_model)'
p102
ssg87
S'()'
p103
sg89
S'<module>'
p104
sa(dp105
g66
S'/home/concordance/web2py/gluon/globals.py'
p106
sg68
(dp107
S'self'
p108
S'undefined'
p109
sS'f'
S'<function model>'
p110
ssg74
I385
sg75
(dp111
I384
S'        self._vars = None'
p112
sI385
S'        self._caller = lambda f: f()'
p113
sI386
S'        self._view_environment = None'
p114
sI387
S'        self._custom_commit = None'
p115
sI388
S'        self._custom_rollback = None'
p116
sI389
S''
sI380
S'        self.menu = []             # used by the default view layout'
p117
sI381
S'        self.files = []            # used by web2py_ajax.html'
p118
sI382
S'        self.generic_patterns = []  # patterns to allow generic views'
p119
sI383
S"        self.delimiters = ('{{', '}}')"
p120
ssg87
S'(f=<function model>)'
p121
sg89
S'<lambda>'
p122
sa(dp123
g66
S'/home/concordance/web2py/applications/test/controllers/concordance.py'
p124
sg68
(dp125
S'new_model'
p126
g109
sS'gensim.models.Word2Vec.load'
p127
S"<bound method type.load of <class 'gensim.models.word2vec.Word2Vec'>>"
p128
sS'gensim.models.Word2Vec'
p129
S"<class 'gensim.models.word2vec.Word2Vec'>"
p130
sS'gensim.models'
p131
S"<module 'gensim.models' from '/home/concordance/...hon2.7/site-packages/gensim/models/__init__.pyc'>"
p132
sS'global gensim'
p133
S"<module 'gensim' from '/home/concordance/.local/lib/python2.7/site-packages/gensim/__init__.pyc'>"
p134
ssg74
I68
sg75
(dp135
I64
S'    return dict(model1=model1)'
p136
sI65
S''
sI66
S'def model():'
p137
sI67
S'    #new_model = gensim.models.Word2Vec.load("/home/concordance/web2py/applications/test/uploads/models/a_model_from_50_win20_size300")'
p138
sI68
S"    new_model = gensim.models.Word2Vec.load('/home/concordance/deposit/model2')"
p139
sI69
S'    return dict(model1=new_model)'
p140
sI70
S''
sI71
S'def doc2vec():'
p141
sI72
S'    documents = []'
p142
sI63
S'    model1.save("/home/concordance/web2py/applications/test/uploads/models/ann_model_from_10_win10_size300")'
p143
ssg87
S'()'
p144
sg89
S'model'
p145
sa(dp146
g66
S'/home/concordance/.local/lib/python2.7/site-packages/gensim/models/word2vec.py'
p147
sg68
(dp148
S'args'
p149
S"('/home/concordance/deposit/model2',)"
p150
sS').load'
p151
S"<bound method type.load of <class 'gensim.models.word2vec.Word2Vec'>>"
p152
sS'global Word2Vec'
p153
S"<class 'gensim.models.word2vec.Word2Vec'>"
p154
sS'kwargs'
p155
g21
sS'model'
p156
g109
sS'builtinsuper'
p157
S"<type 'super'>"
p158
sS'cls'
p159
S"<class 'gensim.models.word2vec.Word2Vec'>"
p160
ssg74
I1371
sg75
(dp161
I1366
S''
sI1367
S'    save.__doc__ = utils.SaveLoad.save.__doc__'
p162
sI1368
S''
sI1369
S'    @classmethod'
p163
sI1370
S'    def load(cls, *args, **kwargs):'
p164
sI1371
S'        model = super(Word2Vec, cls).load(*args, **kwargs)'
p165
sI1372
S'        # update older models'
p166
sI1373
S"        if hasattr(model, 'table'):"
p167
sI1374
S"            delattr(model, 'table')  # discard in favor of cum_table"
p168
sI1375
S'        if model.negative:'
p169
ssg87
S"(cls=<class 'gensim.models.word2vec.Word2Vec'>, *args=('/home/concordance/deposit/model2',), **kwargs={})"
p170
sg89
S'load'
p171
sa(dp172
g66
S'/home/concordance/.local/lib/python2.7/site-packages/gensim/utils.py'
p173
sg68
(dp174
S'obj'
p175
g109
sS'fname'
p176
S"'/home/concordance/deposit/model2'"
p177
sS'global unpickle'
p178
S'<function unpickle>'
p179
ssg74
I252
sg75
(dp180
I256
S''
sI247
S'        """'
p181
sI248
S'        logger.info("loading %s object from %s" % (cls.__name__, fname))'
p182
sI249
S''
sI250
S'        compress, subname = SaveLoad._adapt_by_suffix(fname)'
p183
sI251
S''
sI252
S'        obj = unpickle(fname)'
p184
sI253
S'        obj._load_specials(fname, mmap, compress, subname)'
p185
sI254
S'        return obj'
p186
sI255
S''
ssg87
S"(cls=<class 'gensim.models.word2vec.Word2Vec'>, fname='/home/concordance/deposit/model2', mmap=None)"
p187
sg89
g171
sa(dp188
g66
S'/home/concordance/.local/lib/python2.7/site-packages/gensim/utils.py'
p189
sg68
(dp190
S'_pickle.load'
p191
S'<built-in function load>'
p192
sS'global _pickle'
p193
S"<module 'cPickle' (built-in)>"
p194
sS'f'
S"<closed file '/home/concordance/deposit/model2', mode 'rb'>"
p195
ssg74
I907
sg75
(dp196
I902
S''
sI903
S''
sI904
S'def unpickle(fname):'
p197
sI905
S'    """Load pickled object from `fname`"""'
p198
sI906
S'    with smart_open(fname) as f:'
p199
sI907
S'        return _pickle.load(f)'
p200
sI908
S''
sI909
S''
sI910
S'def revdict(d):'
p201
sI911
S'    """'
p202
ssg87
S"(fname='/home/concordance/deposit/model2')"
p203
sg89
S'unpickle'
p204
sasS'pyver'
p205
S'Python 2.7.6: /usr/local/bin/uwsgi (prefix: /usr)'
p206
sS'session'
p207
g61
(S's\x1a\x00\x00\x00<div><table></table></div>'
tRp208
sS'etype'
p209
S"<class 'cPickle.UnpicklingError'>"
p210
sS'date'
p211
S'Wed Jun 22 20:52:50 2016'
p212
sS'response'
p213
g61
(S's\x97\x1e\x00\x00<div><table><tr><td style="font-weight:bold;vertical-align:top;">body</td><td style="vertical-align:top;">:</td><td><div>&lt;cStringIO.StringO object at 0x7ffadd9e2e30&gt;</div></td></tr><tr><td style="font-weight:bold;vertical-align:top;">cookies</td><td style="vertical-align:top;">:</td><td><div><table><tr><td style="font-weight:bold;vertical-align:top;">session_id_test</td><td style="vertical-align:top;">:</td><td><div>178.62.237.202-2cb16a4e-c5ff-4976-8a39-eb01ecbb6525<table><tr><td style="font-weight:bold;vertical-align:top;">comment</td><td style="vertical-align:top;">:</td><td><div></div></td></tr><tr><td style="font-weight:bold;vertical-align:top;">domain</td><td style="vertical-align:top;">:</td><td><div></div></td></tr><tr><td style="font-weight:bold;vertical-align:top;">expires</td><td style="vertical-align:top;">:</td><td><div></div></td></tr><tr><td style="font-weight:bold;vertical-align:top;">httponly</td><td style="vertical-align:top;">:</td><td><div></div></td></tr><tr><td style="font-weight:bold;vertical-align:top;">max-age</td><td style="vertical-align:top;">:</td><td><div></div></td></tr><tr><td style="font-weight:bold;vertical-align:top;">path</td><td style="vertical-align:top;">:</td><td><div>/</div></td></tr><tr><td style="font-weight:bold;vertical-align:top;">secure</td><td style="vertical-align:top;">:</td><td><div></div></td></tr><tr><td style="font-weight:bold;vertical-align:top;">version</td><td style="vertical-align:top;">:</td><td><div></div></td></tr></table></div></td></tr></table></div></td></tr><tr><td style="font-weight:bold;vertical-align:top;">delimiters</td><td style="vertical-align:top;">:</td><td><div><table><tr><td><div>{{</div></td></tr><tr><td><div>}}</div></td></tr></table></div></td></tr><tr><td style="font-weight:bold;vertical-align:top;">files</td><td style="vertical-align:top;">:</td><td><div><table></table></div></td></tr><tr><td style="font-weight:bold;vertical-align:top;">flash</td><td style="vertical-align:top;">:</td><td><div></div></td></tr><tr><td style="font-weight:bold;vertical-align:top;">generic_patterns</td><td style="vertical-align:top;">:</td><td><div><table></table></div></td></tr><tr><td style="font-weight:bold;vertical-align:top;">google_analytics_id</td><td style="vertical-align:top;">:</td><td><div>UA-52567545-1</div></td></tr><tr><td style="font-weight:bold;vertical-align:top;">headers</td><td style="vertical-align:top;">:</td><td><div><table><tr><td style="font-weight:bold;vertical-align:top;">X-Powered-By</td><td style="vertical-align:top;">:</td><td><div>web2py</div></td></tr></table></div></td></tr><tr><td style="font-weight:bold;vertical-align:top;">logo</td><td style="vertical-align:top;">:</td><td><div><a class="brand" href="http://concordances.ru"><b>concor<span>dances</span></b>.ru</a></div></td></tr><tr><td style="font-weight:bold;vertical-align:top;">menu</td><td style="vertical-align:top;">:</td><td><div><table><tr><td><div><table><tr><td><div>Home</div></td></tr><tr><td><div>False</div></td></tr><tr><td><div>/test/default/index</div></td></tr><tr><td><div><table></table></div></td></tr></table></div></td></tr><tr><td><div><table><tr><td><div><span class="highlighted">web2py</span></div></td></tr><tr><td><div>False</div></td></tr><tr><td><div>http://concordances.ru</div></td></tr><tr><td><div><table><tr><td><div><table><tr><td><div>\xd0\x9e \xd0\xbf\xd1\x80\xd0\xbe\xd0\xb5\xd0\xba\xd1\x82\xd0\xb5</div></td></tr><tr><td><div>False</div></td></tr><tr><td><div>/admin/default/about/test</div></td></tr></table></div></td></tr><tr><td><div><table><tr><td><div>\xd0\x90\xd0\xb4\xd0\xbc\xd0\xb8\xd0\xbd\xd0\xba\xd0\xb0</div></td></tr><tr><td><div>False</div></td></tr><tr><td><div>/admin/default/edit/test/controllers/concordance.py</div></td></tr></table></div></td></tr></table></div></td></tr></table></div></td></tr></table></div></td></tr><tr><td style="font-weight:bold;vertical-align:top;">meta</td><td style="vertical-align:top;">:</td><td><div><table><tr><td style="font-weight:bold;vertical-align:top;">author</td><td style="vertical-align:top;">:</td><td><div>Maria Levchenko &lt;marylevchenko@gmail.com&gt;</div></td></tr><tr><td style="font-weight:bold;vertical-align:top;">generator</td><td style="vertical-align:top;">:</td><td><div>\xd0\xa7\xd0\xb0\xd1\x81\xd1\x82\xd0\xbe\xd1\x82\xd0\xbd\xd1\x8b\xd0\xb9 \xd1\x81\xd0\xbb\xd0\xbe\xd0\xb2\xd0\xb0\xd1\x80\xd1\x8c \xd1\x80\xd1\x83\xd1\x81\xd1\x81\xd0\xba\xd0\xbe\xd0\xb9 \xd0\xbb\xd0\xb8\xd1\x82\xd0\xb5\xd1\x80\xd0\xb0\xd1\x82\xd1\x83\xd1\x80\xd1\x8b</div></td></tr><tr><td style="font-weight:bold;vertical-align:top;">keywords</td><td style="vertical-align:top;">:</td><td><div>concordance, natural language processing, critics</div></td></tr></table></div></td></tr><tr><td style="font-weight:bold;vertical-align:top;">models_to_run</td><td style="vertical-align:top;">:</td><td><div><table><tr><td><div>^\\w+\\.py$</div></td></tr><tr><td><div>^concordance/\\w+\\.py$</div></td></tr><tr><td><div>^concordance/model/\\w+\\.py$</div></td></tr></table></div></td></tr><tr><td style="font-weight:bold;vertical-align:top;">postprocessing</td><td style="vertical-align:top;">:</td><td><div><table></table></div></td></tr><tr><td style="font-weight:bold;vertical-align:top;">session_client</td><td style="vertical-align:top;">:</td><td><div>188.166.76.195</div></td></tr><tr><td style="font-weight:bold;vertical-align:top;">session_cookie_compression_level</td><td style="vertical-align:top;">:</td><td><div>None</div></td></tr><tr><td style="font-weight:bold;vertical-align:top;">session_cookie_expires</td><td style="vertical-align:top;">:</td><td><div>None</div></td></tr><tr><td style="font-weight:bold;vertical-align:top;">session_cookie_key</td><td style="vertical-align:top;">:</td><td><div>None</div></td></tr><tr><td style="font-weight:bold;vertical-align:top;">session_data_name</td><td style="vertical-align:top;">:</td><td><div>session_data_test</div></td></tr><tr><td style="font-weight:bold;vertical-align:top;">session_file</td><td style="vertical-align:top;">:</td><td><div>&lt;open file &#x27;/home/concordance/web2py/applications/test/sessions/178.62.237.202-2cb16a4e-c5ff-4976-8a39-eb01ecbb6525&#x27;, mode &#x27;rb+&#x27; at 0x7ffadd63bc90&gt;</div></td></tr><tr><td style="font-weight:bold;vertical-align:top;">session_filename</td><td style="vertical-align:top;">:</td><td><div>/home/concordance/web2py/applications/test/sessions/178.62.237.202-2cb16a4e-c5ff-4976-8a39-eb01ecbb6525</div></td></tr><tr><td style="font-weight:bold;vertical-align:top;">session_hash</td><td style="vertical-align:top;">:</td><td><div>2d03f997a68b870a5a0c98a3bde8217f</div></td></tr><tr><td style="font-weight:bold;vertical-align:top;">session_id</td><td style="vertical-align:top;">:</td><td><div>178.62.237.202-2cb16a4e-c5ff-4976-8a39-eb01ecbb6525</div></td></tr><tr><td style="font-weight:bold;vertical-align:top;">session_id_name</td><td style="vertical-align:top;">:</td><td><div>session_id_test</div></td></tr><tr><td style="font-weight:bold;vertical-align:top;">session_locked</td><td style="vertical-align:top;">:</td><td><div>True</div></td></tr><tr><td style="font-weight:bold;vertical-align:top;">session_masterapp</td><td style="vertical-align:top;">:</td><td><div>test</div></td></tr><tr><td style="font-weight:bold;vertical-align:top;">session_new</td><td style="vertical-align:top;">:</td><td><div>False</div></td></tr><tr><td style="font-weight:bold;vertical-align:top;">session_storage_type</td><td style="vertical-align:top;">:</td><td><div>file</div></td></tr><tr><td style="font-weight:bold;vertical-align:top;">status</td><td style="vertical-align:top;">:</td><td><div>200</div></td></tr><tr><td style="font-weight:bold;vertical-align:top;">subtitle</td><td style="vertical-align:top;">:</td><td><div></div></td></tr><tr><td style="font-weight:bold;vertical-align:top;">title</td><td style="vertical-align:top;">:</td><td><div>Test</div></td></tr><tr><td style="font-weight:bold;vertical-align:top;">view</td><td style="vertical-align:top;">:</td><td><div>concordance/model.html</div></td></tr></table></div>'
tRp214
sS'locals'
p215
(dp216
S'fname'
p217
S"'/home/concordance/deposit/model2'"
p218
sS'f'
S"<closed file '/home/concordance/deposit/model2', mode 'rb'>"
p219
sssS'traceback'
p220
S'Traceback (most recent call last):\n  File "/home/concordance/web2py/gluon/restricted.py", line 220, in restricted\n    exec ccode in environment\n  File "/home/concordance/web2py/applications/test/controllers/concordance.py", line 153, in <module>\n  File "/home/concordance/web2py/gluon/globals.py", line 385, in <lambda>\n    self._caller = lambda f: f()\n  File "/home/concordance/web2py/applications/test/controllers/concordance.py", line 68, in model\n    new_model = gensim.models.Word2Vec.load(\'/home/concordance/deposit/model2\')\n  File "/home/concordance/.local/lib/python2.7/site-packages/gensim/models/word2vec.py", line 1371, in load\n    model = super(Word2Vec, cls).load(*args, **kwargs)\n  File "/home/concordance/.local/lib/python2.7/site-packages/gensim/utils.py", line 252, in load\n    obj = unpickle(fname)\n  File "/home/concordance/.local/lib/python2.7/site-packages/gensim/utils.py", line 907, in unpickle\n    return _pickle.load(f)\nUnpicklingError: invalid load key, \'3\'.\n'
p221
s.