(dp1
S'output'
p2
S"<type 'exceptions.NameError'> name 'se' is not defined"
p3
sS'layer'
p4
S'/home/concordance/web2py/applications/test/views/show/show3.html'
p5
sS'code'
p6
S'response.write(\'<!--[if HTML5]><![endif]-->\\n<!DOCTYPE html>\\n<!-- paulirish.com/2008/conditional-stylesheets-vs-css-hacks-answer-neither/ -->\\n<!--[if lt IE 7]><html class="ie ie6 ie-lte9 ie-lte8 ie-lte7 no-js" lang="\', escape=False)\nresponse.write(T.accepted_language or \'en\')\nresponse.write(\'"> <![endif]-->\\n<!--[if IE 7]><html class="ie ie7 ie-lte9 ie-lte8 ie-lte7 no-js" lang="\', escape=False)\nresponse.write(T.accepted_language or \'en\')\nresponse.write(\'"> <![endif]-->\\n<!--[if IE 8]><html class="ie ie8 ie-lte9 ie-lte8 no-js" lang="\', escape=False)\nresponse.write(T.accepted_language or \'en\')\nresponse.write(\'"> <![endif]-->\\n<!--[if IE 9]><html class="ie9 ie-lte9 no-js" lang="\', escape=False)\nresponse.write(T.accepted_language or \'en\')\nresponse.write(\'"> <![endif]-->\\n<!--[if (gt IE 9)|!(IE)]><!--> <html class="no-js" lang="\', escape=False)\nresponse.write(T.accepted_language or \'en\')\nresponse.write(\'"> <!--<![endif]-->\\n<head>\\n<title>Concordances 1.0. \\xd0\\x9f\\xd0\\xbe\\xd1\\x8d\\xd1\\x82\\xd0\\xb8\\xd1\\x87\\xd0\\xb5\\xd1\\x81\\xd0\\xba\\xd0\\xb8\\xd0\\xb9 \\xd0\\xba\\xd0\\xbe\\xd1\\x80\\xd0\\xbf\\xd1\\x83\\xd1\\x81 \\xd0\\xb4\\xd0\\xbb\\xd1\\x8f \\xd1\\x81\\xd1\\x82\\xd0\\xb0\\xd1\\x82\\xd0\\xb8\\xd1\\x81\\xd1\\x82\\xd0\\xb8\\xd1\\x87\\xd0\\xb5\\xd1\\x81\\xd0\\xba\\xd0\\xbe\\xd0\\xb3\\xd0\\xbe \\xd0\\xb0\\xd0\\xbd\\xd0\\xb0\\xd0\\xbb\\xd0\\xb8\\xd0\\xb7\\xd0\\xb0</title>\\n  <!--[if !HTML5]>\\n      <meta http-equiv="X-UA-Compatible" content="IE=edge\', escape=False)\nresponse.write(not request.is_local and \',chrome=1\' or \'\')\nresponse.write(\'">\\n  <![endif]-->\\n  <!-- www.phpied.com/conditional-comments-block-downloads/ -->\\n  <!-- Always force latest IE rendering engine\\n       (even in intranet) & Chrome Frame\\n       Remove this if you use the .htaccess -->\\n\\n  <meta charset="utf-8" />\\n\\n  <!-- http://dev.w3.org/html5/markup/meta.name.html -->\\n  <meta name="application-name" content="\', escape=False)\nresponse.write(request.application)\nresponse.write(\'" />\\n\\n  <!-- Speaking of Google, don\\\'t forget to set your site up:\\n       http://google.com/webmasters -->\\n  <meta name="google-site-verification" content="" />\\n\\n  <!--  Mobile Viewport Fix\\n        j.mp/mobileviewport & davidbcalhoun.com/2010/viewport-metatag\\n        device-width: Occupy full width of the screen in its current orientation\\n        initial-scale = 1.0 retains dimensions instead of zooming out if page height > device height\\n        user-scalable = yes allows the user to zoom in -->\\n  <meta name="viewport" content="width=device-width, initial-scale=1.0" />\\n\\n  <link rel="shortcut icon" href="\', escape=False)\nresponse.write(URL(\'static\',\'images/favicon.ico\'))\nresponse.write(\'" type="image/x-icon">\\n  <link rel="apple-touch-icon" href="\', escape=False)\nresponse.write(URL(\'static\',\'images/favicon.png\'))\nresponse.write(\'">\\n\\n  <!-- All JavaScript at the bottom, except for Modernizr which enables\\n       HTML5 elements & feature detects -->\\n  <script src="\', escape=False)\nresponse.write(URL(\'static\',\'js/modernizr.custom.js\'))\nresponse.write(\'"></script>\\n\\n  <!-- include stylesheets -->\\n  \', escape=False)\nresponse.files.insert(0,URL(\'static\',\'css/web2py.css\'))\nresponse.files.insert(1,URL(\'static\',\'css/bootstrap.min.css\'))\nresponse.files.insert(2,URL(\'static\',\'css/bootstrap-responsive.min.css\'))\nresponse.files.insert(3,URL(\'static\',\'css/web2py_bootstrap.css\'))\nresponse.write(\'\\n\\n  \', escape=False)\nresponse.write(\'<script type="text/javascript"><!--\\n    // These variables are used by the web2py_ajax_init function in web2py_ajax.js (which is loaded below).\\n    var w2p_ajax_confirm_message = "\', escape=False)\nresponse.write(T(\'Are you sure you want to delete this object?\'))\nresponse.write(\'";\\n    var w2p_ajax_disable_with_message = "\', escape=False)\nresponse.write(T(\'Working...\'))\nresponse.write(\'";\\n    var w2p_ajax_date_format = "\', escape=False)\nresponse.write(T(\'%Y-%m-%d\'))\nresponse.write(\'";\\n    var w2p_ajax_datetime_format = "\', escape=False)\nresponse.write(T(\'%Y-%m-%d %H:%M:%S\'))\nresponse.write(\'";\\n    var ajax_error_500 = \\\'\', escape=False)\nresponse.write(T.M(\'An error occured, please [[reload %s]] the page\') % URL(args=request.args, vars=request.get_vars))\nresponse.write("\'\\n    //--></script>\\n", escape=False)\nresponse.files.insert(0,URL(\'static\',\'js/jquery.js\'))\nresponse.files.insert(1,URL(\'static\',\'css/calendar.css\'))\nresponse.files.insert(2,URL(\'static\',\'js/calendar.js\'))\nresponse.files.insert(3,URL(\'static\',\'js/web2py.js\'))\nresponse.include_meta()\nresponse.include_files()\nresponse.write(\'\\n\', escape=False)\nresponse.write(\'\\n\\n  \', escape=False)\n# using sidebars need to know what sidebar you want to use\nleft_sidebar_enabled = globals().get(\'left_sidebar_enabled\',False)\nright_sidebar_enabled = globals().get(\'right_sidebar_enabled\',False)\nmiddle_columns = {0:\'span12\',1:\'span9\',2:\'span6\'}[\n(left_sidebar_enabled and 1 or 0)+(right_sidebar_enabled and 1 or 0)]\nresponse.write(\'\\n\\n  <!-- uncomment here to load jquery-ui\\n       <link rel="stylesheet" href="http://ajax.googleapis.com/ajax/libs/jqueryui/1.10.3/themes/ui-lightness/jquery-ui.css" type="text/css" media="all" />\\n       <script src="http://ajax.googleapis.com/ajax/libs/jqueryui/1.10.3/jquery-ui.min.js" type="text/javascript"></script>\\n       uncomment to load jquery-ui //-->\\n  <noscript><link href="\', escape=False)\nresponse.write(URL(\'static\', \'css/web2py_bootstrap_nojs.css\'))\nresponse.write(\'" rel="stylesheet" type="text/css" /></noscript>\\n  \', escape=False)\nresponse.write(\'\\n</head>\\n\\n<body>\\n  <!-- Navbar ================================================== -->\\n  <div class="navbar navbar-inverse">\\n    <div class="flash">\', escape=False)\nresponse.write(response.flash or \'\')\nresponse.write(\'</div>\\n    <div class="navbar-inner">\\n      <div class="container">\\n        \', escape=False)\nis_mobile=request.user_agent().is_mobile\nresponse.write(\'\\n        <!-- the next tag is necessary for bootstrap menus, do not remove -->\\n        <button type="button" class="btn btn-navbar" data-toggle="collapse" data-target=".nav-collapse" style="\', escape=False)\nresponse.write(\'display:none;\' if not is_mobile else \'\')\nresponse.write(\'">\\n          <span class="icon-bar"></span>\\n          <span class="icon-bar"></span>\\n          <span class="icon-bar"></span>\\n        </button>\\n        \', escape=False)\nresponse.write(response.logo or \'\')\nresponse.write(\'\\n        <ul id="navbar" class="nav pull-right">\', escape=False)\nresponse.write(\'auth\' in globals() and auth.navbar(mode="dropdown") or \'\')\nresponse.write(\'</ul>\\n        <div class="\', escape=False)\nresponse.write(\'nav-collapse\' if is_mobile else \'nav\')\nresponse.write(\'">\\n          \', escape=False)\nif response.menu:\n    response.write(\'\\n          \', escape=False)\n    response.write(MENU(response.menu, _class=\'mobile-menu nav\' if is_mobile else \'nav\',mobile=is_mobile,li_class=\'dropdown\',ul_class=\'dropdown-menu\'))\n    response.write(\'\\n          \', escape=False)\n    pass\nresponse.write(\'\\n        </div><!--/.nav-collapse -->\\n      </div>\\n    </div>\\n  </div><!--/top navbar -->\\n\\n  <div class="container">\\n    <!-- Masthead ================================================== -->\\n    <header class="mastheader row" id="header">\\n      \', escape=False)\nif response.title:\n    response.write(\'\\n        <div class="span12">\\n            <div class="page-header">\\n                <h1>\\n                    <a href="https://concordance.pythonanywhere.com/">Concordances 1.0</a>\\n                    <p><small>\', escape=False)\n    response.write(response.subtitle or \'\xd0\x9f\xd0\xbe\xd0\xbf\xd1\x8b\xd1\x82\xd0\xba\xd0\xb0 \xd0\xbf\xd0\xbe\xd1\x8d\xd1\x82\xd0\xb8\xd1\x87\xd0\xb5\xd1\x81\xd0\xba\xd0\xbe\xd0\xb3\xd0\xbe \xd0\xba\xd0\xbe\xd1\x80\xd0\xbf\xd1\x83\xd1\x81\xd0\xb0 \xd1\x80\xd1\x83\xd1\x81\xd1\x81\xd0\xba\xd0\xbe\xd0\xb9 \xd0\xbb\xd0\xb8\xd1\x82\xd0\xb5\xd1\x80\xd0\xb0\xd1\x82\xd1\x83\xd1\x80\xd1\x8b \xd0\xa5\xd0\xa5 \xd0\xb2\xd0\xb5\xd0\xba\xd0\xb0 \xd1\x81 \xd1\x84\xd1\x83\xd0\xbd\xd0\xba\xd1\x86\xd0\xb8\xd1\x8f\xd0\xbc\xd0\xb8 \xd1\x81\xd1\x82\xd0\xb0\xd1\x82\xd0\xb8\xd1\x81\xd1\x82\xd0\xb8\xd1\x87\xd0\xb5\xd1\x81\xd0\xba\xd0\xbe\xd0\xb3\xd0\xbe \xd0\xb0\xd0\xbd\xd0\xb0\xd0\xbb\xd0\xb8\xd0\xb7\xd0\xb0.\')\n    response.write(\'</small></p>\\n                </h1>\\n            </div>\\n        </div>\\n\\t\', escape=False)\n    pass\nresponse.write(\'\\n    </header>\\n\\n    <section id="main" class="main row">\\n        \', escape=False)\nif left_sidebar_enabled:\n    response.write(\'\\n        <div class="span3 left-sidebar">\\n            \', escape=False)\n    response.write(\'\\n            <h3>Left Sidebar</h3>\\n            <p></p>\\n            \', escape=False)\n    response.write(\'\\n        </div>\\n        \', escape=False)\n    pass\nresponse.write(\'\\n\\n        <div class="\', escape=False)\nresponse.write(middle_columns)\nresponse.write(\'">\\n            \', escape=False)\nresponse.write(\'\\n            \', escape=False)\nresponse.write(\'\\n<h1>\\xd0\\x92\\xd0\\xb0\\xd1\\x80\\xd0\\xb8\\xd0\\xb0\\xd0\\xbd\\xd1\\x82\\xd1\\x8b \\xd1\\x82\\xd0\\xb5\\xd0\\xba\\xd1\\x81\\xd1\\x82\\xd0\\xb0</h1>\\n<h3>\', escape=False)\nresponse.write(text.author.name)\nresponse.write(\' \', escape=False)\nresponse.write(text.author.family)\nresponse.write(\'. \', escape=False)\nresponse.write(text.title)\nresponse.write("</h3>\\n<script>\\nfunction fade(div_id1, div_id2, button) {\\n        $(\'.\'+div_id1).fadeOut(\'slow\');\\n        $(\'.\'+div_id2).fadeIn(\'slow\');\\n        $(button).css(\'color\',\'red\');\\n}\\n</script>\\n\\n<p>\\n<table>\\n<tr>\\n", escape=False)\nfor result in table:\n    response.write(\'\\n<td>        <input type="button" onclick="fade(\\\'test\\\', \\\'\', escape=False)\n    response.write(table.index(result))\n    response.write(\'\\\', this)" value=\', escape=False)\n    response.write(book[0])\n    response.write(\' class="content-button">\\n        <input type="button" onclick="fade(\\\'\', escape=False)\n    response.write(table.index(result))\n    response.write(\'\\\', \\\'test\\\', this)" value=\', escape=False)\n    response.write(book[table.index(result)+1])\n    response.write(\' class="content-button">\\n    <p>&nbsp;\\n     \\n\\n\', escape=False)\n    # <!-- \xd0\xbf\xd0\xbe\xd0\xb4\xd0\xba\xd0\xbb\xd1\x8e\xd1\x87\xd0\xb0\xd0\xb5\xd0\xbc \xd0\xb7\xd0\xb0\xd0\xb3\xd0\xbe\xd0\xbb\xd0\xbe\xd0\xb2\xd0\xba\xd0\xb8, \xd0\xb5\xd1\x81\xd0\xbb\xd0\xb8 \xd0\xbe\xd0\xbd\xd0\xb8 \xd0\xb5\xd1\x81\xd1\x82\xd1\x8c -->\n    response.write(\'\\n\\n        \', escape=False)\n    if text.title:\n        response.write(\'\\n        <h4 style="color:green" class="\', escape=False)\n        response.write(table.index(result))\n        response.write(\'">\', escape=False)\n        response.write(text.title)\n        response.write(\'</h4>\\n        \', escape=False)\n    else:\n        response.write(\'\\n        \', escape=False)\n        pass\n    response.write(\'\\n        \', escape=False)\n    if other[table.index(result)][\'title\']:\n        response.write(\'\\n        <h4 class="test" style="color:blue">\', escape=False)\n        response.write(other[table.index(result)][\'title\'])\n        response.write(\'</h4>\\n        \', escape=False)\n    else:\n        response.write(\'\\n            <h4>* * *</h4>\\n\', escape=False)\n        pass\n    response.write(\'\\n\\n<p>\', escape=False)\n    for r in result:\n        response.write(\'\\n\\n      \', escape=False)\n        if r.startswith(\'+\'):\n            response.write(\'\\n            <p style="color:blue" class="test">\', escape=False)\n            response.write(r[2:])\n            response.write(\'</p>\\n      \', escape=False)\n        elif r.startswith(\'-\'):\n            response.write(\'\\n            <p style="color:green" class="\', escape=False)\n            response.write(table.index(result))\n            response.write(\'">\', escape=False)\n            response.write(r[2:])\n            response.write(\'</p>\\n      \', escape=False)\n        elif not r.startswith(\'?\'):\n            response.write(\'\\n            <p>\', escape=False)\n            response.write(r)\n            response.write(\'\\n      \', escape=False)\n        else:\n            response.write(\'\\n           \', escape=False)\n            r=r\n            response.write(\'\\n      \', escape=False)\n            pass\n        response.write(\'\\n   \', escape=False)\n        pass\n    response.write(\'\\n</td>\\n\', escape=False)\n    pass\nresponse.write(\'\\n</tr>\\n</table>\\n\\n<ul>\\n    <li>\', escape=False)\nresponse.write(biblio[0])\nresponse.write(\'</li>\\n\', escape=False)\nfor all in biblio1:\n    response.write(\'\\n<li>\', escape=False)\n    response.write(A(all.short, \' \xe2\x80\x94 \', all.title, \'. \', all.city, \': \', all.editor, \', \', all.year, \'.\', _href=URL(\'show\', \'show_book\', args=all.id)))\n    response.write(\'</li>\\n\', escape=False)\n    pass\nresponse.write(\'\\n    </ul>\\n\\n<h4>\', escape=False)\nresponse.write(text.author.name)\nresponse.write(\' \', escape=False)\nresponse.write(text.author.family)\nresponse.write(\': \', escape=False)\nresponse.write(A("\xd0\xb4\xd1\x80\xd1\x83\xd0\xb3\xd0\xb8\xd0\xb5 \xd1\x82\xd0\xb5\xd0\xba\xd1\x81\xd1\x82\xd1\x8b", _href=URL("author", "all_author", args=text.author.id)))\nresponse.write(\' </h4>\\n\', escape=False)\nresponse.write(se)\nresponse.write(\'\\n\', escape=False)\nresponse.write(\'\\n            \', escape=False)\nresponse.write(\'\\n        </div>\\n\\n        \', escape=False)\nif right_sidebar_enabled:\n    response.write(\'\\n        <div class="span3">\\n            \', escape=False)\n    response.write(\'\\n            <h3>Right Sidebar</h3>\\n            <p></p>\\n            \', escape=False)\n    response.write(\'\\n        </div>\\n        \', escape=False)\n    pass\nresponse.write(\'\\n    </section><!--/main-->\\n\\n    <!-- Footer ================================================== -->\\n    <div class="row">\\n        <footer class="footer span12" id="footer">\\n            <div class="footer-content">\\n                \', escape=False)\nresponse.write(\' <!-- this is default footer -->\\n                <div class="copyright pull-left">\', escape=False)\nresponse.write(T(\'Copyright\'))\nresponse.write(\' &#169; \', escape=False)\nresponse.write(request.now.year)\nresponse.write(\'</div>\\n                <div id="poweredBy" class="pull-right">\\n                    \', escape=False)\nresponse.write(T(\'Powered by\'))\nresponse.write(\'\\n                    <a href="http://www.web2py.com/">web2py</a>\\n                </div>\\n                \', escape=False)\nresponse.write(\'\\n            </div>\\n        </footer>\\n    </div>\\n\\n  </div> <!-- /container -->\\n\\n  <!-- The javascript =============================================\\n       (Placed at the end of the document so the pages load faster) -->\\n  <script src="\', escape=False)\nresponse.write(URL(\'static\',\'js/bootstrap.min.js\'))\nresponse.write(\'"></script>\\n  <script src="\', escape=False)\nresponse.write(URL(\'static\',\'js/web2py_bootstrap.js\'))\nresponse.write(\'"></script>\\n  <!--[if lt IE 7 ]>\\n      <script src="\', escape=False)\nresponse.write(URL(\'static\',\'js/dd_belatedpng.js\'))\nresponse.write(\'"></script>\\n      <script> DD_belatedPNG.fix(\\\'img, .png_bg\\\'); //fix any <img> or .png_bg background-images </script>\\n      <![endif]-->\\n\\n  \', escape=False)\nif response.google_analytics_id:\n    response.write(\'\\n  <script src="\', escape=False)\n    response.write(URL(\'static\',\'js/analytics.min.js\'))\n    response.write(\'"></script>\\n  <script type="text/javascript">\\n  analytics.initialize({\\n    \\\'Google Analytics\\\':{trackingId:\\\'\', escape=False)\n    response.write(response.google_analytics_id)\n    response.write("\'}\\n  });</script>\\n  ", escape=False)\n    pass\nresponse.write(\'\\n  <script src="\', escape=False)\nresponse.write(URL(\'static\',\'js/share.js\',vars=dict(static=URL(\'static\',\'images\'))))\nresponse.write(\'"></script>\\n</body>\\n</html>\\n\', escape=False)'
p7
sS'snapshot'
p8
(dp9
S'exception'
p10
(dp11
S'__hash__'
p12
S"<method-wrapper '__hash__' of exceptions.NameError object>"
p13
sS'__setattr__'
p14
S"<method-wrapper '__setattr__' of exceptions.NameError object>"
p15
sS'__reduce_ex__'
p16
S'<built-in method __reduce_ex__ of exceptions.NameError object>'
p17
sS'__getslice__'
p18
S"<method-wrapper '__getslice__' of exceptions.NameError object>"
p19
sS'__getitem__'
p20
S"<method-wrapper '__getitem__' of exceptions.NameError object>"
p21
sS'__setstate__'
p22
S'<built-in method __setstate__ of exceptions.NameError object>'
p23
sS'args'
p24
S'("name \'se\' is not defined",)'
p25
sS'__reduce__'
p26
S'<built-in method __reduce__ of exceptions.NameError object>'
p27
sS'__str__'
p28
S"<method-wrapper '__str__' of exceptions.NameError object>"
p29
sS'__format__'
p30
S'<built-in method __format__ of exceptions.NameError object>'
p31
sS'__getattribute__'
p32
S"<method-wrapper '__getattribute__' of exceptions.NameError object>"
p33
sS'__class__'
p34
S"<type 'exceptions.NameError'>"
p35
sS'__unicode__'
p36
S'<built-in method __unicode__ of exceptions.NameError object>'
p37
sS'__delattr__'
p38
S"<method-wrapper '__delattr__' of exceptions.NameError object>"
p39
sS'__subclasshook__'
p40
S'<built-in method __subclasshook__ of type object>'
p41
sS'__repr__'
p42
S"<method-wrapper '__repr__' of exceptions.NameError object>"
p43
sS'__dict__'
p44
S'{}'
p45
sS'__sizeof__'
p46
S'<built-in method __sizeof__ of exceptions.NameError object>'
p47
sS'__doc__'
p48
S"'Name not found globally.'"
p49
sS'__init__'
p50
S"<method-wrapper '__init__' of exceptions.NameError object>"
p51
sS'__new__'
p52
S'<built-in method __new__ of type object>'
p53
ssS'evalue'
p54
S"name 'se' is not defined"
p55
sS'request'
p56
cgluon.html
XML_unpickle
p57
(S's\xe7S\x00\x00<div><table><tr><td style="font-weight:bold;vertical-align:top;">ajax</td><td style="vertical-align:top;">:</td><td><div>False</div></td></tr><tr><td style="font-weight:bold;vertical-align:top;">application</td><td style="vertical-align:top;">:</td><td><div>test</div></td></tr><tr><td style="font-weight:bold;vertical-align:top;">args</td><td style="vertical-align:top;">:</td><td><div><table><tr><td><div>10276</div></td></tr></table></div></td></tr><tr><td style="font-weight:bold;vertical-align:top;">cid</td><td style="vertical-align:top;">:</td><td><div>None</div></td></tr><tr><td style="font-weight:bold;vertical-align:top;">client</td><td style="vertical-align:top;">:</td><td><div>198.211.121.79</div></td></tr><tr><td style="font-weight:bold;vertical-align:top;">controller</td><td style="vertical-align:top;">:</td><td><div>show</div></td></tr><tr><td style="font-weight:bold;vertical-align:top;">cookies</td><td style="vertical-align:top;">:</td><td><div><table><tr><td style="font-weight:bold;vertical-align:top;">session_id_admin</td><td style="vertical-align:top;">:</td><td><div>198.211.126.107-e0a47b6f-0976-4dba-b7b0-ae7a579a0139<table><tr><td style="font-weight:bold;vertical-align:top;">comment</td><td style="vertical-align:top;">:</td><td><div></div></td></tr><tr><td style="font-weight:bold;vertical-align:top;">domain</td><td style="vertical-align:top;">:</td><td><div></div></td></tr><tr><td style="font-weight:bold;vertical-align:top;">expires</td><td style="vertical-align:top;">:</td><td><div></div></td></tr><tr><td style="font-weight:bold;vertical-align:top;">httponly</td><td style="vertical-align:top;">:</td><td><div></div></td></tr><tr><td style="font-weight:bold;vertical-align:top;">max-age</td><td style="vertical-align:top;">:</td><td><div></div></td></tr><tr><td style="font-weight:bold;vertical-align:top;">path</td><td style="vertical-align:top;">:</td><td><div></div></td></tr><tr><td style="font-weight:bold;vertical-align:top;">secure</td><td style="vertical-align:top;">:</td><td><div></div></td></tr><tr><td style="font-weight:bold;vertical-align:top;">version</td><td style="vertical-align:top;">:</td><td><div></div></td></tr></table></div></td></tr><tr><td style="font-weight:bold;vertical-align:top;">session_id_test</td><td style="vertical-align:top;">:</td><td><div>95.85.33.177-ab972a48-5e76-48ec-83d2-d875747cf18f<table><tr><td style="font-weight:bold;vertical-align:top;">comment</td><td style="vertical-align:top;">:</td><td><div></div></td></tr><tr><td style="font-weight:bold;vertical-align:top;">domain</td><td style="vertical-align:top;">:</td><td><div></div></td></tr><tr><td style="font-weight:bold;vertical-align:top;">expires</td><td style="vertical-align:top;">:</td><td><div></div></td></tr><tr><td style="font-weight:bold;vertical-align:top;">httponly</td><td style="vertical-align:top;">:</td><td><div></div></td></tr><tr><td style="font-weight:bold;vertical-align:top;">max-age</td><td style="vertical-align:top;">:</td><td><div></div></td></tr><tr><td style="font-weight:bold;vertical-align:top;">path</td><td style="vertical-align:top;">:</td><td><div></div></td></tr><tr><td style="font-weight:bold;vertical-align:top;">secure</td><td style="vertical-align:top;">:</td><td><div></div></td></tr><tr><td style="font-weight:bold;vertical-align:top;">version</td><td style="vertical-align:top;">:</td><td><div></div></td></tr></table></div></td></tr></table></div></td></tr><tr><td style="font-weight:bold;vertical-align:top;">env</td><td style="vertical-align:top;">:</td><td><div><table><tr><td style="font-weight:bold;vertical-align:top;">CONTENT_LENGTH</td><td style="vertical-align:top;">:</td><td><div></div></td></tr><tr><td style="font-weight:bold;vertical-align:top;">CONTENT_TYPE</td><td style="vertical-align:top;">:</td><td><div></div></td></tr><tr><td style="font-weight:bold;vertical-align:top;">DOCUMENT_ROOT</td><td style="vertical-align:top;">:</td><td><div>/usr/local/openresty/nginx/html</div></td></tr><tr><td style="font-weight:bold;vertical-align:top;">HTTPS</td><td style="vertical-align:top;">:</td><td><div>on</div></td></tr><tr><td style="font-weight:bold;vertical-align:top;">HTTP_ACCEPT</td><td style="vertical-align:top;">:</td><td><div>text/html,application/xhtml+xml,application/xml;q=0.9,image/webp,*/*;q=0.8</div></td></tr><tr><td style="font-weight:bold;vertical-align:top;">HTTP_ACCEPT_ENCODING</td><td style="vertical-align:top;">:</td><td><div>gzip, deflate, sdch, br</div></td></tr><tr><td style="font-weight:bold;vertical-align:top;">HTTP_ACCEPT_LANGUAGE</td><td style="vertical-align:top;">:</td><td><div>ru,en;q=0.8,en-US;q=0.6</div></td></tr><tr><td style="font-weight:bold;vertical-align:top;">HTTP_CACHE_CONTROL</td><td style="vertical-align:top;">:</td><td><div>max-age=0</div></td></tr><tr><td style="font-weight:bold;vertical-align:top;">HTTP_CONNECTION</td><td style="vertical-align:top;">:</td><td><div>close</div></td></tr><tr><td style="font-weight:bold;vertical-align:top;">HTTP_COOKIE</td><td style="vertical-align:top;">:</td><td><div>_ga=GA1.2.1676138946.1483603300; session_id_test=95.85.33.177-ab972a48-5e76-48ec-83d2-d875747cf18f; __utma=134993891.1676138946.1483603300.1485683421.1485693772.10; __utmb=134993891.7.10.1485693772; __utmc=134993891; __utmz=134993891.1483670272.1.1.utmcsr=(direct)|utmccn=(direct)|utmcmd=(none); session_id_admin=198.211.126.107-e0a47b6f-0976-4dba-b7b0-ae7a579a0139</div></td></tr><tr><td style="font-weight:bold;vertical-align:top;">HTTP_HOST</td><td style="vertical-align:top;">:</td><td><div>concordance.pythonanywhere.com</div></td></tr><tr><td style="font-weight:bold;vertical-align:top;">HTTP_UPGRADE_INSECURE_REQUESTS</td><td style="vertical-align:top;">:</td><td><div>1</div></td></tr><tr><td style="font-weight:bold;vertical-align:top;">HTTP_USER_AGENT</td><td style="vertical-align:top;">:</td><td><div>Mozilla/5.0 (Windows NT 6.1) AppleWebKit/537.36 (KHTML, like Gecko) Chrome/55.0.2883.87 Safari/537.36</div></td></tr><tr><td style="font-weight:bold;vertical-align:top;">HTTP_X_FORWARDED_FOR</td><td style="vertical-align:top;">:</td><td><div>198.211.121.79</div></td></tr><tr><td style="font-weight:bold;vertical-align:top;">HTTP_X_REAL_IP</td><td style="vertical-align:top;">:</td><td><div>198.211.121.79</div></td></tr><tr><td style="font-weight:bold;vertical-align:top;">PATH_INFO</td><td style="vertical-align:top;">:</td><td><div>/test/show/show3/10276</div></td></tr><tr><td style="font-weight:bold;vertical-align:top;">QUERY_STRING</td><td style="vertical-align:top;">:</td><td><div></div></td></tr><tr><td style="font-weight:bold;vertical-align:top;">REMOTE_ADDR</td><td style="vertical-align:top;">:</td><td><div>10.0.0.14</div></td></tr><tr><td style="font-weight:bold;vertical-align:top;">REMOTE_PORT</td><td style="vertical-align:top;">:</td><td><div>41232</div></td></tr><tr><td style="font-weight:bold;vertical-align:top;">REQUEST_METHOD</td><td style="vertical-align:top;">:</td><td><div>GET</div></td></tr><tr><td style="font-weight:bold;vertical-align:top;">REQUEST_URI</td><td style="vertical-align:top;">:</td><td><div>/test/show/show3/10276</div></td></tr><tr><td style="font-weight:bold;vertical-align:top;">SCRIPT_NAME</td><td style="vertical-align:top;">:</td><td><div></div></td></tr><tr><td style="font-weight:bold;vertical-align:top;">SERVER_NAME</td><td style="vertical-align:top;">:</td><td><div>concordance.pythonanywhere.com</div></td></tr><tr><td style="font-weight:bold;vertical-align:top;">SERVER_PORT</td><td style="vertical-align:top;">:</td><td><div>443</div></td></tr><tr><td style="font-weight:bold;vertical-align:top;">SERVER_PROTOCOL</td><td style="vertical-align:top;">:</td><td><div>HTTP/1.1</div></td></tr><tr><td style="font-weight:bold;vertical-align:top;">app_folders</td><td style="vertical-align:top;">:</td><td><div>set([&#x27;/home/concordance/web2py/applications/examples/&#x27;, &#x27;/home/concordance/web2py/applications/admin/&#x27;, &#x27;/home/concordance/web2py/applications/test/&#x27;])</div></td></tr><tr><td style="font-weight:bold;vertical-align:top;">applications_parent</td><td style="vertical-align:top;">:</td><td><div>/home/concordance/web2py</div></td></tr><tr><td style="font-weight:bold;vertical-align:top;">content_length</td><td style="vertical-align:top;">:</td><td><div></div></td></tr><tr><td style="font-weight:bold;vertical-align:top;">content_type</td><td style="vertical-align:top;">:</td><td><div></div></td></tr><tr><td style="font-weight:bold;vertical-align:top;">db_sessions</td><td style="vertical-align:top;">:</td><td><div>set([])</div></td></tr><tr><td style="font-weight:bold;vertical-align:top;">debugging</td><td style="vertical-align:top;">:</td><td><div>False</div></td></tr><tr><td style="font-weight:bold;vertical-align:top;">document_root</td><td style="vertical-align:top;">:</td><td><div>/usr/local/openresty/nginx/html</div></td></tr><tr><td style="font-weight:bold;vertical-align:top;">gluon_parent</td><td style="vertical-align:top;">:</td><td><div>/home/concordance/web2py</div></td></tr><tr><td style="font-weight:bold;vertical-align:top;">http_accept</td><td style="vertical-align:top;">:</td><td><div>text/html,application/xhtml+xml,application/xml;q=0.9,image/webp,*/*;q=0.8</div></td></tr><tr><td style="font-weight:bold;vertical-align:top;">http_accept_encoding</td><td style="vertical-align:top;">:</td><td><div>gzip, deflate, sdch, br</div></td></tr><tr><td style="font-weight:bold;vertical-align:top;">http_accept_language</td><td style="vertical-align:top;">:</td><td><div>ru,en;q=0.8,en-US;q=0.6</div></td></tr><tr><td style="font-weight:bold;vertical-align:top;">http_cache_control</td><td style="vertical-align:top;">:</td><td><div>max-age=0</div></td></tr><tr><td style="font-weight:bold;vertical-align:top;">http_connection</td><td style="vertical-align:top;">:</td><td><div>close</div></td></tr><tr><td style="font-weight:bold;vertical-align:top;">http_cookie</td><td style="vertical-align:top;">:</td><td><div>_ga=GA1.2.1676138946.1483603300; session_id_test=95.85.33.177-ab972a48-5e76-48ec-83d2-d875747cf18f; __utma=134993891.1676138946.1483603300.1485683421.1485693772.10; __utmb=134993891.7.10.1485693772; __utmc=134993891; __utmz=134993891.1483670272.1.1.utmcsr=(direct)|utmccn=(direct)|utmcmd=(none); session_id_admin=198.211.126.107-e0a47b6f-0976-4dba-b7b0-ae7a579a0139</div></td></tr><tr><td style="font-weight:bold;vertical-align:top;">http_host</td><td style="vertical-align:top;">:</td><td><div>concordance.pythonanywhere.com</div></td></tr><tr><td style="font-weight:bold;vertical-align:top;">http_upgrade_insecure_requests</td><td style="vertical-align:top;">:</td><td><div>1</div></td></tr><tr><td style="font-weight:bold;vertical-align:top;">http_user_agent</td><td style="vertical-align:top;">:</td><td><div>Mozilla/5.0 (Windows NT 6.1) AppleWebKit/537.36 (KHTML, like Gecko) Chrome/55.0.2883.87 Safari/537.36</div></td></tr><tr><td style="font-weight:bold;vertical-align:top;">http_x_forwarded_for</td><td style="vertical-align:top;">:</td><td><div>198.211.121.79</div></td></tr><tr><td style="font-weight:bold;vertical-align:top;">http_x_real_ip</td><td style="vertical-align:top;">:</td><td><div>198.211.121.79</div></td></tr><tr><td style="font-weight:bold;vertical-align:top;">https</td><td style="vertical-align:top;">:</td><td><div>on</div></td></tr><tr><td style="font-weight:bold;vertical-align:top;">is_jython</td><td style="vertical-align:top;">:</td><td><div>False</div></td></tr><tr><td style="font-weight:bold;vertical-align:top;">is_pypy</td><td style="vertical-align:top;">:</td><td><div>False</div></td></tr><tr><td style="font-weight:bold;vertical-align:top;">is_source</td><td style="vertical-align:top;">:</td><td><div>True</div></td></tr><tr><td style="font-weight:bold;vertical-align:top;">local_hosts</td><td style="vertical-align:top;">:</td><td><div><table><tr><td><div>::ffff:127.0.0.1</div></td></tr><tr><td><div>::1</div></td></tr><tr><td><div>glenn-liveweb5</div></td></tr><tr><td><div>50.19.109.98</div></td></tr><tr><td><div>localhost</div></td></tr><tr><td><div>concordance.pythonanywhere.com</div></td></tr><tr><td><div>127.0.0.1</div></td></tr></table></div></td></tr><tr><td style="font-weight:bold;vertical-align:top;">path_info</td><td style="vertical-align:top;">:</td><td><div>/test/show/show3/10276</div></td></tr><tr><td style="font-weight:bold;vertical-align:top;">query_string</td><td style="vertical-align:top;">:</td><td><div></div></td></tr><tr><td style="font-weight:bold;vertical-align:top;">remote_addr</td><td style="vertical-align:top;">:</td><td><div>10.0.0.14</div></td></tr><tr><td style="font-weight:bold;vertical-align:top;">remote_port</td><td style="vertical-align:top;">:</td><td><div>41232</div></td></tr><tr><td style="font-weight:bold;vertical-align:top;">request_method</td><td style="vertical-align:top;">:</td><td><div>GET</div></td></tr><tr><td style="font-weight:bold;vertical-align:top;">request_uri</td><td style="vertical-align:top;">:</td><td><div>/test/show/show3/10276</div></td></tr><tr><td style="font-weight:bold;vertical-align:top;">script_name</td><td style="vertical-align:top;">:</td><td><div></div></td></tr><tr><td style="font-weight:bold;vertical-align:top;">server_name</td><td style="vertical-align:top;">:</td><td><div>concordance.pythonanywhere.com</div></td></tr><tr><td style="font-weight:bold;vertical-align:top;">server_port</td><td style="vertical-align:top;">:</td><td><div>443</div></td></tr><tr><td style="font-weight:bold;vertical-align:top;">server_protocol</td><td style="vertical-align:top;">:</td><td><div>HTTP/1.1</div></td></tr><tr><td style="font-weight:bold;vertical-align:top;">uwsgi.node</td><td style="vertical-align:top;">:</td><td><div>glenn-liveweb5</div></td></tr><tr><td style="font-weight:bold;vertical-align:top;">uwsgi.version</td><td style="vertical-align:top;">:</td><td><div>2.0.5.1</div></td></tr><tr><td style="font-weight:bold;vertical-align:top;">uwsgi_node</td><td style="vertical-align:top;">:</td><td><div>glenn-liveweb5</div></td></tr><tr><td style="font-weight:bold;vertical-align:top;">uwsgi_version</td><td style="vertical-align:top;">:</td><td><div>2.0.5.1</div></td></tr><tr><td style="font-weight:bold;vertical-align:top;">web2py_original_uri</td><td style="vertical-align:top;">:</td><td><div>/test/show/show3/10276</div></td></tr><tr><td style="font-weight:bold;vertical-align:top;">web2py_path</td><td style="vertical-align:top;">:</td><td><div>/home/concordance/web2py</div></td></tr><tr><td style="font-weight:bold;vertical-align:top;">web2py_version</td><td style="vertical-align:top;">:</td><td><div>2.9.5-stable+timestamp.2014.03.16.02.35.39</div></td></tr><tr><td style="font-weight:bold;vertical-align:top;">wsgi.errors</td><td style="vertical-align:top;">:</td><td><div>&lt;uwsgi_file__bin_user_wsgi_wrapper.ErrorLogFile object at 0x7f3426ddd150&gt;</div></td></tr><tr><td style="font-weight:bold;vertical-align:top;">wsgi.file_wrapper</td><td style="vertical-align:top;">:</td><td><div>&lt;built-in function uwsgi_sendfile&gt;</div></td></tr><tr><td style="font-weight:bold;vertical-align:top;">wsgi.input</td><td style="vertical-align:top;">:</td><td><div>&lt;uwsgi._Input object at 0x7f3410822a68&gt;</div></td></tr><tr><td style="font-weight:bold;vertical-align:top;">wsgi.multiprocess</td><td style="vertical-align:top;">:</td><td><div>True</div></td></tr><tr><td style="font-weight:bold;vertical-align:top;">wsgi.multithread</td><td style="vertical-align:top;">:</td><td><div>False</div></td></tr><tr><td style="font-weight:bold;vertical-align:top;">wsgi.run_once</td><td style="vertical-align:top;">:</td><td><div>False</div></td></tr><tr><td style="font-weight:bold;vertical-align:top;">wsgi.url_scheme</td><td style="vertical-align:top;">:</td><td><div>https</div></td></tr><tr><td style="font-weight:bold;vertical-align:top;">wsgi.version</td><td style="vertical-align:top;">:</td><td><div><table><tr><td><div>1</div></td></tr><tr><td><div>0</div></td></tr></table></div></td></tr><tr><td style="font-weight:bold;vertical-align:top;">wsgi_errors</td><td style="vertical-align:top;">:</td><td><div>&lt;uwsgi_file__bin_user_wsgi_wrapper.ErrorLogFile object at 0x7f3426ddd150&gt;</div></td></tr><tr><td style="font-weight:bold;vertical-align:top;">wsgi_file_wrapper</td><td style="vertical-align:top;">:</td><td><div>&lt;built-in function uwsgi_sendfile&gt;</div></td></tr><tr><td style="font-weight:bold;vertical-align:top;">wsgi_input</td><td style="vertical-align:top;">:</td><td><div>&lt;uwsgi._Input object at 0x7f3410822a68&gt;</div></td></tr><tr><td style="font-weight:bold;vertical-align:top;">wsgi_multiprocess</td><td style="vertical-align:top;">:</td><td><div>True</div></td></tr><tr><td style="font-weight:bold;vertical-align:top;">wsgi_multithread</td><td style="vertical-align:top;">:</td><td><div>False</div></td></tr><tr><td style="font-weight:bold;vertical-align:top;">wsgi_run_once</td><td style="vertical-align:top;">:</td><td><div>False</div></td></tr><tr><td style="font-weight:bold;vertical-align:top;">wsgi_url_scheme</td><td style="vertical-align:top;">:</td><td><div>https</div></td></tr><tr><td style="font-weight:bold;vertical-align:top;">wsgi_version</td><td style="vertical-align:top;">:</td><td><div><table><tr><td><div>1</div></td></tr><tr><td><div>0</div></td></tr></table></div></td></tr></table></div></td></tr><tr><td style="font-weight:bold;vertical-align:top;">extension</td><td style="vertical-align:top;">:</td><td><div>html</div></td></tr><tr><td style="font-weight:bold;vertical-align:top;">folder</td><td style="vertical-align:top;">:</td><td><div>/home/concordance/web2py/applications/test/</div></td></tr><tr><td style="font-weight:bold;vertical-align:top;">function</td><td style="vertical-align:top;">:</td><td><div>show3</div></td></tr><tr><td style="font-weight:bold;vertical-align:top;">global_settings</td><td style="vertical-align:top;">:</td><td><div><table><tr><td style="font-weight:bold;vertical-align:top;">app_folders</td><td style="vertical-align:top;">:</td><td><div>set([&#x27;/home/concordance/web2py/applications/examples/&#x27;, &#x27;/home/concordance/web2py/applications/admin/&#x27;, &#x27;/home/concordance/web2py/applications/test/&#x27;])</div></td></tr><tr><td style="font-weight:bold;vertical-align:top;">applications_parent</td><td style="vertical-align:top;">:</td><td><div>/home/concordance/web2py</div></td></tr><tr><td style="font-weight:bold;vertical-align:top;">db_sessions</td><td style="vertical-align:top;">:</td><td><div>set([])</div></td></tr><tr><td style="font-weight:bold;vertical-align:top;">debugging</td><td style="vertical-align:top;">:</td><td><div>False</div></td></tr><tr><td style="font-weight:bold;vertical-align:top;">gluon_parent</td><td style="vertical-align:top;">:</td><td><div>/home/concordance/web2py</div></td></tr><tr><td style="font-weight:bold;vertical-align:top;">is_jython</td><td style="vertical-align:top;">:</td><td><div>False</div></td></tr><tr><td style="font-weight:bold;vertical-align:top;">is_pypy</td><td style="vertical-align:top;">:</td><td><div>False</div></td></tr><tr><td style="font-weight:bold;vertical-align:top;">is_source</td><td style="vertical-align:top;">:</td><td><div>True</div></td></tr><tr><td style="font-weight:bold;vertical-align:top;">local_hosts</td><td style="vertical-align:top;">:</td><td><div><table><tr><td><div>::ffff:127.0.0.1</div></td></tr><tr><td><div>::1</div></td></tr><tr><td><div>glenn-liveweb5</div></td></tr><tr><td><div>50.19.109.98</div></td></tr><tr><td><div>localhost</div></td></tr><tr><td><div>concordance.pythonanywhere.com</div></td></tr><tr><td><div>127.0.0.1</div></td></tr></table></div></td></tr><tr><td style="font-weight:bold;vertical-align:top;">web2py_version</td><td style="vertical-align:top;">:</td><td><div>2.9.5-stable+timestamp.2014.03.16.02.35.39</div></td></tr></table></div></td></tr><tr><td style="font-weight:bold;vertical-align:top;">is_https</td><td style="vertical-align:top;">:</td><td><div>True</div></td></tr><tr><td style="font-weight:bold;vertical-align:top;">is_local</td><td style="vertical-align:top;">:</td><td><div>False</div></td></tr><tr><td style="font-weight:bold;vertical-align:top;">is_restful</td><td style="vertical-align:top;">:</td><td><div>False</div></td></tr><tr><td style="font-weight:bold;vertical-align:top;">now</td><td style="vertical-align:top;">:</td><td><div>datetime.datetime(2017, 1, 29, 13, 3, 14, 65379)</div></td></tr><tr><td style="font-weight:bold;vertical-align:top;">raw_args</td><td style="vertical-align:top;">:</td><td><div>10276</div></td></tr><tr><td style="font-weight:bold;vertical-align:top;">raw_extension</td><td style="vertical-align:top;">:</td><td><div>None</div></td></tr><tr><td style="font-weight:bold;vertical-align:top;">url</td><td style="vertical-align:top;">:</td><td><div>/test/show/show3/10276</div></td></tr><tr><td style="font-weight:bold;vertical-align:top;">utcnow</td><td style="vertical-align:top;">:</td><td><div>datetime.datetime(2017, 1, 29, 13, 3, 14, 65392)</div></td></tr><tr><td style="font-weight:bold;vertical-align:top;">uuid</td><td style="vertical-align:top;">:</td><td><div>test/198.211.121.79.2017-01-29.13-03-14.e7e3d098-ec73-40fc-9044-bba7da7493e0</div></td></tr><tr><td style="font-weight:bold;vertical-align:top;">wsgi</td><td style="vertical-align:top;">:</td><td><div>&lt;gluon.main.LazyWSGI object at 0x7f34102f7590&gt;</div></td></tr></table></div>'
tRp58
sS'frames'
p59
(lp60
(dp61
S'file'
p62
S'/home/concordance/web2py/gluon/restricted.py'
p63
sS'dump'
p64
(dp65
S'environment'
p66
S"{'A': <class 'gluon.html.A'>, 'ANY_OF': <class 'gluon.validators.ANY_OF'>, 'Auth': <class 'gluon.tools.Auth'>, 'B': <class 'gluon.html.B'>, 'BEAUTIFY': <class 'gluon.html.BEAUTIFY'>, 'BODY': <class 'gluon.html.BODY'>, 'BR': <class 'gluon.html.BR'>, 'BUTTON': <class 'gluon.html.BUTTON'>, 'CAT': <class 'gluon.html.CAT'>, 'CENTER': <class 'gluon.html.CENTER'>, ...}"
p67
sS'ccode'
p68
S'<code object <module> at 0x7f3412e990b0, file "/...applications/test/views/show/show3.html", line 1>'
p69
ssS'lnum'
p70
I220
sS'lines'
p71
(dp72
I224
S'        # do not encapsulate (obfuscate) the original RestrictedError'
p73
sI215
S'    try:'
p74
sI216
S'        if isinstance(code, types.CodeType):'
p75
sI217
S'            ccode = code'
p76
sI218
S'        else:'
p77
sI219
S'            ccode = compile2(code, layer)'
p78
sI220
S'        exec ccode in environment'
p79
sI221
S'    except HTTP:'
p80
sI222
S'        raise'
p81
sI223
S'    except RestrictedError:'
p82
ssS'call'
p83
S'(code=\'response.write(\\\'<!--[if HTML5]><![endif]-->\\\\n<!D...(\\\'"></script>\\\\n</body>\\\\n</html>\\\\n\\\', escape=False)\', environment={\'A\': <class \'gluon.html.A\'>, \'ANY_OF\': <class \'gluon.validators.ANY_OF\'>, \'Auth\': <class \'gluon.tools.Auth\'>, \'B\': <class \'gluon.html.B\'>, \'BEAUTIFY\': <class \'gluon.html.BEAUTIFY\'>, \'BODY\': <class \'gluon.html.BODY\'>, \'BR\': <class \'gluon.html.BR\'>, \'BUTTON\': <class \'gluon.html.BUTTON\'>, \'CAT\': <class \'gluon.html.CAT\'>, \'CENTER\': <class \'gluon.html.CENTER\'>, ...}, layer=\'/home/concordance/web2py/applications/test/views/show/show3.html\')'
p84
sS'func'
p85
S'restricted'
p86
sa(dp87
g62
S'/home/concordance/web2py/applications/test/views/show/show3.html'
p88
sg64
(dp89
sg70
I165
sg71
(dp90
I160
S"response.write(' ', escape=False)"
p91
sI161
S'response.write(text.author.family)'
p92
sI162
S"response.write(': ', escape=False)"
p93
sI163
S'response.write(A("\xd0\xb4\xd1\x80\xd1\x83\xd0\xb3\xd0\xb8\xd0\xb5 \xd1\x82\xd0\xb5\xd0\xba\xd1\x81\xd1\x82\xd1\x8b", _href=URL("author", "all_author", args=text.author.id)))'
p94
sI164
S"response.write(' </h4>\\n', escape=False)"
p95
sI165
S'response.write(se)'
p96
sI166
S"response.write('\\n', escape=False)"
p97
sI167
S"response.write('\\n            ', escape=False)"
p98
sI168
S"response.write('\\n        </div>\\n\\n        ', escape=False)"
p99
sI169
S'if right_sidebar_enabled:'
p100
sI170
S'    response.write(\'\\n        <div class="span3">\\n            \', escape=False)'
p101
sI171
S"    response.write('\\n            <h3>Right Sidebar</h3>\\n            <p></p>\\n            ', escape=False)"
p102
sI172
S"    response.write('\\n        </div>\\n        ', escape=False)"
p103
sI173
S'    pass'
p104
sI174
S'response.write(\'\\n    </section><!--/main-->\\n\\n    <!-- Footer ================================================== -->\\n    <div class="row">\\n        <footer class="footer span12" id="footer">\\n            <div class="footer-content">\\n                \', escape=False)'
p105
sI175
S'response.write(\' <!-- this is default footer -->\\n                <div class="copyright pull-left">\', escape=False)'
p106
sI156
S"    response.write('</li>\\n', escape=False)"
p107
sI157
S'    pass'
p108
sI158
S"response.write('\\n    </ul>\\n\\n<h4>', escape=False)"
p109
sI159
S'response.write(text.author.name)'
p110
ssg83
S'()'
p111
sg85
S'<module>'
p112
sasS'pyver'
p113
S'Python 2.7.6: /usr/local/bin/uwsgi (prefix: /usr)'
p114
sS'session'
p115
g57
(S's\xbf\x01\x00\x00<div><table><tr><td style="font-weight:bold;vertical-align:top;">flash</td><td style="vertical-align:top;">:</td><td><div>None</div></td></tr><tr><td style="font-weight:bold;vertical-align:top;">last_orderby</td><td style="vertical-align:top;">:</td><td><div>None</div></td></tr><tr><td style="font-weight:bold;vertical-align:top;">last_query</td><td style="vertical-align:top;">:</td><td><div>trymysql.drafts.id&gt;0</div></td></tr></table></div>'
tRp116
sS'etype'
p117
S"<type 'exceptions.NameError'>"
p118
sS'date'
p119
S'Sun Jan 29 13:03:15 2017'
p120
sS'response'
p121
g57
(S'sT \x00\x00<div><table><tr><td style="font-weight:bold;vertical-align:top;">body</td><td style="vertical-align:top;">:</td><td><div>&lt;cStringIO.StringO object at 0x7f34103b0848&gt;</div></td></tr><tr><td style="font-weight:bold;vertical-align:top;">cookies</td><td style="vertical-align:top;">:</td><td><div><table><tr><td style="font-weight:bold;vertical-align:top;">session_id_test</td><td style="vertical-align:top;">:</td><td><div>95.85.33.177-ab972a48-5e76-48ec-83d2-d875747cf18f<table><tr><td style="font-weight:bold;vertical-align:top;">comment</td><td style="vertical-align:top;">:</td><td><div></div></td></tr><tr><td style="font-weight:bold;vertical-align:top;">domain</td><td style="vertical-align:top;">:</td><td><div></div></td></tr><tr><td style="font-weight:bold;vertical-align:top;">expires</td><td style="vertical-align:top;">:</td><td><div></div></td></tr><tr><td style="font-weight:bold;vertical-align:top;">httponly</td><td style="vertical-align:top;">:</td><td><div></div></td></tr><tr><td style="font-weight:bold;vertical-align:top;">max-age</td><td style="vertical-align:top;">:</td><td><div></div></td></tr><tr><td style="font-weight:bold;vertical-align:top;">path</td><td style="vertical-align:top;">:</td><td><div>/</div></td></tr><tr><td style="font-weight:bold;vertical-align:top;">secure</td><td style="vertical-align:top;">:</td><td><div></div></td></tr><tr><td style="font-weight:bold;vertical-align:top;">version</td><td style="vertical-align:top;">:</td><td><div></div></td></tr></table></div></td></tr></table></div></td></tr><tr><td style="font-weight:bold;vertical-align:top;">delimiters</td><td style="vertical-align:top;">:</td><td><div><table><tr><td><div>{{</div></td></tr><tr><td><div>}}</div></td></tr></table></div></td></tr><tr><td style="font-weight:bold;vertical-align:top;">files</td><td style="vertical-align:top;">:</td><td><div><table><tr><td><div>/test/static/js/jquery.js</div></td></tr><tr><td><div>/test/static/css/calendar.css</div></td></tr><tr><td><div>/test/static/js/calendar.js</div></td></tr><tr><td><div>/test/static/js/web2py.js</div></td></tr><tr><td><div>/test/static/css/web2py.css</div></td></tr><tr><td><div>/test/static/css/bootstrap.min.css</div></td></tr><tr><td><div>/test/static/css/bootstrap-responsive.min.css</div></td></tr><tr><td><div>/test/static/css/web2py_bootstrap.css</div></td></tr></table></div></td></tr><tr><td style="font-weight:bold;vertical-align:top;">flash</td><td style="vertical-align:top;">:</td><td><div></div></td></tr><tr><td style="font-weight:bold;vertical-align:top;">generic_patterns</td><td style="vertical-align:top;">:</td><td><div><table></table></div></td></tr><tr><td style="font-weight:bold;vertical-align:top;">google_analytics_id</td><td style="vertical-align:top;">:</td><td><div>UA-52567545-1</div></td></tr><tr><td style="font-weight:bold;vertical-align:top;">headers</td><td style="vertical-align:top;">:</td><td><div><table><tr><td style="font-weight:bold;vertical-align:top;">X-Powered-By</td><td style="vertical-align:top;">:</td><td><div>web2py</div></td></tr></table></div></td></tr><tr><td style="font-weight:bold;vertical-align:top;">logo</td><td style="vertical-align:top;">:</td><td><div><a class="brand" href="http://concordances.ru"><b>concor<span>dances</span></b>.ru</a></div></td></tr><tr><td style="font-weight:bold;vertical-align:top;">menu</td><td style="vertical-align:top;">:</td><td><div><table><tr><td><div><table><tr><td><div>Home</div></td></tr><tr><td><div>False</div></td></tr><tr><td><div>/test/default/index</div></td></tr><tr><td><div><table></table></div></td></tr></table></div></td></tr><tr><td><div><table><tr><td><div><span class="highlighted">web2py</span></div></td></tr><tr><td><div>False</div></td></tr><tr><td><div>http://concordances.ru</div></td></tr><tr><td><div><table><tr><td><div><table><tr><td><div>\xd0\x9e \xd0\xbf\xd1\x80\xd0\xbe\xd0\xb5\xd0\xba\xd1\x82\xd0\xb5</div></td></tr><tr><td><div>False</div></td></tr><tr><td><div>/admin/default/about/test</div></td></tr></table></div></td></tr><tr><td><div><table><tr><td><div>\xd0\x90\xd0\xb4\xd0\xbc\xd0\xb8\xd0\xbd\xd0\xba\xd0\xb0</div></td></tr><tr><td><div>False</div></td></tr><tr><td><div>/admin/default/edit/test/controllers/show.py</div></td></tr></table></div></td></tr></table></div></td></tr></table></div></td></tr></table></div></td></tr><tr><td style="font-weight:bold;vertical-align:top;">meta</td><td style="vertical-align:top;">:</td><td><div><table><tr><td style="font-weight:bold;vertical-align:top;">author</td><td style="vertical-align:top;">:</td><td><div>Maria Levchenko &lt;marylevchenko@gmail.com&gt;</div></td></tr><tr><td style="font-weight:bold;vertical-align:top;">generator</td><td style="vertical-align:top;">:</td><td><div>\xd0\xa7\xd0\xb0\xd1\x81\xd1\x82\xd0\xbe\xd1\x82\xd0\xbd\xd1\x8b\xd0\xb9 \xd1\x81\xd0\xbb\xd0\xbe\xd0\xb2\xd0\xb0\xd1\x80\xd1\x8c \xd1\x80\xd1\x83\xd1\x81\xd1\x81\xd0\xba\xd0\xbe\xd0\xb9 \xd0\xbb\xd0\xb8\xd1\x82\xd0\xb5\xd1\x80\xd0\xb0\xd1\x82\xd1\x83\xd1\x80\xd1\x8b</div></td></tr><tr><td style="font-weight:bold;vertical-align:top;">keywords</td><td style="vertical-align:top;">:</td><td><div>concordance, natural language processing, critics</div></td></tr></table></div></td></tr><tr><td style="font-weight:bold;vertical-align:top;">models_to_run</td><td style="vertical-align:top;">:</td><td><div><table><tr><td><div>^\\w+\\.py$</div></td></tr><tr><td><div>^show/\\w+\\.py$</div></td></tr><tr><td><div>^show/show3/\\w+\\.py$</div></td></tr></table></div></td></tr><tr><td style="font-weight:bold;vertical-align:top;">postprocessing</td><td style="vertical-align:top;">:</td><td><div><table></table></div></td></tr><tr><td style="font-weight:bold;vertical-align:top;">session_client</td><td style="vertical-align:top;">:</td><td><div>198.211.121.79</div></td></tr><tr><td style="font-weight:bold;vertical-align:top;">session_cookie_compression_level</td><td style="vertical-align:top;">:</td><td><div>None</div></td></tr><tr><td style="font-weight:bold;vertical-align:top;">session_cookie_expires</td><td style="vertical-align:top;">:</td><td><div>None</div></td></tr><tr><td style="font-weight:bold;vertical-align:top;">session_cookie_key</td><td style="vertical-align:top;">:</td><td><div>None</div></td></tr><tr><td style="font-weight:bold;vertical-align:top;">session_data_name</td><td style="vertical-align:top;">:</td><td><div>session_data_test</div></td></tr><tr><td style="font-weight:bold;vertical-align:top;">session_file</td><td style="vertical-align:top;">:</td><td><div>&lt;open file &#x27;/home/concordance/web2py/applications/test/sessions/95.85.33.177-ab972a48-5e76-48ec-83d2-d875747cf18f&#x27;, mode &#x27;rb+&#x27; at 0x7f3412bd9930&gt;</div></td></tr><tr><td style="font-weight:bold;vertical-align:top;">session_filename</td><td style="vertical-align:top;">:</td><td><div>/home/concordance/web2py/applications/test/sessions/95.85.33.177-ab972a48-5e76-48ec-83d2-d875747cf18f</div></td></tr><tr><td style="font-weight:bold;vertical-align:top;">session_hash</td><td style="vertical-align:top;">:</td><td><div>c734bc165ef40bedfbf42801641a9a7a</div></td></tr><tr><td style="font-weight:bold;vertical-align:top;">session_id</td><td style="vertical-align:top;">:</td><td><div>95.85.33.177-ab972a48-5e76-48ec-83d2-d875747cf18f</div></td></tr><tr><td style="font-weight:bold;vertical-align:top;">session_id_name</td><td style="vertical-align:top;">:</td><td><div>session_id_test</div></td></tr><tr><td style="font-weight:bold;vertical-align:top;">session_locked</td><td style="vertical-align:top;">:</td><td><div>True</div></td></tr><tr><td style="font-weight:bold;vertical-align:top;">session_masterapp</td><td style="vertical-align:top;">:</td><td><div>test</div></td></tr><tr><td style="font-weight:bold;vertical-align:top;">session_new</td><td style="vertical-align:top;">:</td><td><div>False</div></td></tr><tr><td style="font-weight:bold;vertical-align:top;">session_storage_type</td><td style="vertical-align:top;">:</td><td><div>file</div></td></tr><tr><td style="font-weight:bold;vertical-align:top;">status</td><td style="vertical-align:top;">:</td><td><div>200</div></td></tr><tr><td style="font-weight:bold;vertical-align:top;">subtitle</td><td style="vertical-align:top;">:</td><td><div></div></td></tr><tr><td style="font-weight:bold;vertical-align:top;">title</td><td style="vertical-align:top;">:</td><td><div>Test</div></td></tr><tr><td style="font-weight:bold;vertical-align:top;">view</td><td style="vertical-align:top;">:</td><td><div>show/show3.html</div></td></tr></table></div>'
tRp122
sS'locals'
p123
(dp124
S'all'
p125
S"<Row {'city': '', 'short': '\\xd0\\xa1\\xd0\\x94\\xd0...'part': '', 'editor': '', 'year': '', 'id': 17L}>"
p126
sS'biblio1'
p127
S"[<Row {'city': '', 'short': '\\xd0\\xa1\\xd0\\x94\\xd0...'part': '', 'editor': '', 'year': '', 'id': 17L}>, <Row {'city': '', 'short': '\\xd0\\xa1\\xd0\\x94\\xd0...'part': '', 'editor': '', 'year': '', 'id': 17L}>]"
p128
sS'Service'
p129
S"<class 'gluon.tools.Service'>"
p130
sS'text'
p131
S"<Row {'dmonth_writing': '', 'dyear_writing': '',...'', 'v': '', 'epigraph': '', 'group_text': None}>"
p132
sS'OBJECT'
p133
S"<class 'gluon.html.OBJECT'>"
p134
sS'SQLDB'
p135
S"<class 'gluon.dal.DAL'>"
p136
sg115
S"<Storage {'last_query': 'trymysql.drafts.id>0', ...ate]': ['599bd4a1-fd4b-456c-8c46-94e2f799ecf8']}>"
p137
sS'LINK'
p138
S"<class 'gluon.html.LINK'>"
p139
sS'BR'
p140
S"<class 'gluon.html.BR'>"
p141
sS'local_import'
p142
S'<function <lambda>>'
p143
sS'OPTGROUP'
p144
S"<class 'gluon.html.OPTGROUP'>"
p145
sS'__package__'
p146
S'None'
p147
sS'PRE'
p148
S"<class 'gluon.html.PRE'>"
p149
sS'IS_INT_IN_RANGE'
p150
S"<class 'gluon.validators.IS_INT_IN_RANGE'>"
p151
sS'left_sidebar_enabled'
p152
S'False'
p153
sS'IS_LOWER'
p154
S"<class 'gluon.validators.IS_LOWER'>"
p155
sS'IS_STRONG'
p156
S"<class 'gluon.validators.IS_STRONG'>"
p157
sS'cache'
p158
S'<gluon.cache.Cache object>'
p159
sS'IS_IN_DB'
p160
S"<class 'gluon.validators.IS_IN_DB'>"
p161
sS'TAG'
p162
S'<gluon.html.__TAG__ object>'
p163
sS'SQLField'
p164
S"<class 'gluon.dal.Field'>"
p165
sS'mail'
p166
S'<gluon.tools.Mail object>'
p167
sS'BODY'
p168
S"<class 'gluon.html.BODY'>"
p169
sS'IS_DATE_IN_RANGE'
p170
S"<class 'gluon.validators.IS_DATE_IN_RANGE'>"
p171
sS'IFRAME'
p172
S"<class 'gluon.html.IFRAME'>"
p173
sS'URL'
p174
S'<function URL>'
p175
sS'__file__'
p176
S"'/home/concordance/web2py/applications/test/views/show/show3.html'"
p177
sS'db'
p178
S'<DAL uri="sqlite://storage.sqlite">'
p179
sS'auth'
p180
S'<gluon.tools.Auth object>'
p181
sS'P'
S"<class 'gluon.html.P'>"
p182
sS'TFOOT'
p183
S"<class 'gluon.html.TFOOT'>"
p184
sS'XHTML'
p185
S"<class 'gluon.html.XHTML'>"
p186
sS'ON'
p187
S'True'
p188
sS'OL'
p189
S"<class 'gluon.html.OL'>"
p190
sS'd'
S'<DAL uri="mysql:******@concordance.mysql.pythonanywhere-services.com/concordance$try">'
p191
sS'TEXTAREA'
p192
S"<class 'gluon.html.TEXTAREA'>"
p193
sS'MENU'
p194
S"<class 'gluon.html.MENU'>"
p195
sS'IS_IMAGE'
p196
S"<class 'gluon.validators.IS_IMAGE'>"
p197
sS'EM'
p198
S"<class 'gluon.html.EM'>"
p199
sS'CODE'
p200
S"<class 'gluon.html.CODE'>"
p201
sS'HTTP'
p202
S"<class 'gluon.http.HTTP'>"
p203
sS'seq'
p204
S'<difflib.SequenceMatcher instance>'
p205
sS'HR'
p206
S"<class 'gluon.html.HR'>"
p207
sS'IS_DATETIME'
p208
S"<class 'gluon.validators.IS_DATETIME'>"
p209
sS'STYLE'
p210
S"<class 'gluon.html.STYLE'>"
p211
sS'LABEL'
p212
S"<class 'gluon.html.LABEL'>"
p213
sS'CLEANUP'
p214
S"<class 'gluon.validators.CLEANUP'>"
p215
sS'result'
p216
S"['  \\xd0\\xa1\\xd0\\xbb\\xd0\\xbe\\xd0\\xb2\\xd0\\xbe \\xd0\\x94\\xd0\\xb0\\xd0\\xbd\\xd0\\xb8\\xd0\\xbb\\xd0\\xb0 \\xd0\\x97\\xd0\\xb0\\xd1\\x82\\xd0\\xbe\\xd1\\x87\\xd0\\xb5\\xd0\\xbd\\xd0\\xb8\\xd0\\xba\\xd0\\xb0,\\r\\n', '- \\xd0\\xb5\\xd0\\xb6\\xd0\\xb5 \\xd0\\xbd\\xd0\\xb0\\xd0\\xbf\\xd0\\xb8\\xd1\\x81\\xd0\\xb0 \\xd1\\x81\\xd0\\xb2\\xd0\\xbe\\xd0\\xb5\\xd0\\xbc\\xd1\\x83 \\xd1\\x81\\xd1\\x8b\\xd0\\xbd\\xd1\\x83 \\xd0\\xaf\\xd1\\x80\\xd0\\xbe\\xd1\\x81\\xd0\\xbb\\xd0\\xb0\\xd0\\xb2\\xd1\\x83 \\xd0\\x92\\xd0\\xbe\\xd0\\xbb\\xd0\\xbe\\xd0\\xb4\\xd0\\xb8\\xd0\\xbc\\xd0\\xb5\\xd1\\x80\\xd0\\xbe\\xd0\\xb2\\xd0\\xb8\\xd1\\x87\\xd1\\x8e\\r\\n', '?                                  ^^^^   ^\\n', '+ \\xd0\\xb5\\xd0\\xb6\\xd0\\xb5 \\xd0\\xbd\\xd0\\xb0\\xd0\\xbf\\xd0\\xb8\\xd1\\x81\\xd0\\xb0 \\xd1\\x81\\xd0\\xb2\\xd0\\xbe\\xd0\\xb5\\xd0\\xbc\\xd1\\x83 \\xd0\\xba\\xd0\\xbd\\xd1\\x8f\\xd0\\xb7\\xd1\\x8e \\xd0\\xaf\\xd1\\x80\\xd0\\xbe\\xd1\\x81\\xd0\\xbb\\xd0\\xb0\\xd0\\xb2\\xd1\\x83 \\xd0\\x92\\xd0\\xbe\\xd0\\xbb\\xd0\\xbe\\xd0\\xb4\\xd0\\xb8\\xd0\\xbc\\xd0\\xb5\\xd1\\x80\\xd0\\xbe\\xd0\\xb2\\xd0\\xb8\\xd1\\x87\\xd1\\x8e\\r\\n', '?                                  ^^   ^^^^^\\n', '- \\xd0\\x93\\xd0\\xbe\\xd1\\x81\\xd0\\xbf\\xd0\\xbe\\xd0\\xb4\\xd0\\xb8 \\xd0\\xb1\\xd0\\xbb\\xd0\\xb0\\xd0\\xb3\\xd0\\xbe\\xd1\\x81\\xd0\\xbb\\xd0\\xbe\\xd0\\xb2\\xd0\\xb8, \\xd0\\xbe\\xd1\\x82\\xd1\\x87\\xd0\\xb5!\\r\\n', '  |\\r\\n', '+ I. \\xd0\\x92\\xd1\\x8a\\xd1\\x81\\xd1\\x82\\xd1\\x80\\xd1\\x83\\xd0\\xb1\\xd0\\xb8\\xd0\\xbc\\xd1\\x8a, \\xd1\\x8f\\xd0\\xba\\xd0\\xbe \\xd0\\xb2\\xd0\\xbe \\xd0\\xb7\\xd0\\xbb\\xd0\\xb0\\xd1\\x82\\xd0...\\xd1\\x82\\xd1\\x80\\xd1\\x83\\xd0\\xb1\\xd1\\x8b, \\xd0\\xb2 \\xd1\\x80\\xd0\\xb0\\xd0\\xb7\\xd1\\x83\\xd0\\xbc\\xd1\\x8a \\xd1\\x83\\xd0\\xbc\\xd0\\xb0 \\xd1\\x81\\xd0\\xb2\\xd0\\xbe\\xd0\\xb5\\xd0\\xb3\\xd0\\xbe\\r\\n', '+ \\xd0\\xb8 \\xd0\\xbd\\xd0\\xb0\\xd1\\x87\\xd0\\xbd\\xd0\\xb5\\xd0\\xbc\\xd1\\x8a \\xd0\\xb1\\xd0\\xb8\\xd1\\x82\\xd0\\xb8 \\xd0\\xb2 \\xd1\\x81\\xd1\\x80\\xd0\\xb5\\xd0\\xb1\\xd1\\x80\\xd0\\xb5\\xd0\\xbd\\xd1\\x8b...\\x8b \\xd0\\xb2\\xd0\\xbe\\xd0\\xb7\\xd0\\xb2\\xd0\\xb8\\xd1\\x82\\xd1\\x96\\xd0\\xb5 \\xd0\\xbc\\xd1\\x83\\xd0\\xb4\\xd1\\x80\\xd0\\xbe\\xd1\\x81\\xd1\\x82\\xd0\\xb8 \\xd1\\x81\\xd0\\xb2\\xd0\\xbe\\xd0\\xb5\\xd0\\xb0.\\r\\n', '- I. \\xd0\\x92\\xd0\\xbe\\xd1\\x81\\xd1\\x82\\xd1\\x80\\xd1\\x83\\xd0\\xb1\\xd0\\xb8\\xd1\\x82, \\xd1\\x8f\\xd0\\xba\\xd0\\xbe \\xd0\\xb2\\xd0\\xbe \\xd0\\xb7\\xd0\\xbb\\xd0\\xb0\\xd1\\x82\\xd0\\xbe\\xd0\\xba\\xd0\\xbe\\xd0\\xb2\\xd0\\xb0\\xd0\\xbd\\xd0\\xbd\\xd1\\x8b\\xd0\\xb8 \\xd1\\x82\\xd1\\x80\\xd1\\x83\\xd0\\xb1\\xd1\\x8b,\\r\\n', '- \\xd0\\xb2 \\xd1\\x80\\xd0\\xb0\\xd0\\xb7\\xd1\\x83\\xd0\\xbc \\xd1\\x83\\xd0\\xbc\\xd0\\xb0 \\xd1\\x81\\xd0\\xb2\\xd0\\xbe\\xd0\\xb5\\xd0\\xb3\\xd0\\xbe\\r\\n', '- \\xd0\\xb8 \\xd0\\xbd\\xd0\\xb0\\xd1\\x87\\xd0\\xbd\\xd0\\xb5\\xd1\\x82 \\xd0\\xb1\\xd0\\xb8\\xd1\\x82\\xd0\\xb8 \\xd0\\xb2\\xd0\\xbe \\xd1\\x81\\xd1\\x80\\xd0\\xb5\\xd0\\xb1\\xd1\\x80\\xd0\\xb5\\xd0\\xbd\\xd1\\x8b\\xd1\\x8f \\xd0\\xb0\\xd1\\x80\\xd0\\xb3\\xd0\\xb0\\xd0\\xbd\\xd1\\x8b\\r\\n', '- \\xd0\\xb2\\xd0\\xbe\\xd0\\xb7\\xd0\\xb2\\xd1\\xa3\\xd1\\x81\\xd1\\x82\\xd0\\xb8\\xd1\\x8f \\xd0\\xbc\\xd1\\x83\\xd0\\xb4\\xd1\\x80\\xd0\\xbe\\xd1\\x81\\xd1\\x82\\xd0\\xb8 \\xd1\\x81\\xd0\\xb2\\xd0\\xbe\\xd0\\xb5\\xd1\\x8f.\\r\\n', '- \\xd0\\x92\\xd0\\xbe\\xd1\\x81\\xd1\\x82\\xd0\\xb0\\xd0\\xbd\\xd0\\xb8 \\xd1\\x81\\xd0\\xbb\\xd0\\xb0\\xd0\\xb2\\xd0\\xb0 \\xd0\\xbc\\xd0\\xbe\\xd1\\x8f, \\xd0\\xb2\\xd1\\x8a\\xd1\\x81\\xd1\\x82\\xd0\\xb0\\xd0\\xbd\\xd0\\xb8 \\xd0\\xbf\\xd1\\x81\\xd0\\xb0\\xd0\\xbb\\xd1\\x82\\xd1\\x8b\\xd1\\x80\\xd0\\xb8 \\xd0\\xb8 \\xd0\\xb3\\xd1\\x83\\xd1\\x81\\xd0\\xbb\\xd0\\xb8.\\r\\n', '?   ^^                                                                          ^\\n', '+ \\xd0\\x92\\xd1\\x8a\\xd1\\x81\\xd1\\x82\\xd0\\xb0\\xd0\\xbd\\xd0\\xb8 \\xd1\\x81\\xd0\\xbb\\xd0\\xb0\\xd0\\xb2\\xd0\\xb0 \\xd0\\xbc\\xd0\\xbe\\xd1\\x8f, \\xd0\\xb2\\xd1\\x8a\\xd1\\x81\\xd1\\x82\\xd0\\xb0\\xd0\\xbd\\xd0\\xb8 \\xd0\\xb2\\xd1\\x8a \\xd0\\xbf\\xd1\\x81\\xd0\\xb0\\xd0\\xbb\\xd1\\x82\\xd1\\x8b\\xd1\\x80\\xd0\\xb8 \\xd0\\xb8 \\xd0\\xb2 \\xd0\\xb3\\xd1\\x83\\xd1\\x81\\xd0\\xbb\\xd0\\xb5\\xd1\\x85.\\r\\n', '?   ^^                                              +++++                    +++        ^^^\\n', '- \\xd0\\x92\\xd1\\x8a\\xd1\\x81\\xd1\\x82\\xd0\\xb0\\xd0\\xbd\\xd1\\x83 \\xd1\\x80\\xd0\\xb0\\xd0\\xbd\\xd0\\xbe, \\xd0\\xb8\\xd1\\x81\\xd0\\xbf\\xd0\\xbe\\xd0\\xb2\\xd1\\xa3\\xd0\\xbc\\xd1\\x81\\xd1\\x8f.\\r\\n', '?   ^^\\n', '+ \\xd0\\x92\\xd0\\xbe\\xd1\\x81\\xd1\\x82\\xd0\\xb0\\xd0\\xbd\\xd1\\x83 \\xd1\\x80\\xd0\\xb0\\xd0\\xbd\\xd0\\xbe, \\xd0\\xb8\\xd1\\x81\\xd0\\xbf\\xd0\\xbe\\xd0\\xb2\\xd1\\xa3\\xd0\\xbc\\xd1\\x8a \\xd1\\x82\\xd0\\xb8 \\xd1\\x81\\xd1\\x8f.\\r\\n', ...]"
p217
sS'plugins'
p218
S'<gluon.tools.PluginManager object>'
p219
sS'SELECT'
p220
S"<class 'gluon.html.SELECT'>"
p221
sS'use_janrain'
p222
S'<function use_janrain>'
p223
sS'CENTER'
p224
S"<class 'gluon.html.CENTER'>"
p225
sS'prettydate'
p226
S'<function prettydate>'
p227
sS'Crud'
p228
S"<class 'gluon.tools.Crud'>"
p229
sS'Auth'
p230
S"<class 'gluon.tools.Auth'>"
p231
sS'DEVELOPMENT_MENU'
p232
g188
sS'__builtins__'
p233
S"{'ArithmeticError': <type 'exceptions.ArithmeticError'>, 'AssertionError': <type 'exceptions.AssertionError'>, 'AttributeError': <type 'exceptions.AttributeError'>, 'BaseException': <type 'exceptions.BaseException'>, 'BufferError': <type 'exceptions.BufferError'>, 'BytesWarning': <type 'exceptions.BytesWarning'>, 'DeprecationWarning': <type 'exceptions.DeprecationWarning'>, 'EOFError': <type 'exceptions.EOFError'>, 'Ellipsis': Ellipsis, 'EnvironmentError': <type 'exceptions.EnvironmentError'>, ...}"
p234
sS'HTML'
p235
S"<class 'gluon.html.HTML'>"
p236
sS'SQLFORM'
p237
S"<class 'gluon.sqlhtml.SQLFORM'>"
p238
sS'LOAD'
p239
S'<function LOAD>'
p240
sS'redirect'
p241
S'<function redirect>'
p242
sS'FIELDSET'
p243
S"<class 'gluon.html.FIELDSET'>"
p244
sS'IS_EQUAL_TO'
p245
S"<class 'gluon.validators.IS_EQUAL_TO'>"
p246
sS'embed64'
p247
S'<function embed64>'
p248
sS'IS_LIST_OF'
p249
S"<class 'gluon.validators.IS_LIST_OF'>"
p250
sS'__name__'
p251
S"'__restricted__'"
p252
sS'EMBED'
p253
S"<class 'gluon.html.EMBED'>"
p254
sS'_'
S'<function _>'
p255
sS'H2'
p256
S"<class 'gluon.html.H2'>"
p257
sS'H3'
p258
S"<class 'gluon.html.H3'>"
p259
sS'BUTTON'
p260
S"<class 'gluon.html.BUTTON'>"
p261
sS'H1'
p262
S"<class 'gluon.html.H1'>"
p263
sS'H6'
p264
S"<class 'gluon.html.H6'>"
p265
sS'H4'
p266
S"<class 'gluon.html.H4'>"
p267
sS'H5'
p268
S"<class 'gluon.html.H5'>"
p269
sS'UL'
p270
S"<class 'gluon.html.UL'>"
p271
sS'IS_UPPER'
p272
S"<class 'gluon.validators.IS_UPPER'>"
p273
sS'xmlescape'
p274
S'<function xmlescape>'
p275
sS'IS_TIME'
p276
S"<class 'gluon.validators.IS_TIME'>"
p277
sS'other'
p278
S"[{'dedication': '', 'epi': '', 'epi_author': '', 'epi_book': '', 'title': '\\xd0\\x94\\xd0\\xb0\\xd0\\xbd\\xd0\\xb8\\xd0\\xb8\\xd0\\xbb \\xd0\\x97\\xd0\\xb0\\xd1\\x82\\xd0\\xbe\\xd1\\x87\\xd0\\xbd\\xd0\\xb8\\xd0\\xba. \\xd0\\x9a\\xd0\\xbe\\xd0\\xbf\\xd0\\xb5\\xd0\\xbd\\xd0\\xb3\\xd0\\xb0\\xd0\\xb3\\xd0\\xb5\\xd0\\xbd\\xd1\\x81\\xd0\\xba\\xd0\\xb8\\xd0\\xb9 \\xd1\\x81\\xd0\\xbf\\xd0\\xb8\\xd1\\x81\\xd0\\xbe\\xd0\\xba'}, {'dedication': '', 'epi': '', 'epi_author': '', 'epi_book': '', 'title': '\\xd0\\xa1\\xd0\\xbb\\xd0\\xbe\\xd0\\xb2\\xd0\\xbe \\xd0\\x94\\xd0\\xb0\\xd0\\xbd\\xd0\\xb8\\xd0\\xb8\\xd0\\xbb\\xd0\\xb0 \\xd0\\x97\\xd0\\xb0\\xd1\\x82\\xd0\\xbe\\xd1\\x87\\xd0\\xbd\\xd0\\xb8\\xd0\\xba\\xd0\\xb0. \\xd0\\x90\\xd0\\xba\\xd0\\xb0\\xd0\\xb4\\xd0\\xb5\\xd0\\xbc\\xd0\\xb8\\xd1\\x87\\xd0\\xb5\\xd1\\x81\\xd0\\xba\\xd0\\xb8\\xd0\\xb9 \\xd1\\x81\\xd0\\xbf\\xd0\\xb8\\xd1\\x81\\xd0\\xbe\\xd0\\xba'}]"
p279
sS'OPTION'
p280
S"<class 'gluon.html.OPTION'>"
p281
sS'TITLE'
p282
S"<class 'gluon.html.TITLE'>"
p283
sS'CRYPT'
p284
S"<class 'gluon.validators.CRYPT'>"
p285
sS'IS_EMPTY_OR'
p286
S"<class 'gluon.validators.IS_EMPTY_OR'>"
p287
sS'MARKMIN'
p288
S"<class 'gluon.html.MARKMIN'>"
p289
sS'INPUT'
p290
S"<class 'gluon.html.INPUT'>"
p291
sS'table'
p292
S"[['  \\xd0\\xa1\\xd0\\xbb\\xd0\\xbe\\xd0\\xb2\\xd0\\xbe \\xd0\\x94\\xd0\\xb0\\xd0\\xbd\\xd0\\xb8\\xd0\\xbb\\xd0\\xb0 \\xd0\\x97\\xd0\\xb0\\xd1\\x82\\xd0\\xbe\\xd1\\x87\\xd0\\xb5\\xd0\\xbd\\xd0\\xb8\\xd0\\xba\\xd0\\xb0,\\r\\n', '- \\xd0\\xb5\\xd0\\xb6\\xd0\\xb5 \\xd0\\xbd\\xd0\\xb0\\xd0\\xbf\\xd0\\xb8\\xd1\\x81\\xd0\\xb0 \\xd1\\x81\\xd0\\xb2\\xd0\\xbe\\xd0\\xb5\\xd0\\xbc\\xd1\\x83 \\xd1\\x81\\xd1\\x8b\\xd0\\xbd\\xd1\\x83 \\xd0\\xaf\\xd1\\x80\\xd0\\xbe\\xd1\\x81\\xd0\\xbb\\xd0\\xb0\\xd0\\xb2\\xd1\\x83 \\xd0\\x92\\xd0\\xbe\\xd0\\xbb\\xd0\\xbe\\xd0\\xb4\\xd0\\xb8\\xd0\\xbc\\xd0\\xb5\\xd1\\x80\\xd0\\xbe\\xd0\\xb2\\xd0\\xb8\\xd1\\x87\\xd1\\x8e\\r\\n', '?         ^ ^                         ^   ^\\n', '+ \\xd0\\xb5\\xd0\\xb6\\xd0\\xb5 \\xd0\\xb2\\xd0\\xbe\\xd1\\x81\\xd0\\xbf\\xd0\\xb8\\xd1\\x81\\xd0\\xb0 \\xd0\\xba\\xd0\\xbe \\xd1\\x81\\xd0\\xb2\\xd0\\xbe\\xd0\\xb5\\xd0\\xbc\\xd1\\x83 \\xd0\\xb3\\xd0\\xbe\\xd1\\x81...\\x8e \\xd0\\xaf\\xd1\\x80\\xd0\\xbe\\xd1\\x81\\xd0\\xbb\\xd0\\xb0\\xd0\\xb2\\xd1\\x83 \\xd0\\x92\\xd0\\xbe\\xd0\\xbb\\xd0\\xbe\\xd0\\xb4\\xd0\\xb8\\xd0\\xbc\\xd0\\xb5\\xd1\\x80\\xd0\\xbe\\xd0\\xb2\\xd0\\xb8\\xd1\\x87\\xd1\\x8e\\r\\n', '?         ^ ^^^        +++++              ++++   ^^^^^^^^^^^^^^^^^   ^^^^^\\n', '- \\xd0\\x93\\xd0\\xbe\\xd1\\x81\\xd0\\xbf\\xd0\\xbe\\xd0\\xb4\\xd0\\xb8 \\xd0\\xb1\\xd0\\xbb\\xd0\\xb0\\xd0\\xb3\\xd0\\xbe\\xd1\\x81\\xd0\\xbb\\xd0\\xbe\\xd0\\xb2\\xd0\\xb8, \\xd0\\xbe\\xd1\\x82\\xd1\\x87\\xd0\\xb5!\\r\\n', '  |\\r\\n', '- I. \\xd0\\x92\\xd0\\xbe\\xd1\\x81\\xd1\\x82\\xd1\\x80\\xd1\\x83\\xd0\\xb1\\xd0\\xb8\\xd1\\x82, \\xd1\\x8f\\xd0\\xba\\xd0\\xbe \\xd0\\xb2\\xd0\\xbe \\xd0\\xb7\\xd0\\xbb\\xd0\\xb0\\xd1\\x82\\xd0\\xbe\\xd0\\xba\\xd0\\xbe\\xd0\\xb2\\xd0\\xb0\\xd0\\xbd\\xd0\\xbd\\xd1\\x8b\\xd0\\xb8 \\xd1\\x82\\xd1\\x80\\xd1\\x83\\xd0\\xb1\\xd1\\x8b,\\r\\n', '?                     ^                                  -- ^^^          ^\\n', '+ I. \\xd0\\x92\\xd0\\xbe\\xd1\\x81\\xd1\\x82\\xd1\\x80\\xd1\\x83\\xd0\\xb1\\xd0\\xb8\\xd0\\xbc\\xd1\\x8a, \\xd1\\x8f\\xd0\\xba\\xd0\\xbe \\xd0\\xb2\\xd0\\xbe \\xd0\\xb7\\xd0\\xbb\\xd0\\xb0\\xd1\\x82\\xd0\\xbe\\xd0\\xba\\xd0\\xbe\\xd0\\xb2\\xd0\\xb0\\xd0\\xbd\\xd1\\x83\\xd1\\x8e \\xd1\\x82\\xd1\\x80\\xd1\\x83\\xd0\\xb1\\xd1\\x83,\\r\\n', '?                    ++ ^                                   ^^^          ^\\n', '- \\xd0\\xb2 \\xd1\\x80\\xd0\\xb0\\xd0\\xb7\\xd1\\x83\\xd0\\xbc \\xd1\\x83\\xd0\\xbc\\xd0\\xb0 \\xd1\\x81\\xd0\\xb2\\xd0\\xbe\\xd0\\xb5\\xd0\\xb3\\xd0\\xbe\\r\\n', '+ \\xd0\\xb2\\xd1\\x8a \\xd1\\x80\\xd0\\xb0\\xd0\\xb7\\xd1\\x83\\xd0\\xbc\\xd1\\x8a \\xd1\\x83\\xd0\\xbc\\xd0\\xb0 \\xd1\\x81\\xd0\\xb2\\xd0\\xbe\\xd0\\xb5\\xd0\\xb3\\xd0\\xbe,\\r\\n', '?   ++           ++                    +\\n', '- \\xd0\\xb8 \\xd0\\xbd\\xd0\\xb0\\xd1\\x87\\xd0\\xbd\\xd0\\xb5\\xd1\\x82 \\xd0\\xb1\\xd0\\xb8\\xd1\\x82\\xd0\\xb8 \\xd0\\xb2\\xd0\\xbe \\xd1\\x81\\xd1\\x80\\xd0\\xb5\\xd0\\xb1\\xd1\\x80\\xd0\\xb5\\xd0\\xbd\\xd1\\x8b\\xd1\\x8f \\xd0\\xb0\\xd1\\x80\\xd0\\xb3\\xd0\\xb0\\xd0\\xbd\\xd1\\x8b\\r\\n', '? ---           ^            ^^           ^^    ^^  ^\\n', '+ \\xd0\\xbd\\xd0\\xb0\\xd1\\x87\\xd0\\xbd\\xd0\\xb5\\xd0\\xbc\\xd1\\x8a \\xd0\\xb1\\xd0\\xb8\\xd1\\x82\\xd0\\xb8 \\xd0\\xb2\\xd1\\x8a \\xd1\\x81\\xd0\\xb5\\xd1\\x80\\xd0\\xb5\\xd0\\xb1\\xd1\\x80\\xd1\\x8f\\xd0\\xbd\\xd1\\x8b\\xd0\\xb5 \\xd0\\xbe\\xd1\\x80\\xd0\\xb3\\xd0\\xb0\\xd0\\xbd\\xd1\\x8b,\\r\\n', '?           ++ ^            ^^   ++        ^^    ^^  ^          +\\n', '- \\xd0\\xb2\\xd0\\xbe\\xd0\\xb7\\xd0\\xb2\\xd1\\xa3\\xd1\\x81\\xd1\\x82\\xd0\\xb8\\xd1\\x8f \\xd0\\xbc\\xd1\\x83\\xd0\\xb4\\xd1\\x80\\xd0\\xbe\\xd1\\x81\\xd1\\x82\\xd0\\xb8 \\xd1\\x81\\xd0\\xb2\\xd0\\xbe\\xd0\\xb5\\xd1\\x8f.\\r\\n', '?           --------                        --\\n', ...], ['  \\xd0\\xa1\\xd0\\xbb\\xd0\\xbe\\xd0\\xb2\\xd0\\xbe \\xd0\\x94\\xd0\\xb0\\xd0\\xbd\\xd0\\xb8\\xd0\\xbb\\xd0\\xb0 \\xd0\\x97\\xd0\\xb0\\xd1\\x82\\xd0\\xbe\\xd1\\x87\\xd0\\xb5\\xd0\\xbd\\xd0\\xb8\\xd0\\xba\\xd0\\xb0,\\r\\n', '- \\xd0\\xb5\\xd0\\xb6\\xd0\\xb5 \\xd0\\xbd\\xd0\\xb0\\xd0\\xbf\\xd0\\xb8\\xd1\\x81\\xd0\\xb0 \\xd1\\x81\\xd0\\xb2\\xd0\\xbe\\xd0\\xb5\\xd0\\xbc\\xd1\\x83 \\xd1\\x81\\xd1\\x8b\\xd0\\xbd\\xd1\\x83 \\xd0\\xaf\\xd1\\x80\\xd0\\xbe\\xd1\\x81\\xd0\\xbb\\xd0\\xb0\\xd0\\xb2\\xd1\\x83 \\xd0\\x92\\xd0\\xbe\\xd0\\xbb\\xd0\\xbe\\xd0\\xb4\\xd0\\xb8\\xd0\\xbc\\xd0\\xb5\\xd1\\x80\\xd0\\xbe\\xd0\\xb2\\xd0\\xb8\\xd1\\x87\\xd1\\x8e\\r\\n', '?                                  ^^^^   ^\\n', '+ \\xd0\\xb5\\xd0\\xb6\\xd0\\xb5 \\xd0\\xbd\\xd0\\xb0\\xd0\\xbf\\xd0\\xb8\\xd1\\x81\\xd0\\xb0 \\xd1\\x81\\xd0\\xb2\\xd0\\xbe\\xd0\\xb5\\xd0\\xbc\\xd1\\x83 \\xd0\\xba\\xd0\\xbd\\xd1\\x8f\\xd0\\xb7\\xd1\\x8e \\xd0\\xaf\\xd1\\x80\\xd0\\xbe\\xd1\\x81\\xd0\\xbb\\xd0\\xb0\\xd0\\xb2\\xd1\\x83 \\xd0\\x92\\xd0\\xbe\\xd0\\xbb\\xd0\\xbe\\xd0\\xb4\\xd0\\xb8\\xd0\\xbc\\xd0\\xb5\\xd1\\x80\\xd0\\xbe\\xd0\\xb2\\xd0\\xb8\\xd1\\x87\\xd1\\x8e\\r\\n', '?                                  ^^   ^^^^^\\n', '- \\xd0\\x93\\xd0\\xbe\\xd1\\x81\\xd0\\xbf\\xd0\\xbe\\xd0\\xb4\\xd0\\xb8 \\xd0\\xb1\\xd0\\xbb\\xd0\\xb0\\xd0\\xb3\\xd0\\xbe\\xd1\\x81\\xd0\\xbb\\xd0\\xbe\\xd0\\xb2\\xd0\\xb8, \\xd0\\xbe\\xd1\\x82\\xd1\\x87\\xd0\\xb5!\\r\\n', '  |\\r\\n', '+ I. \\xd0\\x92\\xd1\\x8a\\xd1\\x81\\xd1\\x82\\xd1\\x80\\xd1\\x83\\xd0\\xb1\\xd0\\xb8\\xd0\\xbc\\xd1\\x8a, \\xd1\\x8f\\xd0\\xba\\xd0\\xbe \\xd0\\xb2\\xd0\\xbe \\xd0\\xb7\\xd0\\xbb\\xd0\\xb0\\xd1\\x82\\xd0...\\xd1\\x82\\xd1\\x80\\xd1\\x83\\xd0\\xb1\\xd1\\x8b, \\xd0\\xb2 \\xd1\\x80\\xd0\\xb0\\xd0\\xb7\\xd1\\x83\\xd0\\xbc\\xd1\\x8a \\xd1\\x83\\xd0\\xbc\\xd0\\xb0 \\xd1\\x81\\xd0\\xb2\\xd0\\xbe\\xd0\\xb5\\xd0\\xb3\\xd0\\xbe\\r\\n', '+ \\xd0\\xb8 \\xd0\\xbd\\xd0\\xb0\\xd1\\x87\\xd0\\xbd\\xd0\\xb5\\xd0\\xbc\\xd1\\x8a \\xd0\\xb1\\xd0\\xb8\\xd1\\x82\\xd0\\xb8 \\xd0\\xb2 \\xd1\\x81\\xd1\\x80\\xd0\\xb5\\xd0\\xb1\\xd1\\x80\\xd0\\xb5\\xd0\\xbd\\xd1\\x8b...\\x8b \\xd0\\xb2\\xd0\\xbe\\xd0\\xb7\\xd0\\xb2\\xd0\\xb8\\xd1\\x82\\xd1\\x96\\xd0\\xb5 \\xd0\\xbc\\xd1\\x83\\xd0\\xb4\\xd1\\x80\\xd0\\xbe\\xd1\\x81\\xd1\\x82\\xd0\\xb8 \\xd1\\x81\\xd0\\xb2\\xd0\\xbe\\xd0\\xb5\\xd0\\xb0.\\r\\n', '- I. \\xd0\\x92\\xd0\\xbe\\xd1\\x81\\xd1\\x82\\xd1\\x80\\xd1\\x83\\xd0\\xb1\\xd0\\xb8\\xd1\\x82, \\xd1\\x8f\\xd0\\xba\\xd0\\xbe \\xd0\\xb2\\xd0\\xbe \\xd0\\xb7\\xd0\\xbb\\xd0\\xb0\\xd1\\x82\\xd0\\xbe\\xd0\\xba\\xd0\\xbe\\xd0\\xb2\\xd0\\xb0\\xd0\\xbd\\xd0\\xbd\\xd1\\x8b\\xd0\\xb8 \\xd1\\x82\\xd1\\x80\\xd1\\x83\\xd0\\xb1\\xd1\\x8b,\\r\\n', '- \\xd0\\xb2 \\xd1\\x80\\xd0\\xb0\\xd0\\xb7\\xd1\\x83\\xd0\\xbc \\xd1\\x83\\xd0\\xbc\\xd0\\xb0 \\xd1\\x81\\xd0\\xb2\\xd0\\xbe\\xd0\\xb5\\xd0\\xb3\\xd0\\xbe\\r\\n', '- \\xd0\\xb8 \\xd0\\xbd\\xd0\\xb0\\xd1\\x87\\xd0\\xbd\\xd0\\xb5\\xd1\\x82 \\xd0\\xb1\\xd0\\xb8\\xd1\\x82\\xd0\\xb8 \\xd0\\xb2\\xd0\\xbe \\xd1\\x81\\xd1\\x80\\xd0\\xb5\\xd0\\xb1\\xd1\\x80\\xd0\\xb5\\xd0\\xbd\\xd1\\x8b\\xd1\\x8f \\xd0\\xb0\\xd1\\x80\\xd0\\xb3\\xd0\\xb0\\xd0\\xbd\\xd1\\x8b\\r\\n', '- \\xd0\\xb2\\xd0\\xbe\\xd0\\xb7\\xd0\\xb2\\xd1\\xa3\\xd1\\x81\\xd1\\x82\\xd0\\xb8\\xd1\\x8f \\xd0\\xbc\\xd1\\x83\\xd0\\xb4\\xd1\\x80\\xd0\\xbe\\xd1\\x81\\xd1\\x82\\xd0\\xb8 \\xd1\\x81\\xd0\\xb2\\xd0\\xbe\\xd0\\xb5\\xd1\\x8f.\\r\\n', '- \\xd0\\x92\\xd0\\xbe\\xd1\\x81\\xd1\\x82\\xd0\\xb0\\xd0\\xbd\\xd0\\xb8 \\xd1\\x81\\xd0\\xbb\\xd0\\xb0\\xd0\\xb2\\xd0\\xb0 \\xd0\\xbc\\xd0\\xbe\\xd1\\x8f, \\xd0\\xb2\\xd1\\x8a\\xd1\\x81\\xd1\\x82\\xd0\\xb0\\xd0\\xbd\\xd0\\xb8 \\xd0\\xbf\\xd1\\x81\\xd0\\xb0\\xd0\\xbb\\xd1\\x82\\xd1\\x8b\\xd1\\x80\\xd0\\xb8 \\xd0\\xb8 \\xd0\\xb3\\xd1\\x83\\xd1\\x81\\xd0\\xbb\\xd0\\xb8.\\r\\n', '?   ^^                                                                          ^\\n', '+ \\xd0\\x92\\xd1\\x8a\\xd1\\x81\\xd1\\x82\\xd0\\xb0\\xd0\\xbd\\xd0\\xb8 \\xd1\\x81\\xd0\\xbb\\xd0\\xb0\\xd0\\xb2\\xd0\\xb0 \\xd0\\xbc\\xd0\\xbe\\xd1\\x8f, \\xd0\\xb2\\xd1\\x8a\\xd1\\x81\\xd1\\x82\\xd0\\xb0\\xd0\\xbd\\xd0\\xb8 \\xd0\\xb2\\xd1\\x8a \\xd0\\xbf\\xd1\\x81\\xd0\\xb0\\xd0\\xbb\\xd1\\x82\\xd1\\x8b\\xd1\\x80\\xd0\\xb8 \\xd0\\xb8 \\xd0\\xb2 \\xd0\\xb3\\xd1\\x83\\xd1\\x81\\xd0\\xbb\\xd0\\xb5\\xd1\\x85.\\r\\n', '?   ^^                                              +++++                    +++        ^^^\\n', '- \\xd0\\x92\\xd1\\x8a\\xd1\\x81\\xd1\\x82\\xd0\\xb0\\xd0\\xbd\\xd1\\x83 \\xd1\\x80\\xd0\\xb0\\xd0\\xbd\\xd0\\xbe, \\xd0\\xb8\\xd1\\x81\\xd0\\xbf\\xd0\\xbe\\xd0\\xb2\\xd1\\xa3\\xd0\\xbc\\xd1\\x81\\xd1\\x8f.\\r\\n', '?   ^^\\n', '+ \\xd0\\x92\\xd0\\xbe\\xd1\\x81\\xd1\\x82\\xd0\\xb0\\xd0\\xbd\\xd1\\x83 \\xd1\\x80\\xd0\\xb0\\xd0\\xbd\\xd0\\xbe, \\xd0\\xb8\\xd1\\x81\\xd0\\xbf\\xd0\\xbe\\xd0\\xb2\\xd1\\xa3\\xd0\\xbc\\xd1\\x8a \\xd1\\x82\\xd0\\xb8 \\xd1\\x81\\xd1\\x8f.\\r\\n', ...]]"
p293
sS'STRONG'
p294
S"<class 'gluon.html.STRONG'>"
p295
sS'COL'
p296
S"<class 'gluon.html.COL'>"
p297
sS'service'
p298
S'<gluon.tools.Service object>'
p299
sS'SCRIPT'
p300
S"<class 'gluon.html.SCRIPT'>"
p301
sS'is_mobile'
p302
g153
sS'TABLE'
p303
S"<class 'gluon.html.TABLE'>"
p304
sS'IS_IPV4'
p305
S"<class 'gluon.validators.IS_IPV4'>"
p306
sS'IS_LENGTH'
p307
S"<class 'gluon.validators.IS_LENGTH'>"
p308
sS'IS_IPV6'
p309
S"<class 'gluon.validators.IS_IPV6'>"
p310
sS'XML'
p311
S"<class 'gluon.html.XML'>"
p312
sS'B'
S"<class 'gluon.html.B'>"
p313
sS'IMG'
p314
S"<class 'gluon.html.IMG'>"
p315
sS'SQLTABLE'
p316
S"<class 'gluon.sqlhtml.SQLTABLE'>"
p317
sS'IS_MATCH'
p318
S"<class 'gluon.validators.IS_MATCH'>"
p319
sS'IS_ALPHANUMERIC'
p320
S"<class 'gluon.validators.IS_ALPHANUMERIC'>"
p321
sS'biblio'
p322
S"['']"
p323
sS'b'
S'<Query (variants.comment_book = CAST(biblio.id AS LONGTEXT))>'
p324
sS'SPAN'
p325
S"<class 'gluon.html.SPAN'>"
p326
sS'IS_JSON'
p327
S"<class 'gluon.validators.IS_JSON'>"
p328
sS'IS_IPADDRESS'
p329
S"<class 'gluon.validators.IS_IPADDRESS'>"
p330
sS'IS_SLUG'
p331
S"<class 'gluon.validators.IS_SLUG'>"
p332
sS'r'
S"'+ \\xd0\\x91\\xd0\\xbe\\xd0\\xb3\\xd1\\x83 \\xd0\\xbd\\xd0\\xb0\\xd1\\x88\\xd0\\xb5\\xd0\\xbc\\xd1\\x83 \\xd1\\x81\\xd0\\xbb\\xd0\\xb0\\xd0\\xb2\\xd0\\xb0 \\xd0\\xb8 \\xd0\\xbd\\xd1\\x8b\\xd0\\xbd\\xd1\\xa3, \\xd0\\xb8 \\xd0\\xbf\\xd1\\x80\\xd0\\xb8\\xd1\\x81\\xd0\\xbd\\xd0\\xbe, \\xd0\\xb8 \\xd0\\xb2 \\xd0\\xb2\\xd1\\xa3\\xd0\\xba.'"
p333
sS'META'
p334
S"<class 'gluon.html.META'>"
p335
sS'IS_DATE'
p336
S"<class 'gluon.validators.IS_DATE'>"
p337
sS'IS_EMAIL'
p338
S"<class 'gluon.validators.IS_EMAIL'>"
p339
sS'IS_NOT_EMPTY'
p340
S"<class 'gluon.validators.IS_NOT_EMPTY'>"
p341
sS'IS_FLOAT_IN_RANGE'
p342
S"<class 'gluon.validators.IS_FLOAT_IN_RANGE'>"
p343
sS'BEAUTIFY'
p344
S"<class 'gluon.html.BEAUTIFY'>"
p345
sS'TBODY'
p346
S"<class 'gluon.html.TBODY'>"
p347
sS'CAT'
p348
S"<class 'gluon.html.CAT'>"
p349
sS'Field'
p350
S"<class 'gluon.dal.Field'>"
p351
sS'IS_LIST_OF_EMAILS'
p352
S"<class 'gluon.validators.IS_LIST_OF_EMAILS'>"
p353
sS'middle_columns'
p354
S"'span12'"
p355
sS'DIV'
p356
S"<class 'gluon.html.DIV'>"
p357
sS'LEGEND'
p358
S"<class 'gluon.html.LEGEND'>"
p359
sS'COLGROUP'
p360
S"<class 'gluon.html.COLGROUP'>"
p361
sS'DAL'
p362
S"<class 'gluon.dal.DAL'>"
p363
sS'TT'
p364
S"<class 'gluon.html.TT'>"
p365
sS'TR'
p366
S"<class 'gluon.html.TR'>"
p367
sS'LI'
p368
S"<class 'gluon.html.LI'>"
p369
sS'right_sidebar_enabled'
p370
g153
sS'book'
p371
S"['', '\\xd0\\xa1\\xd0\\x94\\xd0\\x97', '\\xd0\\xa1\\xd0\\x94\\xd0\\x97']"
p372
sS'TH'
p373
S"<class 'gluon.html.TH'>"
p374
sS'TD'
p375
S"<class 'gluon.html.TD'>"
p376
sS'PluginManager'
p377
S"<class 'gluon.tools.PluginManager'>"
p378
sS'IS_URL'
p379
S"<class 'gluon.validators.IS_URL'>"
p380
sS'A'
S"<class 'gluon.html.A'>"
p381
sS'HEAD'
p382
S"<class 'gluon.html.HEAD'>"
p383
sS'IS_DATETIME_IN_RANGE'
p384
S"<class 'gluon.validators.IS_DATETIME_IN_RANGE'>"
p385
sS'FORM'
p386
S"<class 'gluon.html.FORM'>"
p387
sS'I'
S"<class 'gluon.html.I'>"
p388
sS'crud'
p389
S'<gluon.tools.Crud object>'
p390
sS'IS_NOT_IN_DB'
p391
S"<class 'gluon.validators.IS_NOT_IN_DB'>"
p392
sS'trymysql'
p393
S'<DAL uri="mysql:******@concordance.mysql.pythonanywhere-services.com/concordance$new">'
p394
sg121
S"<Storage {'body': <cStringIO.StringO object at 0...> at 0x7f34102ed050>, 'view': 'show/show3.html'}>"
p395
sS'THEAD'
p396
S"<class 'gluon.html.THEAD'>"
p397
sS'ANY_OF'
p398
S"<class 'gluon.validators.ANY_OF'>"
p399
sS'IS_NULL_OR'
p400
S"<class 'gluon.validators.IS_EMPTY_OR'>"
p401
sg56
S"<Storage {'_vars': None, 'function': 'show3', 'c...: '/home/concordance/web2py/applications/test/'}>"
p402
sS'IS_EXPR'
p403
S"<class 'gluon.validators.IS_EXPR'>"
p404
sS'T'
S'<gluon.languages.translator object>'
p405
sS'IS_IN_SET'
p406
S"<class 'gluon.validators.IS_IN_SET'>"
p407
sS'IS_UPLOAD_FILENAME'
p408
S"<class 'gluon.validators.IS_UPLOAD_FILENAME'>"
p409
sS'IS_DECIMAL_IN_RANGE'
p410
S"<class 'gluon.validators.IS_DECIMAL_IN_RANGE'>"
p411
sssS'traceback'
p412
S'Traceback (most recent call last):\n  File "/home/concordance/web2py/gluon/restricted.py", line 220, in restricted\n    exec ccode in environment\n  File "/home/concordance/web2py/applications/test/views/show/show3.html", line 165, in <module>\nNameError: name \'se\' is not defined\n'
p413
s.