(dp1
S'output'
p2
S'missing "pass" in view'
p3
sS'layer'
p4
S'ParserContainer'
p5
sS'code'
p6
S'response.write(\'<!--[if HTML5]><![endif]-->\\n<!DOCTYPE html>\\n<!-- paulirish.com/2008/conditional-stylesheets-vs-css-hacks-answer-neither/ -->\\n<!--[if lt IE 7]><html class="ie ie6 ie-lte9 ie-lte8 ie-lte7 no-js" lang="\', escape=False)\nresponse.write(T.accepted_language or \'en\')\nresponse.write(\'"> <![endif]-->\\n<!--[if IE 7]><html class="ie ie7 ie-lte9 ie-lte8 ie-lte7 no-js" lang="\', escape=False)\nresponse.write(T.accepted_language or \'en\')\nresponse.write(\'"> <![endif]-->\\n<!--[if IE 8]><html class="ie ie8 ie-lte9 ie-lte8 no-js" lang="\', escape=False)\nresponse.write(T.accepted_language or \'en\')\nresponse.write(\'"> <![endif]-->\\n<!--[if IE 9]><html class="ie9 ie-lte9 no-js" lang="\', escape=False)\nresponse.write(T.accepted_language or \'en\')\nresponse.write(\'"> <![endif]-->\\n<!--[if (gt IE 9)|!(IE)]><!--> <html class="no-js" lang="\', escape=False)\nresponse.write(T.accepted_language or \'en\')\nresponse.write(\'"> <!--<![endif]-->\\n<head>\\n<title>Concordances 1.0. \\xd0\\x9f\\xd0\\xbe\\xd1\\x8d\\xd1\\x82\\xd0\\xb8\\xd1\\x87\\xd0\\xb5\\xd1\\x81\\xd0\\xba\\xd0\\xb8\\xd0\\xb9 \\xd0\\xba\\xd0\\xbe\\xd1\\x80\\xd0\\xbf\\xd1\\x83\\xd1\\x81 \\xd0\\xb4\\xd0\\xbb\\xd1\\x8f \\xd1\\x81\\xd1\\x82\\xd0\\xb0\\xd1\\x82\\xd0\\xb8\\xd1\\x81\\xd1\\x82\\xd0\\xb8\\xd1\\x87\\xd0\\xb5\\xd1\\x81\\xd0\\xba\\xd0\\xbe\\xd0\\xb3\\xd0\\xbe \\xd0\\xb0\\xd0\\xbd\\xd0\\xb0\\xd0\\xbb\\xd0\\xb8\\xd0\\xb7\\xd0\\xb0</title>\\n  <!--[if !HTML5]>\\n      <meta http-equiv="X-UA-Compatible" content="IE=edge\', escape=False)\nresponse.write(not request.is_local and \',chrome=1\' or \'\')\nresponse.write(\'">\\n  <![endif]-->\\n  <!-- www.phpied.com/conditional-comments-block-downloads/ -->\\n  <!-- Always force latest IE rendering engine\\n       (even in intranet) & Chrome Frame\\n       Remove this if you use the .htaccess -->\\n\\n  <meta charset="utf-8" />\\n\\n  <!-- http://dev.w3.org/html5/markup/meta.name.html -->\\n  <meta name="application-name" content="\', escape=False)\nresponse.write(request.application)\nresponse.write(\'" />\\n\\n  <!-- Speaking of Google, don\\\'t forget to set your site up:\\n       http://google.com/webmasters -->\\n  <meta name="google-site-verification" content="" />\\n\\n  <!--  Mobile Viewport Fix\\n        j.mp/mobileviewport & davidbcalhoun.com/2010/viewport-metatag\\n        device-width: Occupy full width of the screen in its current orientation\\n        initial-scale = 1.0 retains dimensions instead of zooming out if page height > device height\\n        user-scalable = yes allows the user to zoom in -->\\n  <meta name="viewport" content="width=device-width, initial-scale=1.0" />\\n\\n  <link rel="shortcut icon" href="\', escape=False)\nresponse.write(URL(\'static\',\'images/favicon.ico\'))\nresponse.write(\'" type="image/x-icon">\\n  <link rel="apple-touch-icon" href="\', escape=False)\nresponse.write(URL(\'static\',\'images/favicon.png\'))\nresponse.write(\'">\\n\\n  <!-- All JavaScript at the bottom, except for Modernizr which enables\\n       HTML5 elements & feature detects -->\\n  <script src="\', escape=False)\nresponse.write(URL(\'static\',\'js/modernizr.custom.js\'))\nresponse.write(\'"></script>\\n\\n  <!-- include stylesheets -->\\n  \', escape=False)\nresponse.files.insert(0,URL(\'static\',\'css/web2py.css\'))\nresponse.files.insert(1,URL(\'static\',\'css/bootstrap.min.css\'))\nresponse.files.insert(2,URL(\'static\',\'css/bootstrap-responsive.min.css\'))\nresponse.files.insert(3,URL(\'static\',\'css/web2py_bootstrap.css\'))\nresponse.write(\'\\n\\n  \', escape=False)\nresponse.write(\'<script type="text/javascript"><!--\\n    // These variables are used by the web2py_ajax_init function in web2py_ajax.js (which is loaded below).\\n    var w2p_ajax_confirm_message = "\', escape=False)\nresponse.write(T(\'Are you sure you want to delete this object?\'))\nresponse.write(\'";\\n    var w2p_ajax_disable_with_message = "\', escape=False)\nresponse.write(T(\'Working...\'))\nresponse.write(\'";\\n    var w2p_ajax_date_format = "\', escape=False)\nresponse.write(T(\'%Y-%m-%d\'))\nresponse.write(\'";\\n    var w2p_ajax_datetime_format = "\', escape=False)\nresponse.write(T(\'%Y-%m-%d %H:%M:%S\'))\nresponse.write(\'";\\n    var ajax_error_500 = \\\'\', escape=False)\nresponse.write(T.M(\'An error occured, please [[reload %s]] the page\') % URL(args=request.args, vars=request.get_vars))\nresponse.write("\'\\n    //--></script>\\n", escape=False)\nresponse.files.insert(0,URL(\'static\',\'js/jquery.js\'))\nresponse.files.insert(1,URL(\'static\',\'css/calendar.css\'))\nresponse.files.insert(2,URL(\'static\',\'js/calendar.js\'))\nresponse.files.insert(3,URL(\'static\',\'js/web2py.js\'))\nresponse.include_meta()\nresponse.include_files()\nresponse.write(\'\\n\', escape=False)\nresponse.write(\'\\n\\n  \', escape=False)\n# using sidebars need to know what sidebar you want to use\nleft_sidebar_enabled = globals().get(\'left_sidebar_enabled\',False)\nright_sidebar_enabled = globals().get(\'right_sidebar_enabled\',False)\nmiddle_columns = {0:\'span12\',1:\'span9\',2:\'span6\'}[\n(left_sidebar_enabled and 1 or 0)+(right_sidebar_enabled and 1 or 0)]\nresponse.write(\'\\n\\n  <!-- uncomment here to load jquery-ui\\n       <link rel="stylesheet" href="http://ajax.googleapis.com/ajax/libs/jqueryui/1.10.3/themes/ui-lightness/jquery-ui.css" type="text/css" media="all" />\\n       <script src="http://ajax.googleapis.com/ajax/libs/jqueryui/1.10.3/jquery-ui.min.js" type="text/javascript"></script>\\n       uncomment to load jquery-ui //-->\\n  <noscript><link href="\', escape=False)\nresponse.write(URL(\'static\', \'css/web2py_bootstrap_nojs.css\'))\nresponse.write(\'" rel="stylesheet" type="text/css" /></noscript>\\n  \', escape=False)\nresponse.write(\'\\n</head>\\n\\n<body>\\n  <!-- Navbar ================================================== -->\\n  <div class="navbar navbar-inverse">\\n    <div class="flash">\', escape=False)\nresponse.write(response.flash or \'\')\nresponse.write(\'</div>\\n    <div class="navbar-inner">\\n      <div class="container">\\n        \', escape=False)\nis_mobile=request.user_agent().is_mobile\nresponse.write(\'\\n        <!-- the next tag is necessary for bootstrap menus, do not remove -->\\n        <button type="button" class="btn btn-navbar" data-toggle="collapse" data-target=".nav-collapse" style="\', escape=False)\nresponse.write(\'display:none;\' if not is_mobile else \'\')\nresponse.write(\'">\\n          <span class="icon-bar"></span>\\n          <span class="icon-bar"></span>\\n          <span class="icon-bar"></span>\\n        </button>\\n        \', escape=False)\nresponse.write(response.logo or \'\')\nresponse.write(\'\\n        <ul id="navbar" class="nav pull-right">\', escape=False)\nresponse.write(\'auth\' in globals() and auth.navbar(mode="dropdown") or \'\')\nresponse.write(\'</ul>\\n        <div class="\', escape=False)\nresponse.write(\'nav-collapse\' if is_mobile else \'nav\')\nresponse.write(\'">\\n          \', escape=False)\nif response.menu:\n    response.write(\'\\n          \', escape=False)\n    response.write(MENU(response.menu, _class=\'mobile-menu nav\' if is_mobile else \'nav\',mobile=is_mobile,li_class=\'dropdown\',ul_class=\'dropdown-menu\'))\n    response.write(\'\\n          \', escape=False)\n    pass\nresponse.write(\'\\n        </div><!--/.nav-collapse -->\\n      </div>\\n    </div>\\n  </div><!--/top navbar -->\\n\\n  <div class="container">\\n    <!-- Masthead ================================================== -->\\n    <header class="mastheader row" id="header">\\n      \', escape=False)\nif response.title:\n    response.write(\'\\n        <div class="span12">\\n            <div class="page-header">\\n                <h1>\\n                    <a href="https://concordance.pythonanywhere.com/">Concordances 1.0</a>\\n                    <p><small>\', escape=False)\n    response.write(response.subtitle or \'\xd0\x9f\xd0\xbe\xd0\xbf\xd1\x8b\xd1\x82\xd0\xba\xd0\xb0 \xd0\xbf\xd0\xbe\xd1\x8d\xd1\x82\xd0\xb8\xd1\x87\xd0\xb5\xd1\x81\xd0\xba\xd0\xbe\xd0\xb3\xd0\xbe \xd0\xba\xd0\xbe\xd1\x80\xd0\xbf\xd1\x83\xd1\x81\xd0\xb0 \xd1\x80\xd1\x83\xd1\x81\xd1\x81\xd0\xba\xd0\xbe\xd0\xb9 \xd0\xbb\xd0\xb8\xd1\x82\xd0\xb5\xd1\x80\xd0\xb0\xd1\x82\xd1\x83\xd1\x80\xd1\x8b \xd0\xa5\xd0\xa5 \xd0\xb2\xd0\xb5\xd0\xba\xd0\xb0 \xd1\x81 \xd1\x84\xd1\x83\xd0\xbd\xd0\xba\xd1\x86\xd0\xb8\xd1\x8f\xd0\xbc\xd0\xb8 \xd1\x81\xd1\x82\xd0\xb0\xd1\x82\xd0\xb8\xd1\x81\xd1\x82\xd0\xb8\xd1\x87\xd0\xb5\xd1\x81\xd0\xba\xd0\xbe\xd0\xb3\xd0\xbe \xd0\xb0\xd0\xbd\xd0\xb0\xd0\xbb\xd0\xb8\xd0\xb7\xd0\xb0.\')\n    response.write(\'</small></p>\\n                </h1>\\n            </div>\\n        </div>\\n\\t\', escape=False)\n    pass\nresponse.write(\'\\n    </header>\\n\\n    <section id="main" class="main row">\\n        \', escape=False)\nif left_sidebar_enabled:\n    response.write(\'\\n        <div class="span3 left-sidebar">\\n            \', escape=False)\n    response.write(\'\\n            <h3>Left Sidebar</h3>\\n            <p></p>\\n            \', escape=False)\n    response.write(\'\\n        </div>\\n        \', escape=False)\n    pass\nresponse.write(\'\\n\\n        <div class="\', escape=False)\nresponse.write(middle_columns)\nresponse.write(\'">\\n            \', escape=False)\nresponse.write(\'\\n            \', escape=False)\nresponse.write(\'\\n<h1>\\xd0\\x92\\xd0\\xb0\\xd1\\x80\\xd0\\xb8\\xd0\\xb0\\xd0\\xbd\\xd1\\x82\\xd1\\x8b \\xd1\\x82\\xd0\\xb5\\xd0\\xba\\xd1\\x81\\xd1\\x82\\xd0\\xb0</h1>\\n<h3>\', escape=False)\nresponse.write(text.author.name)\nresponse.write(\' \', escape=False)\nresponse.write(text.author.family)\nresponse.write(\'. \', escape=False)\nresponse.write(text.title)\nresponse.write("</h3>\\n<script>\\nfunction fade(div_id1, div_id2, button) {\\n        $(\'.\'+div_id1).fadeOut(\'slow\');\\n        $(\'.\'+div_id2).fadeIn(\'slow\');\\n        $(button).css(\'color\',\'red\');\\n}\\n</script>\\n\\n<p>\\n<table>\\n<tr>\\n", escape=False)\nfor result in table:\n    response.write(\'\\n<td>        <input type="button" onclick="fade(\\\'test\\\', \\\'\', escape=False)\n    response.write(table.index(result))\n    response.write(\'\\\', this)" value=\', escape=False)\n    response.write(book[0])\n    response.write(\' class="content-button">\\n        <input type="button" onclick="fade(\\\'\', escape=False)\n    response.write(table.index(result))\n    response.write(\'\\\', \\\'test\\\', this)" value=\', escape=False)\n    response.write(book[table.index(result)+1])\n    response.write(\' class="content-button">\\n    <p>&nbsp;\\n     \\n\\n\', escape=False)\n    # <!-- \xd0\xbf\xd0\xbe\xd0\xb4\xd0\xba\xd0\xbb\xd1\x8e\xd1\x87\xd0\xb0\xd0\xb5\xd0\xbc \xd0\xb7\xd0\xb0\xd0\xb3\xd0\xbe\xd0\xbb\xd0\xbe\xd0\xb2\xd0\xba\xd0\xb8, \xd0\xb5\xd1\x81\xd0\xbb\xd0\xb8 \xd0\xbe\xd0\xbd\xd0\xb8 \xd0\xb5\xd1\x81\xd1\x82\xd1\x8c -->\n    response.write(\'\\n\\n        \', escape=False)\n    if text.title:\n        response.write(\'\\n        <h4 style="color:green" class="\', escape=False)\n        response.write(table.index(result))\n        response.write(\'">\', escape=False)\n        response.write(text.title)\n        response.write(\'</h4>\\n        \', escape=False)\n    else:\n        response.write(\'\\n        \', escape=False)\n        pass\n    response.write(\'\\n        \', escape=False)\n    if other[table.index(result)][\'title\']:\n        response.write(\'\\n        <h4 class="test" style="color:blue">\', escape=False)\n        response.write(other[table.index(result)][\'title\'])\n        response.write(\'</h4>\\n        \', escape=False)\n    else:\n        response.write(\'\\n            <h4>* * *</h4>\\n\', escape=False)\n        pass\n    response.write(\'\\n\\n<p>\', escape=False)\n    for r in result:\n        response.write(\'\\n\\n      \', escape=False)\n        if r.startswith(\'+\'):\n            response.write(\'\\n            <p style="color:blue" class="test">\', escape=False)\n            response.write(r[2:])\n            response.write(\'</p>\\n      \', escape=False)\n        elif r.startswith(\'-\'):\n            response.write(\'\\n            <p style="color:green" class="\', escape=False)\n            response.write(table.index(result))\n            response.write(\'">\', escape=False)\n            response.write(r[2:])\n            response.write(\'</p>\\n      \', escape=False)\n        elif not r.startswith(\'?\'):\n            response.write(\'\\n            <p>\', escape=False)\n            response.write(r)\n            response.write(\'\\n      \', escape=False)\n        else:\n            response.write(\'\\n           \', escape=False)\n            r=r\n            response.write(\'\\n      \', escape=False)\n            pass\n        response.write(\'\\n   \', escape=False)\n        pass\n    response.write(\'\\n</td>\\n\', escape=False)\n    pass\nresponse.write(\'\\n</tr>\\n</table>\\n\\n<ul>\\n    <li>\', escape=False)\nresponse.write(biblio[0])\nresponse.write(\'</li>\\n\', escape=False)\nfor all in biblio1:\n    response.write(\'\\n<li>\', escape=False)\n    response.write(A(all.short, \' \xe2\x80\x94 \', all.title, \'. \', all.city, \': \', all.editor, \', \', all.year, \'.\', _href=URL(\'show\', \'show_book\', args=all.id)))\n    response.write(\'</li>\\n\', escape=False)\n    pass\nresponse.write(\'\\n    </ul>\\n\\n<h4>\', escape=False)\nresponse.write(text.author.name)\nresponse.write(\' \', escape=False)\nresponse.write(text.author.family)\nresponse.write(\': \', escape=False)\nresponse.write(A("\xd0\xb4\xd1\x80\xd1\x83\xd0\xb3\xd0\xb8\xd0\xb5 \xd1\x82\xd0\xb5\xd0\xba\xd1\x81\xd1\x82\xd1\x8b", _href=URL("author", "all_author", args=text.author.id)))\nresponse.write(\' </h4>\\n\\n\', escape=False)\nfor all in seq:\n    response.write(\'\\n\', escape=False)\n    for result in all:\n        response.write(\'\\n        \', escape=False)\n        response.write(result)\n        response.write(\'<br>\\n\', escape=False)\n        pass\n    response.write(\' \', escape=False)\n    pass\nresponse.write(\'\\n\', escape=False)\nfor a in s:\n    response.write(\'\\n\', escape=False)\n    for aa in a:\n        response.write(\'\\n\', escape=False)\n        response.write(aa)\n        response.write(\'<br>\\n\', escape=False)\n        pass\n    response.write(\'\\n\', escape=False)\n    response.write(\'\\n            \', escape=False)\n    response.write(\'\\n        </div>\\n\\n        \', escape=False)\n    if right_sidebar_enabled:\n        response.write(\'\\n        <div class="span3">\\n            \', escape=False)\n        response.write(\'\\n            <h3>Right Sidebar</h3>\\n            <p></p>\\n            \', escape=False)\n        response.write(\'\\n        </div>\\n        \', escape=False)\n        pass\n    response.write(\'\\n    </section><!--/main-->\\n\\n    <!-- Footer ================================================== -->\\n    <div class="row">\\n        <footer class="footer span12" id="footer">\\n            <div class="footer-content">\\n                \', escape=False)\n    response.write(\' <!-- this is default footer -->\\n                <div class="copyright pull-left">\', escape=False)\n    response.write(T(\'Copyright\'))\n    response.write(\' &#169; \', escape=False)\n    response.write(request.now.year)\n    response.write(\'</div>\\n                <div id="poweredBy" class="pull-right">\\n                    \', escape=False)\n    response.write(T(\'Powered by\'))\n    response.write(\'\\n                    <a href="http://www.web2py.com/">web2py</a>\\n                </div>\\n                \', escape=False)\n    response.write(\'\\n            </div>\\n        </footer>\\n    </div>\\n\\n  </div> <!-- /container -->\\n\\n  <!-- The javascript =============================================\\n       (Placed at the end of the document so the pages load faster) -->\\n  <script src="\', escape=False)\n    response.write(URL(\'static\',\'js/bootstrap.min.js\'))\n    response.write(\'"></script>\\n  <script src="\', escape=False)\n    response.write(URL(\'static\',\'js/web2py_bootstrap.js\'))\n    response.write(\'"></script>\\n  <!--[if lt IE 7 ]>\\n      <script src="\', escape=False)\n    response.write(URL(\'static\',\'js/dd_belatedpng.js\'))\n    response.write(\'"></script>\\n      <script> DD_belatedPNG.fix(\\\'img, .png_bg\\\'); //fix any <img> or .png_bg background-images </script>\\n      <![endif]-->\\n\\n  \', escape=False)\n    if response.google_analytics_id:\n        response.write(\'\\n  <script src="\', escape=False)\n        response.write(URL(\'static\',\'js/analytics.min.js\'))\n        response.write(\'"></script>\\n  <script type="text/javascript">\\n  analytics.initialize({\\n    \\\'Google Analytics\\\':{trackingId:\\\'\', escape=False)\n        response.write(response.google_analytics_id)\n        response.write("\'}\\n  });</script>\\n  ", escape=False)\n        pass\n    response.write(\'\\n  <script src="\', escape=False)\n    response.write(URL(\'static\',\'js/share.js\',vars=dict(static=URL(\'static\',\'images\'))))\n    response.write(\'"></script>\\n</body>\\n</html>\\n\', escape=False)'
p7
sS'snapshot'
p8
(dp9
sS'traceback'
p10
S'None\n'
p11
s.