(dp1
S'output'
p2
S"<type 'exceptions.SyntaxError'> Field: unknown field type: \xd0\x9d\xd0\xb0\xd0\xb7\xd0\xb2\xd0\xb0\xd0\xbd\xd0\xb8\xd0\xb5 for title"
p3
sS'layer'
p4
S'/home/concordance/web2py/applications/test/models/trymysql.py'
p5
sS'code'
p6
S'trymysql = DAL(\'mysql://concordance:sosnora@concordance.mysql.pythonanywhere-services.com/concordance$new\')\n\ntrymysql.define_table(\'author\',\n                  Field(\'name\', label="\xd0\x98\xd0\xbc\xd1\x8f"),\n                  Field(\'surname\', label="\xd0\x9e\xd1\x82\xd1\x87\xd0\xb5\xd1\x81\xd1\x82\xd0\xb2\xd0\xbe"),\n                  Field(\'family\', label="\xd0\xa4\xd0\xb0\xd0\xbc\xd0\xb8\xd0\xbb\xd0\xb8\xd1\x8f"),\n                  Field(\'real_name\', label="\xd0\x9d\xd0\xb0\xd1\x81\xd1\x82\xd0\xbe\xd1\x8f\xd1\x89\xd0\xb5\xd0\xb5 \xd0\xb8\xd0\xbc\xd1\x8f"),\n                  Field(\'year_birth\', label="\xd0\x93\xd0\xbe\xd0\xb4 \xd1\x80\xd0\xbe\xd0\xb6\xd0\xb4\xd0\xb5\xd0\xbd\xd0\xb8\xd1\x8f"),\n                  Field(\'year_death\', label="\xd0\x93\xd0\xbe\xd0\xb4 \xd1\x81\xd0\xbc\xd0\xb5\xd1\x80\xd1\x82\xd0\xb8"),\n                  Field(\'gender\', label="\xd0\x9f\xd0\xbe\xd0\xbb"),\n                  Field(\'birth_location\', label="\xd0\x9c\xd0\xb5\xd1\x81\xd1\x82\xd0\xbe \xd1\x80\xd0\xbe\xd0\xb6\xd0\xb4\xd0\xb5\xd0\xbd\xd0\xb8\xd1\x8f"),\n                  Field(\'death_location\', label="\xd0\x9c\xd0\xb5\xd1\x81\xd1\x82\xd0\xbe \xd1\x81\xd0\xbc\xd0\xb5\xd1\x80\xd1\x82\xd0\xb8"),\n                  migrate=False,fake_migrate=True)\n\ntrymysql.define_table(\'group_text\',\n                  Field(\'title\', label="\xd0\x9d\xd0\xb0\xd0\xb7\xd0\xb2\xd0\xb0\xd0\xbd\xd0\xb8\xd0\xb5"),\n                  Field(\'author\', trymysql.author),\n                  Field(\'v\', label="\xd0\x9e\xd0\xb1\xd1\x8a\xd0\xb5\xd0\xbc \xd1\x82\xd0\xb5\xd0\xba\xd1\x81\xd1\x82\xd0\xb0"),\n                  Field(\'genre\', label="\xd0\x96\xd0\xb0\xd0\xbd\xd1\x80"),\n                  Field(\'dedication\', label = \'\xd0\x9f\xd0\xbe\xd1\x81\xd0\xb2\xd1\x8f\xd1\x89\xd0\xb5\xd0\xbd\xd0\xb8\xd0\xb5\'),\n                  Field(\'epigraph\', label="\xd0\xad\xd0\xbf\xd0\xb8\xd0\xb3\xd1\x80\xd0\xb0\xd1\x84"),\n                  Field(\'epigraph_text_name\', label="\xd0\x98\xd1\x81\xd1\x82\xd0\xbe\xd1\x87\xd0\xbd\xd0\xb8\xd0\xba \xd1\x8d\xd0\xbf\xd0\xb8\xd0\xb3\xd1\x80\xd0\xb0\xd1\x84\xd0\xb0"),\n                  Field(\'year\', label="\xd0\x93\xd0\xbe\xd0\xb4 \xd0\xbd\xd0\xb0\xd0\xbf\xd0\xb8\xd1\x81\xd0\xb0\xd0\xbd\xd0\xb8\xd1\x8f"),\n                  Field(\'superpgroup\', label="\xd0\x93\xd1\x80\xd1\x83\xd0\xbf\xd0\xbf\xd0\xb0 \xd1\x82\xd0\xb5\xd0\xba\xd1\x81\xd1\x82\xd0\xbe\xd0\xb2"),\n                  migrate=False,fake_migrate=True)\n\ntrymysql.define_table(\'text1\',\n                  Field(\'title\', label="\xd0\x9d\xd0\xb0\xd0\xb7\xd0\xb2\xd0\xb0\xd0\xbd\xd0\xb8\xd0\xb5"),\n                  Field(\'first_string\', label="\xd0\x9f\xd0\xb5\xd1\x80\xd0\xb2\xd0\xb0\xd1\x8f \xd1\x81\xd1\x82\xd1\x80\xd0\xbe\xd0\xba\xd0\xb0"),\n                  Field(\'body\', \'text\', label="\xd0\xa2\xd0\xb5\xd0\xba\xd1\x81\xd1\x82"),\n                  Field(\'filename\', \'string\'),\n                  Field(\'year_writing\', label="\xd0\x93\xd0\xbe\xd0\xb4 \xd0\xbd\xd0\xb0\xd0\xbf\xd0\xb8\xd1\x81\xd0\xb0\xd0\xbd\xd0\xb8\xd1\x8f"),\n                  Field(\'month_writing\', label="\xd0\x9c\xd0\xb5\xd1\x81\xd1\x8f\xd1\x86 \xd0\xbd\xd0\xb0\xd0\xbf\xd0\xb8\xd1\x81\xd0\xb0\xd0\xbd\xd0\xb8\xd1\x8f"),\n                  Field(\'day_writing\', label="\xd0\x94\xd0\xb5\xd0\xbd\xd1\x8c \xd0\xbd\xd0\xb0\xd0\xbf\xd0\xb8\xd1\x81\xd0\xb0\xd0\xbd\xd0\xb8\xd1\x8f"),\n                  Field(\'dyear_writing\', label="\xd0\x9d\xd0\xb5\xd1\x82\xd0\xbe\xd1\x87\xd0\xbd\xd1\x8b\xd0\xb9 \xd0\xb3\xd0\xbe\xd0\xb4 \xd0\xbd\xd0\xb0\xd0\xbf\xd0\xb8\xd1\x81\xd0\xb0\xd0\xbd\xd0\xb8\xd1\x8f"),\n                  Field(\'dmonth_writing\', label="\xd0\x9d\xd0\xb5\xd1\x82\xd0\xbe\xd1\x87\xd0\xbd\xd1\x8b\xd0\xb9 \xd0\xbc\xd0\xb5\xd1\x81\xd1\x8f\xd1\x86 \xd0\xbd\xd0\xb0\xd0\xbf\xd0\xb8\xd1\x81\xd0\xb0\xd0\xbd\xd0\xb8\xd1\x8f"),\n                  Field(\'season_writing\', label="\xd0\xa1\xd0\xb5\xd0\xb7\xd0\xbe\xd0\xbd"),\n                  Field(\'dday_writing\', label="\xd0\x9d\xd0\xb5\xd1\x82\xd0\xbe\xd1\x87\xd0\xbd\xd1\x8b\xd0\xb9 \xd0\xb4\xd0\xb5\xd0\xbd\xd1\x8c \xd0\xbd\xd0\xb0\xd0\xbf\xd0\xb8\xd1\x81\xd0\xb0\xd0\xbd\xd0\xb8\xd1\x8f"),\n                  Field(\'writing_location\', label="\xd0\x9c\xd0\xb5\xd1\x81\xd1\x82\xd0\xbe \xd0\xbd\xd0\xb0\xd0\xbf\xd0\xb8\xd1\x81\xd0\xb0\xd0\xbd\xd0\xb8\xd1\x8f"),\n                  Field(\'year_publishing\', label="\xd0\x93\xd0\xbe\xd0\xb4 \xd0\xbf\xd0\xb5\xd1\x80\xd0\xb2\xd0\xbe\xd0\xb9 \xd0\xbf\xd1\x83\xd0\xb1\xd0\xbb\xd0\xb8\xd0\xba\xd0\xb0\xd1\x86\xd0\xb8\xd0\xb8"),\n                  Field(\'genre\', label="\xd0\x96\xd0\xb0\xd0\xbd\xd1\x80"),\n                  Field(\'under_title\', label="\xd0\x9f\xd0\xbe\xd0\xb4\xd0\xb7\xd0\xb0\xd0\xb3\xd0\xbe\xd0\xbb\xd0\xbe\xd0\xb2\xd0\xbe\xd0\xba"),\n                  Field(\'dedication\', label="\xd0\x9f\xd0\xbe\xd1\x81\xd0\xb2\xd1\x8f\xd1\x89\xd0\xb5\xd0\xbd\xd0\xb8\xd0\xb5"),\n                  Field(\'epigraph\', \'text\', label="\xd0\xa2\xd0\xb5\xd0\xba\xd1\x81\xd1\x82 \xd1\x8d\xd0\xbf\xd0\xb8\xd0\xb3\xd1\x80\xd0\xb0\xd1\x84\xd0\xb0"),\n                  Field(\'epigraph_author\', label="\xd0\x90\xd0\xb2\xd1\x82\xd0\xbe\xd1\x80 \xd1\x8d\xd0\xbf\xd0\xb8\xd0\xb3\xd1\x80\xd0\xb0\xd1\x84\xd0\xb0"),\n                  Field(\'epigraph_text_name\', label="\xd0\x98\xd1\x81\xd1\x82\xd0\xbe\xd1\x87\xd0\xbd\xd0\xb8\xd0\xba \xd1\x8d\xd0\xbf\xd0\xb8\xd0\xb3\xd1\x80\xd0\xb0\xd1\x84\xd0\xb0"),\n                  Field(\'v\', label="\xd0\x9e\xd0\xb1\xd1\x8a\xd0\xb5\xd0\xbc \xd1\x82\xd0\xb5\xd0\xba\xd1\x81\xd1\x82\xd0\xb0"),\n                  Field(\'book\', label="\xd0\x98\xd1\x81\xd1\x82\xd0\xbe\xd1\x87\xd0\xbd\xd0\xb8\xd0\xba \xd1\x82\xd0\xb5\xd0\xba\xd1\x81\xd1\x82\xd0\xb0"),\n                  Field(\'group_text\', trymysql.group_text, label="\xd0\x9f\xd1\x80\xd0\xb8\xd0\xbd\xd0\xb0\xd0\xb4\xd0\xbb\xd0\xb5\xd0\xb6\xd0\xbd\xd0\xbe\xd1\x81\xd1\x82\xd1\x8c \xd0\xba \xd0\xb3\xd1\x80\xd1\x83\xd0\xbf\xd0\xbf\xd0\xb5 \xd1\x82\xd0\xb5\xd0\xba\xd1\x81\xd1\x82\xd0\xbe\xd0\xb2"),\n                  Field(\'n_in_group\', label="\xd0\x9f\xd0\xbe\xd1\x80\xd1\x8f\xd0\xb4\xd0\xba\xd0\xbe\xd0\xb2\xd1\x8b\xd0\xb9 \xd0\xbd\xd0\xbe\xd0\xbc\xd0\xb5\xd1\x80 \xd0\xb2 \xd0\xb3\xd1\x80\xd1\x83\xd0\xbf\xd0\xbf\xd0\xb5 \xd1\x82\xd0\xb5\xd0\xba\xd1\x81\xd1\x82\xd0\xbe\xd0\xb2"),\n                  Field(\'author\', trymysql.author, label="\xd0\x9d\xd0\xbe\xd0\xbc\xd0\xb5\xd1\x80 \xd0\xb0\xd0\xb2\xd1\x82\xd0\xbe\xd1\x80\xd0\xb0"),\n                  migrate=False,fake_migrate=True)\n\ntrymysql.define_table(\'stih\',\n                      Field(\'title\', trymysql.text1, label="\xd0\xa2\xd0\xb5\xd0\xba\xd1\x81\xd1\x82"),\n                      Field(\'author\', trymysql.author, label="\xd0\x90\xd0\xb2\xd1\x82\xd0\xbe\xd1\x80"),\n                      Field(\'strofa\', label="\xd0\xa1\xd1\x82\xd1\x80\xd0\xbe\xd1\x84\xd0\xb0"),\n                      Field(\'kol_strok\', label = "\xd0\x9a\xd0\xbe\xd0\xbb\xd0\xb8\xd1\x87\xd0\xb5\xd1\x81\xd1\x82\xd0\xb2\xd0\xbe \xd1\x81\xd1\x82\xd1\x80\xd0\xbe\xd1\x84"),\n                      Field(\'type_s\', label = "\xd0\xa2\xd0\xb8\xd0\xbf \xd1\x81\xd1\x82\xd1\x80\xd0\xbe\xd1\x84\xd1\x8b"),\n                      Field(\'rhymes\', \'text\', label = "\xd0\xa0\xd0\xb8\xd1\x84\xd0\xbc\xd1\x8b"),\n                      Field(\'trhymes\', \'text\', label="\xd0\xa2\xd0\xa0\xd0\xb8\xd1\x84\xd0\xbc\xd1\x8b"),\n                      Field(\'type_r\', label = "\xd0\xa1\xd1\x85\xd0\xb5\xd0\xbc\xd0\xb0 \xd1\x80\xd0\xb8\xd1\x84\xd0\xbc\xd0\xbe\xd0\xb2\xd0\xba\xd0\xb8"),\n                      migrate=False,fake_migrate=True)\n\ntrymysql.define_table(\'allword\',\n                  Field(\'word\', label="\xd0\xa1\xd0\xbb\xd0\xbe\xd0\xb2\xd0\xbe"),\n                  Field(\'lemma\'),\n                  Field(\'title\', trymysql.text1, label="\xd0\xa2\xd0\xb5\xd0\xba\xd1\x81\xd1\x82"),\n                  Field(\'partos\', label="\xd0\xa7\xd0\xb0\xd1\x81\xd1\x82\xd1\x8c \xd1\x80\xd0\xb5\xd1\x87\xd0\xb8"),\n                  Field(\'anim\', label="\xd0\x9e\xd0\xb4\xd1\x83\xd1\x88\xd0\xb5\xd0\xb2\xd0\xbb\xd0\xb5\xd0\xbd\xd0\xbd\xd0\xbe\xd1\x81\xd1\x82\xd1\x8c"),\n                  Field(\'gendr\', label="\xd0\xa0\xd0\xbe\xd0\xb4"),\n                  Field(\'number\', label="\xd0\xa7\xd0\xb8\xd1\x81\xd0\xbb\xd0\xbe"),\n                  Field(\'cas\', label="\xd0\x9f\xd0\xb0\xd0\xb4\xd0\xb5\xd0\xb6"),\n                  Field(\'tense\', label="\xd0\x92\xd1\x80\xd0\xb5\xd0\xbc\xd1\x8f"),\n                  Field(\'aspect\', label="\xd0\x92\xd0\xb8\xd0\xb4"),\n                  Field(\'person\', label="\xd0\x9b\xd0\xb8\xd1\x86\xd0\xbe"),\n                  Field(\'transitivity\', label="\xd0\x9f\xd0\xb5\xd1\x80\xd0\xb5\xd1\x85\xd0\xbe\xd0\xb4\xd0\xbd\xd0\xbe\xd1\x81\xd1\x82\xd1\x8c"),\n                  Field(\'mood\', label="\xd0\x9d\xd0\xb0\xd0\xba\xd0\xbb\xd0\xbe\xd0\xbd\xd0\xb5\xd0\xbd\xd0\xb8\xd0\xb5"),\n                  Field(\'involvment\', label="\xd0\xa1\xd0\xbe\xd0\xb2\xd0\xbc\xd0\xb5\xd1\x81\xd1\x82\xd0\xbd\xd0\xbe\xd1\x81\xd1\x82\xd1\x8c"),\n                  Field(\'voice\', label="\xd0\x97\xd0\xb0\xd0\xbb\xd0\xbe\xd0\xb3"),\n                  Field(\'sobstv\', label="\xd0\x98\xd0\xbc\xd1\x8f \xd1\x81\xd0\xbe\xd0\xb1\xd1\x81\xd1\x82\xd0\xb2\xd0\xb5\xd0\xbd\xd0\xbd\xd0\xbe\xd0\xb5"),\n                  Field(\'style\', label="\xd0\xa1\xd1\x82\xd0\xb8\xd0\xbb\xd1\x8c"),\n                  Field(\'other\', label="\xd0\x94\xd1\x80\xd1\x83\xd0\xb3\xd0\xbe\xd0\xb5"),\n                  Field(\'text_location\', label="\xd0\x9c\xd0\xb5\xd1\x81\xd1\x82\xd0\xbe \xd0\xb2 \xd1\x82\xd0\xb5\xd0\xba\xd1\x81\xd1\x82\xd0\xb5"),\n                  Field(\'string_number\', label="\xd0\x9d\xd0\xbe\xd0\xbc\xd0\xb5\xd1\x80 \xd1\x81\xd1\x82\xd1\x80\xd0\xbe\xd0\xba\xd0\xb8"),\n                  Field(\'lexical_group\', label="\xd0\x9b\xd0\xb5\xd0\xba\xd1\x81\xd0\xb8\xd1\x87\xd0\xb5\xd1\x81\xd0\xba\xd0\xb0\xd1\x8f \xd0\xb3\xd1\x80\xd1\x83\xd0\xbf\xd0\xbf\xd0\xb0"),\n                  Field(\'concordance_number\',  label="\xd0\x9d\xd0\xbe\xd0\xbc\xd0\xb5\xd1\x80 \xd0\xb2 \xd0\xba\xd0\xbe\xd0\xbd\xd0\xba\xd0\xbe\xd1\x80\xd0\xb4\xd0\xb0\xd0\xbd\xd1\x81\xd0\xb5"),\n                  Field(\'warning\', label = "Warning"),\n                  Field(\'author\', label="\xd0\x90\xd0\xb2\xd1\x82\xd0\xbe\xd1\x80"),\n                  migrate=False,fake_migrate=True)\n\ntrymysql.define_table(\'concordances\',\n                  Field(\'word\', label="\xd0\xa1\xd0\xbb\xd0\xbe\xd0\xb2\xd0\xbe"),\n                  Field(\'partos\', label="\xd0\xa7\xd0\xb0\xd1\x81\xd1\x82\xd1\x8c \xd1\x80\xd0\xb5\xd1\x87\xd0\xb8"),\n                  Field(\'lexical\', label="\xd0\x9b\xd0\xb5\xd0\xba\xd1\x81\xd0\xb8\xd1\x87\xd0\xb5\xd1\x81\xd0\xba\xd0\xb0\xd1\x8f \xd0\xb3\xd1\x80\xd1\x83\xd0\xbf\xd0\xbf\xd0\xb0"),\n                  migrate=False,fake_migrate=True)\n\ntrymysql.define_table(\'color\',\n                  Field(\'word\', label="\xd0\xa1\xd0\xbb\xd0\xbe\xd0\xb2\xd0\xbe"),\n                  Field(\'partos\', label="\xd0\xa7\xd0\xb0\xd1\x81\xd1\x82\xd1\x8c \xd1\x80\xd0\xb5\xd1\x87\xd0\xb8"),\n                  Field(\'lexical\', label="\xd0\x9b\xd0\xb5\xd0\xba\xd1\x81\xd0\xb8\xd1\x87\xd0\xb5\xd1\x81\xd0\xba\xd0\xb0\xd1\x8f \xd0\xb3\xd1\x80\xd1\x83\xd0\xbf\xd0\xbf\xd0\xb0"),\n                  migrate=False,fake_migrate=True)\n\ntrymysql.define_table(\'comments\',\n                      Field(\'title\', trymysql.text1, label = "\xd0\x9d\xd0\xbe\xd0\xbc\xd0\xb5\xd1\x80 \xd1\x82\xd0\xb5\xd0\xba\xd1\x81\xd1\x82\xd0\xb0"),\n                      Field(\'stanza\', label = "\xd0\x9d\xd0\xbe\xd0\xbc\xd0\xb5\xd1\x80 \xd1\x81\xd1\x82\xd1\x80\xd0\xbe\xd1\x84\xd1\x8b \xd0\xb2 \xd1\x82\xd0\xb5\xd0\xba\xd1\x81\xd1\x82\xd0\xb5"),\n                      Field(\'line\', label = "\xd0\x9d\xd0\xbe\xd0\xbc\xd0\xb5\xd1\x80 \xd1\x81\xd1\x82\xd1\x80\xd0\xbe\xd0\xba\xd0\xb8 \xd0\xb2 \xd1\x82\xd0\xb5\xd0\xba\xd1\x81\xd1\x82\xd0\xb5"),\n                      Field(\'word_first\', trymysql.allword, label="\xd0\x9d\xd0\xbe\xd0\xbc\xd0\xb5\xd1\x80 \xd0\xbf\xd0\xb5\xd1\x80\xd0\xb2\xd0\xbe\xd0\xb3\xd0\xbe \xd1\x81\xd0\xbb\xd0\xbe\xd0\xb2\xd0\xb0"),\n                      Field(\'word_last\', trymysql.allword, label="\xd0\x9d\xd0\xbe\xd0\xbc\xd0\xb5\xd1\x80 \xd0\xbf\xd0\xbe\xd1\x81\xd0\xbb\xd0\xb5\xd0\xb4\xd0\xbd\xd0\xb5\xd0\xb3\xd0\xbe \xd1\x81\xd0\xbb\xd0\xbe\xd0\xb2\xd0\xb0"),\n                      Field(\'comment_text\', \'text\', label = "\xd0\x9a\xd0\xbe\xd0\xbc\xd0\xbc\xd0\xb5\xd0\xbd\xd1\x82\xd0\xb0\xd1\x80\xd0\xb8\xd0\xb9"),\n                      Field(\'comment_book\', label = "\xd0\x98\xd1\x81\xd1\x82\xd0\xbe\xd1\x87\xd0\xbd\xd0\xb8\xd0\xba"),\n                      Field(\'comment_year\', label="\xd0\x93\xd0\xbe\xd0\xb4 \xd0\xbf\xd1\x83\xd0\xb1\xd0\xbb\xd0\xb8\xd0\xba\xd0\xb0\xd1\x86\xd0\xb8\xd0\xb8 \xd0\xba\xd0\xbe\xd0\xbc\xd0\xbc\xd0\xb5\xd0\xbd\xd1\x82\xd0\xb0\xd1\x80\xd0\xb8\xd1\x8f"),\n                      migrate=False,fake_migrate=True)\n\ntrymysql.define_table(\'variants\',\n                      Field(\'title\', trymysql.text1, label = "\xd0\x9d\xd0\xbe\xd0\xbc\xd0\xb5\xd1\x80 \xd1\x82\xd0\xb5\xd0\xba\xd1\x81\xd1\x82\xd0\xb0"),\n                      Field(\'stanza\', label = "\xd0\x9d\xd0\xbe\xd0\xbc\xd0\xb5\xd1\x80 \xd1\x81\xd1\x82\xd1\x80\xd0\xbe\xd1\x84\xd1\x8b \xd0\xb2 \xd1\x82\xd0\xb5\xd0\xba\xd1\x81\xd1\x82\xd0\xb5"),\n                      Field(\'line\', label = "\xd0\x9d\xd0\xbe\xd0\xbc\xd0\xb5\xd1\x80 \xd1\x81\xd1\x82\xd1\x80\xd0\xbe\xd0\xba\xd0\xb8 \xd0\xb2 \xd1\x82\xd0\xb5\xd0\xba\xd1\x81\xd1\x82\xd0\xb5"),\n                      Field(\'word_first\', trymysql.allword, label="\xd0\x9d\xd0\xbe\xd0\xbc\xd0\xb5\xd1\x80 \xd0\xbf\xd0\xb5\xd1\x80\xd0\xb2\xd0\xbe\xd0\xb3\xd0\xbe \xd1\x81\xd0\xbb\xd0\xbe\xd0\xb2\xd0\xb0"),\n                      Field(\'word_last\', trymysql.allword, label="\xd0\x9d\xd0\xbe\xd0\xbc\xd0\xb5\xd1\x80 \xd0\xbf\xd0\xbe\xd1\x81\xd0\xbb\xd0\xb5\xd0\xb4\xd0\xbd\xd0\xb5\xd0\xb3\xd0\xbe \xd1\x81\xd0\xbb\xd0\xbe\xd0\xb2\xd0\xb0"),\n                      Field(\'comment_text\', \'text\', label = "\xd0\x92\xd0\xb0\xd1\x80\xd0\xb8\xd0\xb0\xd0\xbd\xd1\x82"),\n                      Field(\'comment_book\', label = "\xd0\x98\xd0\xb7\xd0\xb4\xd0\xb0\xd0\xbd\xd0\xb8\xd0\xb5"),\n                      Field(\'comment_year\', label="\xd0\x93\xd0\xbe\xd0\xb4 \xd0\xbf\xd1\x83\xd0\xb1\xd0\xbb\xd0\xb8\xd0\xba\xd0\xb0\xd1\x86\xd0\xb8\xd0\xb8 \xd0\xba\xd0\xbe\xd0\xbc\xd0\xbc\xd0\xb5\xd0\xbd\xd1\x82\xd0\xb0\xd1\x80\xd0\xb8\xd1\x8f"),\n                      migrate=False,fake_migrate=True)\n\ntrymysql.define_table(\'data\',\n                  Field(\'author\', trymysql.author),\n                  Field(\'book\', trymysql.group_text),\n                  Field(\'year\', label="\xd0\x93\xd0\xbe\xd0\xb4"),\n                  Field(\'alltexts\', label="\xd0\x9a\xd0\xbe\xd0\xbb\xd0\xb8\xd1\x87\xd0\xb5\xd1\x81\xd1\x82\xd0\xb2\xd0\xbe \xd1\x82\xd0\xb5\xd0\xba\xd1\x81\xd1\x82\xd0\xbe\xd0\xb2"),\n                  Field(\'allwords\', label="\xd0\x9a\xd0\xbe\xd0\xbb\xd0\xb8\xd1\x87\xd0\xb5\xd1\x81\xd1\x82\xd0\xb2\xd0\xbe \xd1\x81\xd0\xbb\xd0\xbe\xd0\xb2"),\n                  Field(\'all_nouns\', label="\xd0\x9a\xd0\xbe\xd0\xbb\xd0\xb8\xd1\x87\xd0\xb5\xd1\x81\xd1\x82\xd0\xb2\xd0\xbe \xd1\x81\xd1\x83\xd1\x89\xd0\xb5\xd1\x81\xd1\x82\xd0\xb2\xd0\xb8\xd1\x82\xd0\xb5\xd0\xbb\xd1\x8c\xd0\xbd\xd1\x8b\xd1\x85"),\n                  Field(\'all_verbs\', label="\xd0\x9a\xd0\xbe\xd0\xbb\xd0\xb8\xd1\x87\xd0\xb5\xd1\x81\xd1\x82\xd0\xb2\xd0\xbe \xd0\xb3\xd0\xbb\xd0\xb0\xd0\xb3\xd0\xbe\xd0\xbb\xd0\xbe\xd0\xb2"),\n                  Field(\'all_infn\', label="\xd0\x9a\xd0\xbe\xd0\xbb\xd0\xb8\xd1\x87\xd0\xb5\xd1\x81\xd1\x82\xd0\xb2\xd0\xbe \xd0\xb8\xd0\xbd\xd1\x84\xd0\xb8\xd0\xbd\xd0\xb8\xd1\x82\xd0\xb8\xd0\xb2\xd0\xbe\xd0\xb2"),\n                  Field(\'all_adjf\', label="\xd0\x9a\xd0\xbe\xd0\xbb\xd0\xb8\xd1\x87\xd0\xb5\xd1\x81\xd1\x82\xd0\xb2\xd0\xbe \xd0\xbf\xd0\xbe\xd0\xbb\xd0\xbd\xd1\x8b\xd1\x85 \xd0\xbf\xd1\x80\xd0\xb8\xd0\xbb\xd0\xb0\xd0\xb3\xd0\xb0\xd1\x82\xd0\xb5\xd0\xbb\xd1\x8c\xd0\xbd\xd1\x8b\xd1\x85"),\n                  Field(\'all_adjs\', label="\xd0\x9a\xd0\xbe\xd0\xbb\xd0\xb8\xd1\x87\xd0\xb5\xd1\x81\xd1\x82\xd0\xb2\xd0\xbe \xd0\xba\xd1\x80\xd0\xb0\xd1\x82\xd0\xba\xd0\xb8\xd1\x85 \xd0\xbf\xd1\x80\xd0\xb8\xd0\xbb\xd0\xb0\xd0\xb3\xd0\xb0\xd1\x82\xd0\xb5\xd0\xbb\xd1\x8c\xd0\xbd\xd1\x8b\xd1\x85"),\n                  Field(\'all_grnd\', label="\xd0\x9a\xd0\xbe\xd0\xbb\xd0\xb8\xd1\x87\xd0\xb5\xd1\x81\xd1\x82\xd0\xb2\xd0\xbe \xd0\xb4\xd0\xb5\xd0\xb5\xd0\xbf\xd1\x80\xd0\xb8\xd1\x87\xd0\xb0\xd1\x81\xd1\x82\xd0\xb8\xd0\xb9"),\n                  Field(\'all_prtf\', label="\xd0\x9a\xd0\xbe\xd0\xbb\xd0\xb8\xd1\x87\xd0\xb5\xd1\x81\xd1\x82\xd0\xb2\xd0\xbe \xd0\xbf\xd0\xbe\xd0\xbb\xd0\xbd\xd1\x8b\xd1\x85 \xd0\xbf\xd1\x80\xd0\xb8\xd1\x87\xd0\xb0\xd1\x81\xd1\x82\xd0\xb8\xd0\xb9"),\n                  Field(\'all_prts\', label="\xd0\x9a\xd0\xbe\xd0\xbb\xd0\xb8\xd1\x87\xd0\xb5\xd1\x81\xd1\x82\xd0\xb2\xd0\xbe \xd0\xba\xd1\x80\xd0\xb0\xd1\x82\xd0\xba\xd0\xb8\xd1\x85 \xd0\xbf\xd1\x80\xd0\xb8\xd1\x87\xd0\xb0\xd1\x81\xd1\x82\xd0\xb8\xd0\xb9"),\n                  Field(\'all_advb\', label="\xd0\x9a\xd0\xbe\xd0\xbb\xd0\xb8\xd1\x87\xd0\xb5\xd1\x81\xd1\x82\xd0\xb2\xd0\xbe \xd0\xbd\xd0\xb0\xd1\x80\xd0\xb5\xd1\x87\xd0\xb8\xd0\xb9"),\n                  Field(\'all_prep\', label="\xd0\x9a\xd0\xbe\xd0\xbb\xd0\xb8\xd1\x87\xd0\xb5\xd1\x81\xd1\x82\xd0\xb2\xd0\xbe \xd0\xbf\xd1\x80\xd0\xb5\xd0\xb4\xd0\xbb\xd0\xbe\xd0\xb3\xd0\xbe\xd0\xb2"),\n                  Field(\'all_conj\', label="\xd0\x9a\xd0\xbe\xd0\xbb\xd0\xb8\xd1\x87\xd0\xb5\xd1\x81\xd1\x82\xd0\xb2\xd0\xbe \xd1\x81\xd0\xbe\xd1\x8e\xd0\xb7\xd0\xbe\xd0\xb2"),\n                  Field(\'all_prcl\', label="\xd0\x9a\xd0\xbe\xd0\xbb\xd0\xb8\xd1\x87\xd0\xb5\xd1\x81\xd1\x82\xd0\xb2\xd0\xbe \xd1\x87\xd0\xb0\xd1\x81\xd1\x82\xd0\xb8\xd1\x86"),\n                  Field(\'all_npro\', label="\xd0\x9a\xd0\xbe\xd0\xbb\xd0\xb8\xd1\x87\xd0\xb5\xd1\x81\xd1\x82\xd0\xb2\xd0\xbe \xd0\xbc\xd0\xb5\xd1\x81\xd1\x82\xd0\xbe\xd0\xb8\xd0\xbc\xd0\xb5\xd0\xbd\xd0\xb8\xd0\xb9"),\n                  Field(\'all_point\', label="\xd0\x9a\xd0\xbe\xd0\xbb\xd0\xb8\xd1\x87\xd0\xb5\xd1\x81\xd1\x82\xd0\xb2\xd0\xbe \xd1\x82\xd0\xbe\xd1\x87\xd0\xb5\xd0\xba"),\n                  Field(\'all_exclam\', label="\xd0\x9a\xd0\xbe\xd0\xbb\xd0\xb8\xd1\x87\xd0\xb5\xd1\x81\xd1\x82\xd0\xb2\xd0\xbe \xd0\xb2\xd0\xbe\xd1\x81\xd0\xba\xd0\xbb\xd0\xb8\xd1\x86\xd0\xb0\xd1\x82\xd0\xb5\xd0\xbb\xd1\x8c\xd0\xbd\xd1\x8b\xd1\x85 \xd0\xb7\xd0\xbd\xd0\xb0\xd0\xba\xd0\xbe\xd0\xb2"),\n                  Field(\'all_comma\', label="\xd0\x9a\xd0\xbe\xd0\xbb\xd0\xb8\xd1\x87\xd0\xb5\xd1\x81\xd1\x82\xd0\xb2\xd0\xbe \xd0\xb7\xd0\xb0\xd0\xbf\xd1\x8f\xd1\x82\xd1\x8b\xd1\x85"),\n                  Field(\'all_question\', label="\xd0\x9a\xd0\xbe\xd0\xbb\xd0\xb8\xd1\x87\xd0\xb5\xd1\x81\xd1\x82\xd0\xb2\xd0\xbe \xd0\xb2\xd0\xbe\xd0\xbf\xd1\x80\xd0\xbe\xd1\x81\xd0\xb8\xd1\x82\xd0\xb5\xd0\xbb\xd1\x8c\xd0\xbd\xd1\x8b\xd1\x85 \xd0\xb7\xd0\xbd\xd0\xb0\xd0\xba\xd0\xbe\xd0\xb2"),\n                  Field(\'length_sentence\', label="\xd0\xa1\xd1\x80\xd0\xb5\xd0\xb4\xd0\xbd\xd1\x8f\xd1\x8f \xd0\xb4\xd0\xbb\xd0\xb8\xd0\xbd\xd0\xb0 \xd0\xbf\xd1\x80\xd0\xb5\xd0\xb4\xd0\xbb\xd0\xbe\xd0\xb6\xd0\xb5\xd0\xbd\xd0\xb8\xd1\x8f"),\n                  Field(\'length_words\', label="\xd0\xa1\xd1\x80\xd0\xb5\xd0\xb4\xd0\xbd\xd1\x8f\xd1\x8f \xd0\xb4\xd0\xbb\xd0\xb8\xd0\xbd\xd0\xb0 \xd1\x81\xd0\xbb\xd0\xbe\xd0\xb2\xd0\xb0"),\n                  Field(\'words_range\', label="\xd0\x9d\xd0\xb0\xd1\x81\xd1\x8b\xd1\x89\xd0\xb5\xd0\xbd\xd0\xbd\xd0\xbe\xd1\x81\xd1\x82\xd1\x8c \xd1\x81\xd0\xbb\xd0\xbe\xd0\xb2\xd0\xb0\xd1\x80\xd1\x8f"),\n                  migrate = False, fake_migrate=True)\n\ntrymysql.define_table(\'grammar\',\n                  Field(\'author\', trymysql.author),\n                  Field(\'book\', trymysql.group_text),\n                  Field(\'year\', label="\xd0\x93\xd0\xbe\xd0\xb4"),\n                  Field(\'masc\', label="\xd0\x9c\xd1\x83\xd0\xb6\xd1\x81\xd0\xba\xd0\xbe\xd0\xb9 \xd1\x80\xd0\xbe\xd0\xb4"),\n                  Field(\'femn\', label="\xd0\x96\xd0\xb5\xd0\xbd\xd1\x81\xd0\xba\xd0\xb8\xd0\xb9 \xd1\x80\xd0\xbe\xd0\xb4"),\n                  Field(\'inan\', label="\xd0\x9d\xd0\xb5\xd0\xbe\xd0\xb4\xd1\x83\xd1\x88\xd0\xb5\xd0\xb2\xd0\xbb\xd0\xb5\xd0\xbd\xd0\xbd\xd1\x8b\xd0\xb5"),\n                  Field(\'anim\', label="\xd0\x9e\xd0\xb4\xd1\x83\xd1\x88\xd0\xb5\xd0\xb2\xd0\xbb\xd0\xb5\xd0\xbd\xd0\xbd\xd1\x8b\xd0\xb5"),\n                  Field(\'past\', label="\xd0\x9f\xd1\x80\xd0\xbe\xd1\x88\xd0\xb5\xd0\xb4\xd1\x88\xd0\xb5\xd0\xb5 \xd0\xb2\xd1\x80\xd0\xb5\xd0\xbc\xd1\x8f"),\n                  Field(\'pres\', label="\xd0\x9d\xd0\xb0\xd1\x81\xd1\x82\xd0\xbe\xd1\x8f\xd1\x89\xd0\xb5\xd0\xb5 \xd0\xb2\xd1\x80\xd0\xb5\xd0\xbc\xd1\x8f"),\n                  Field(\'futr\', label="\xd0\x91\xd1\x83\xd0\xb4\xd1\x83\xd1\x89\xd0\xb5\xd0\xb5 \xd0\xb2\xd1\x80\xd0\xb5\xd0\xbc\xd1\x8f"),\n                  Field(\'name\', label="\xd0\x98\xd0\xbc\xd0\xb5\xd0\xbd \xd1\x81\xd0\xbe\xd0\xb1\xd1\x81\xd1\x82\xd0\xb2\xd0\xb5\xd0\xbd\xd0\xbd\xd1\x8b\xd1\x85"),\n                  Field(\'len_text\', label="\xd0\xa1\xd1\x80\xd0\xb5\xd0\xb4\xd0\xbd\xd1\x8f\xd1\x8f \xd0\xb4\xd0\xbb\xd0\xb8\xd0\xbd\xd0\xb0 \xd1\x82\xd0\xb5\xd0\xba\xd1\x81\xd1\x82\xd0\xb0, \xd1\x81\xd1\x82\xd1\x80\xd0\xbe\xd0\xba"),\n                  Field(\'len_line\', label="\xd0\xa1\xd1\x80\xd0\xb5\xd0\xb4\xd0\xbd\xd1\x8f\xd1\x8f \xd0\xb4\xd0\xbb\xd0\xb8\xd0\xbd\xd0\xb0 \xd1\x81\xd1\x82\xd1\x80\xd0\xbe\xd0\xba\xd0\xb8, \xd1\x81\xd0\xbb\xd0\xbe\xd0\xb2\xd0\xb0"),\n                  Field(\'len_line_w\', label="\xd0\xa1\xd1\x80\xd0\xb5\xd0\xb4\xd0\xbd\xd1\x8f\xd1\x8f \xd0\xb4\xd0\xbb\xd0\xb8\xd0\xbd\xd0\xb0 \xd1\x81\xd1\x82\xd1\x80\xd0\xbe\xd0\xba\xd0\xb8, \xd0\xb1\xd1\x83\xd0\xba\xd0\xb2\xd1\x8b"),\n                  migrate=False, fake_migrate=False)\n\ntrymysql.define_table(\'biblio\',\n                      Field(\'title\', \'\xd0\x9d\xd0\xb0\xd0\xb7\xd0\xb2\xd0\xb0\xd0\xbd\xd0\xb8\xd0\xb5\'),\n                      Field(\'author\', \'\xd0\x90\xd0\xb2\xd1\x82\xd0\xbe\xd1\x80\'),\n                      Field(\'city\', \'\xd0\x93\xd0\xbe\xd1\x80\xd0\xbe\xd0\xb4\'),\n                      Field(\'editor\', \'\xd0\x98\xd0\xb7\xd0\xb4\xd0\xb0\xd1\x82\xd0\xb5\xd0\xbb\xd1\x8c\xd1\x81\xd1\x82\xd0\xb2\xd0\xbe\'),\n                      Field(\'year\', \'\xd0\x93\xd0\xbe\xd0\xb4\'),\n                      Field(\'part\', \'\xd0\xa2\xd0\xbe\xd0\xbc\'))\n\n#purchased = (trymysql.author.name==trymysql.text1.author)&(trymysql.author.id==trymysql.words.author)\n#n2ew = (trymysql.text1.title==trymysql.words.title)&(trymysql.text1.id==trymysql.words.title)\n'
p7
sS'snapshot'
p8
(dp9
S'exception'
p10
(dp11
S'__getslice__'
p12
S"<method-wrapper '__getslice__' of exceptions.SyntaxError object>"
p13
sS'text'
p14
S'None'
p15
sS'__str__'
p16
S"<method-wrapper '__str__' of exceptions.SyntaxError object>"
p17
sS'__reduce__'
p18
S'<built-in method __reduce__ of exceptions.SyntaxError object>'
p19
sS'__dict__'
p20
S'{}'
p21
sS'__sizeof__'
p22
S'<built-in method __sizeof__ of exceptions.SyntaxError object>'
p23
sS'__init__'
p24
S"<method-wrapper '__init__' of exceptions.SyntaxError object>"
p25
sS'__setattr__'
p26
S"<method-wrapper '__setattr__' of exceptions.SyntaxError object>"
p27
sS'__reduce_ex__'
p28
S'<built-in method __reduce_ex__ of exceptions.SyntaxError object>'
p29
sS'__new__'
p30
S'<built-in method __new__ of type object>'
p31
sS'__format__'
p32
S'<built-in method __format__ of exceptions.SyntaxError object>'
p33
sS'__class__'
p34
S"<type 'exceptions.SyntaxError'>"
p35
sS'filename'
p36
S'None'
p37
sS'lineno'
p38
S'None'
p39
sS'msg'
p40
S"'Field: unknown field type: \\xd0\\x9d\\xd0\\xb0\\xd0\\xb7\\xd0\\xb2\\xd0\\xb0\\xd0\\xbd\\xd0\\xb8\\xd0\\xb5 for title'"
p41
sS'__doc__'
p42
S"'Invalid syntax.'"
p43
sS'__getitem__'
p44
S"<method-wrapper '__getitem__' of exceptions.SyntaxError object>"
p45
sS'__setstate__'
p46
S'<built-in method __setstate__ of exceptions.SyntaxError object>'
p47
sS'__getattribute__'
p48
S"<method-wrapper '__getattribute__' of exceptions.SyntaxError object>"
p49
sS'print_file_and_line'
p50
S'None'
p51
sS'args'
p52
S"('Field: unknown field type: \\xd0\\x9d\\xd0\\xb0\\xd0\\xb7\\xd0\\xb2\\xd0\\xb0\\xd0\\xbd\\xd0\\xb8\\xd0\\xb5 for title',)"
p53
sS'__subclasshook__'
p54
S'<built-in method __subclasshook__ of type object>'
p55
sS'offset'
p56
S'None'
p57
sS'__unicode__'
p58
S'<built-in method __unicode__ of exceptions.SyntaxError object>'
p59
sS'__delattr__'
p60
S"<method-wrapper '__delattr__' of exceptions.SyntaxError object>"
p61
sS'__repr__'
p62
S"<method-wrapper '__repr__' of exceptions.SyntaxError object>"
p63
sS'__hash__'
p64
S"<method-wrapper '__hash__' of exceptions.SyntaxError object>"
p65
ssS'evalue'
p66
S'Field: unknown field type: \xd0\x9d\xd0\xb0\xd0\xb7\xd0\xb2\xd0\xb0\xd0\xbd\xd0\xb8\xd0\xb5 for title'
p67
sS'request'
p68
cgluon.html
XML_unpickle
p69
(S's\x01T\x00\x00<div><table><tr><td style="font-weight:bold;vertical-align:top;">ajax</td><td style="vertical-align:top;">:</td><td><div>False</div></td></tr><tr><td style="font-weight:bold;vertical-align:top;">application</td><td style="vertical-align:top;">:</td><td><div>test</div></td></tr><tr><td style="font-weight:bold;vertical-align:top;">args</td><td style="vertical-align:top;">:</td><td><div><table></table></div></td></tr><tr><td style="font-weight:bold;vertical-align:top;">cid</td><td style="vertical-align:top;">:</td><td><div>None</div></td></tr><tr><td style="font-weight:bold;vertical-align:top;">client</td><td style="vertical-align:top;">:</td><td><div>217.118.78.84</div></td></tr><tr><td style="font-weight:bold;vertical-align:top;">controller</td><td style="vertical-align:top;">:</td><td><div>appadmin</div></td></tr><tr><td style="font-weight:bold;vertical-align:top;">cookies</td><td style="vertical-align:top;">:</td><td><div><table><tr><td style="font-weight:bold;vertical-align:top;">session_id_admin</td><td style="vertical-align:top;">:</td><td><div>46.101.16.229-66ba3a19-410e-462f-b6b9-57f04f1b0572<table><tr><td style="font-weight:bold;vertical-align:top;">comment</td><td style="vertical-align:top;">:</td><td><div></div></td></tr><tr><td style="font-weight:bold;vertical-align:top;">domain</td><td style="vertical-align:top;">:</td><td><div></div></td></tr><tr><td style="font-weight:bold;vertical-align:top;">expires</td><td style="vertical-align:top;">:</td><td><div></div></td></tr><tr><td style="font-weight:bold;vertical-align:top;">httponly</td><td style="vertical-align:top;">:</td><td><div></div></td></tr><tr><td style="font-weight:bold;vertical-align:top;">max-age</td><td style="vertical-align:top;">:</td><td><div></div></td></tr><tr><td style="font-weight:bold;vertical-align:top;">path</td><td style="vertical-align:top;">:</td><td><div></div></td></tr><tr><td style="font-weight:bold;vertical-align:top;">secure</td><td style="vertical-align:top;">:</td><td><div></div></td></tr><tr><td style="font-weight:bold;vertical-align:top;">version</td><td style="vertical-align:top;">:</td><td><div></div></td></tr></table></div></td></tr><tr><td style="font-weight:bold;vertical-align:top;">session_id_test</td><td style="vertical-align:top;">:</td><td><div>217.118.78.84-af7ac002-84a3-4ec7-b952-0cf6d8838678<table><tr><td style="font-weight:bold;vertical-align:top;">comment</td><td style="vertical-align:top;">:</td><td><div></div></td></tr><tr><td style="font-weight:bold;vertical-align:top;">domain</td><td style="vertical-align:top;">:</td><td><div></div></td></tr><tr><td style="font-weight:bold;vertical-align:top;">expires</td><td style="vertical-align:top;">:</td><td><div></div></td></tr><tr><td style="font-weight:bold;vertical-align:top;">httponly</td><td style="vertical-align:top;">:</td><td><div></div></td></tr><tr><td style="font-weight:bold;vertical-align:top;">max-age</td><td style="vertical-align:top;">:</td><td><div></div></td></tr><tr><td style="font-weight:bold;vertical-align:top;">path</td><td style="vertical-align:top;">:</td><td><div></div></td></tr><tr><td style="font-weight:bold;vertical-align:top;">secure</td><td style="vertical-align:top;">:</td><td><div></div></td></tr><tr><td style="font-weight:bold;vertical-align:top;">version</td><td style="vertical-align:top;">:</td><td><div></div></td></tr></table></div></td></tr></table></div></td></tr><tr><td style="font-weight:bold;vertical-align:top;">env</td><td style="vertical-align:top;">:</td><td><div><table><tr><td style="font-weight:bold;vertical-align:top;">CONTENT_LENGTH</td><td style="vertical-align:top;">:</td><td><div></div></td></tr><tr><td style="font-weight:bold;vertical-align:top;">CONTENT_TYPE</td><td style="vertical-align:top;">:</td><td><div></div></td></tr><tr><td style="font-weight:bold;vertical-align:top;">DOCUMENT_ROOT</td><td style="vertical-align:top;">:</td><td><div>/usr/local/openresty/nginx/html</div></td></tr><tr><td style="font-weight:bold;vertical-align:top;">HTTPS</td><td style="vertical-align:top;">:</td><td><div>on</div></td></tr><tr><td style="font-weight:bold;vertical-align:top;">HTTP_ACCEPT</td><td style="vertical-align:top;">:</td><td><div>text/html,application/xhtml+xml,application/xml;q=0.9,image/webp,*/*;q=0.8</div></td></tr><tr><td style="font-weight:bold;vertical-align:top;">HTTP_ACCEPT_ENCODING</td><td style="vertical-align:top;">:</td><td><div>gzip, deflate, sdch, br</div></td></tr><tr><td style="font-weight:bold;vertical-align:top;">HTTP_ACCEPT_LANGUAGE</td><td style="vertical-align:top;">:</td><td><div>ru,en;q=0.8,en-US;q=0.6</div></td></tr><tr><td style="font-weight:bold;vertical-align:top;">HTTP_CONNECTION</td><td style="vertical-align:top;">:</td><td><div>close</div></td></tr><tr><td style="font-weight:bold;vertical-align:top;">HTTP_COOKIE</td><td style="vertical-align:top;">:</td><td><div>_ga=GA1.2.2009921225.1482865438; __utmt=1; session_id_test=217.118.78.84-af7ac002-84a3-4ec7-b952-0cf6d8838678; __utma=134993891.2009921225.1482865438.1484731433.1484748884.30; __utmb=134993891.4.10.1484748884; __utmc=134993891; __utmz=134993891.1484355529.1.1.utmcsr=(direct)|utmccn=(direct)|utmcmd=(none); session_id_admin=46.101.16.229-66ba3a19-410e-462f-b6b9-57f04f1b0572</div></td></tr><tr><td style="font-weight:bold;vertical-align:top;">HTTP_HOST</td><td style="vertical-align:top;">:</td><td><div>concordance.pythonanywhere.com</div></td></tr><tr><td style="font-weight:bold;vertical-align:top;">HTTP_REFERER</td><td style="vertical-align:top;">:</td><td><div>https://concordance.pythonanywhere.com/test/appadmin/select/trymysql?query=trymysql.variants.id%3E0</div></td></tr><tr><td style="font-weight:bold;vertical-align:top;">HTTP_UPGRADE_INSECURE_REQUESTS</td><td style="vertical-align:top;">:</td><td><div>1</div></td></tr><tr><td style="font-weight:bold;vertical-align:top;">HTTP_USER_AGENT</td><td style="vertical-align:top;">:</td><td><div>Mozilla/5.0 (Windows NT 10.0; WOW64) AppleWebKit/537.36 (KHTML, like Gecko) Chrome/55.0.2883.87 Safari/537.36</div></td></tr><tr><td style="font-weight:bold;vertical-align:top;">HTTP_X_FORWARDED_FOR</td><td style="vertical-align:top;">:</td><td><div>217.118.78.84</div></td></tr><tr><td style="font-weight:bold;vertical-align:top;">HTTP_X_REAL_IP</td><td style="vertical-align:top;">:</td><td><div>217.118.78.84</div></td></tr><tr><td style="font-weight:bold;vertical-align:top;">PATH_INFO</td><td style="vertical-align:top;">:</td><td><div>/test/appadmin/index</div></td></tr><tr><td style="font-weight:bold;vertical-align:top;">QUERY_STRING</td><td style="vertical-align:top;">:</td><td><div></div></td></tr><tr><td style="font-weight:bold;vertical-align:top;">REMOTE_ADDR</td><td style="vertical-align:top;">:</td><td><div>10.0.0.236</div></td></tr><tr><td style="font-weight:bold;vertical-align:top;">REMOTE_PORT</td><td style="vertical-align:top;">:</td><td><div>55309</div></td></tr><tr><td style="font-weight:bold;vertical-align:top;">REQUEST_METHOD</td><td style="vertical-align:top;">:</td><td><div>GET</div></td></tr><tr><td style="font-weight:bold;vertical-align:top;">REQUEST_URI</td><td style="vertical-align:top;">:</td><td><div>/test/appadmin/index</div></td></tr><tr><td style="font-weight:bold;vertical-align:top;">SCRIPT_NAME</td><td style="vertical-align:top;">:</td><td><div></div></td></tr><tr><td style="font-weight:bold;vertical-align:top;">SERVER_NAME</td><td style="vertical-align:top;">:</td><td><div>concordance.pythonanywhere.com</div></td></tr><tr><td style="font-weight:bold;vertical-align:top;">SERVER_PORT</td><td style="vertical-align:top;">:</td><td><div>443</div></td></tr><tr><td style="font-weight:bold;vertical-align:top;">SERVER_PROTOCOL</td><td style="vertical-align:top;">:</td><td><div>HTTP/1.1</div></td></tr><tr><td style="font-weight:bold;vertical-align:top;">app_folders</td><td style="vertical-align:top;">:</td><td><div>set([&#x27;/home/concordance/web2py/applications/admin/&#x27;, &#x27;/home/concordance/web2py/applications/test/&#x27;])</div></td></tr><tr><td style="font-weight:bold;vertical-align:top;">applications_parent</td><td style="vertical-align:top;">:</td><td><div>/home/concordance/web2py</div></td></tr><tr><td style="font-weight:bold;vertical-align:top;">content_length</td><td style="vertical-align:top;">:</td><td><div></div></td></tr><tr><td style="font-weight:bold;vertical-align:top;">content_type</td><td style="vertical-align:top;">:</td><td><div></div></td></tr><tr><td style="font-weight:bold;vertical-align:top;">db_sessions</td><td style="vertical-align:top;">:</td><td><div>set([])</div></td></tr><tr><td style="font-weight:bold;vertical-align:top;">debugging</td><td style="vertical-align:top;">:</td><td><div>True</div></td></tr><tr><td style="font-weight:bold;vertical-align:top;">document_root</td><td style="vertical-align:top;">:</td><td><div>/usr/local/openresty/nginx/html</div></td></tr><tr><td style="font-weight:bold;vertical-align:top;">gluon_parent</td><td style="vertical-align:top;">:</td><td><div>/home/concordance/web2py</div></td></tr><tr><td style="font-weight:bold;vertical-align:top;">http_accept</td><td style="vertical-align:top;">:</td><td><div>text/html,application/xhtml+xml,application/xml;q=0.9,image/webp,*/*;q=0.8</div></td></tr><tr><td style="font-weight:bold;vertical-align:top;">http_accept_encoding</td><td style="vertical-align:top;">:</td><td><div>gzip, deflate, sdch, br</div></td></tr><tr><td style="font-weight:bold;vertical-align:top;">http_accept_language</td><td style="vertical-align:top;">:</td><td><div>ru,en;q=0.8,en-US;q=0.6</div></td></tr><tr><td style="font-weight:bold;vertical-align:top;">http_connection</td><td style="vertical-align:top;">:</td><td><div>close</div></td></tr><tr><td style="font-weight:bold;vertical-align:top;">http_cookie</td><td style="vertical-align:top;">:</td><td><div>_ga=GA1.2.2009921225.1482865438; __utmt=1; session_id_test=217.118.78.84-af7ac002-84a3-4ec7-b952-0cf6d8838678; __utma=134993891.2009921225.1482865438.1484731433.1484748884.30; __utmb=134993891.4.10.1484748884; __utmc=134993891; __utmz=134993891.1484355529.1.1.utmcsr=(direct)|utmccn=(direct)|utmcmd=(none); session_id_admin=46.101.16.229-66ba3a19-410e-462f-b6b9-57f04f1b0572</div></td></tr><tr><td style="font-weight:bold;vertical-align:top;">http_host</td><td style="vertical-align:top;">:</td><td><div>concordance.pythonanywhere.com</div></td></tr><tr><td style="font-weight:bold;vertical-align:top;">http_referer</td><td style="vertical-align:top;">:</td><td><div>https://concordance.pythonanywhere.com/test/appadmin/select/trymysql?query=trymysql.variants.id%3E0</div></td></tr><tr><td style="font-weight:bold;vertical-align:top;">http_upgrade_insecure_requests</td><td style="vertical-align:top;">:</td><td><div>1</div></td></tr><tr><td style="font-weight:bold;vertical-align:top;">http_user_agent</td><td style="vertical-align:top;">:</td><td><div>Mozilla/5.0 (Windows NT 10.0; WOW64) AppleWebKit/537.36 (KHTML, like Gecko) Chrome/55.0.2883.87 Safari/537.36</div></td></tr><tr><td style="font-weight:bold;vertical-align:top;">http_x_forwarded_for</td><td style="vertical-align:top;">:</td><td><div>217.118.78.84</div></td></tr><tr><td style="font-weight:bold;vertical-align:top;">http_x_real_ip</td><td style="vertical-align:top;">:</td><td><div>217.118.78.84</div></td></tr><tr><td style="font-weight:bold;vertical-align:top;">https</td><td style="vertical-align:top;">:</td><td><div>on</div></td></tr><tr><td style="font-weight:bold;vertical-align:top;">is_jython</td><td style="vertical-align:top;">:</td><td><div>False</div></td></tr><tr><td style="font-weight:bold;vertical-align:top;">is_pypy</td><td style="vertical-align:top;">:</td><td><div>False</div></td></tr><tr><td style="font-weight:bold;vertical-align:top;">is_source</td><td style="vertical-align:top;">:</td><td><div>True</div></td></tr><tr><td style="font-weight:bold;vertical-align:top;">local_hosts</td><td style="vertical-align:top;">:</td><td><div><table><tr><td><div>::ffff:127.0.0.1</div></td></tr><tr><td><div>::1</div></td></tr><tr><td><div>giles-liveweb6</div></td></tr><tr><td><div>50.19.109.98</div></td></tr><tr><td><div>127.0.0.1</div></td></tr><tr><td><div>concordance.pythonanywhere.com</div></td></tr><tr><td><div>localhost</div></td></tr></table></div></td></tr><tr><td style="font-weight:bold;vertical-align:top;">path_info</td><td style="vertical-align:top;">:</td><td><div>/test/appadmin/index</div></td></tr><tr><td style="font-weight:bold;vertical-align:top;">query_string</td><td style="vertical-align:top;">:</td><td><div></div></td></tr><tr><td style="font-weight:bold;vertical-align:top;">remote_addr</td><td style="vertical-align:top;">:</td><td><div>10.0.0.236</div></td></tr><tr><td style="font-weight:bold;vertical-align:top;">remote_port</td><td style="vertical-align:top;">:</td><td><div>55309</div></td></tr><tr><td style="font-weight:bold;vertical-align:top;">request_method</td><td style="vertical-align:top;">:</td><td><div>GET</div></td></tr><tr><td style="font-weight:bold;vertical-align:top;">request_uri</td><td style="vertical-align:top;">:</td><td><div>/test/appadmin/index</div></td></tr><tr><td style="font-weight:bold;vertical-align:top;">script_name</td><td style="vertical-align:top;">:</td><td><div></div></td></tr><tr><td style="font-weight:bold;vertical-align:top;">server_name</td><td style="vertical-align:top;">:</td><td><div>concordance.pythonanywhere.com</div></td></tr><tr><td style="font-weight:bold;vertical-align:top;">server_port</td><td style="vertical-align:top;">:</td><td><div>443</div></td></tr><tr><td style="font-weight:bold;vertical-align:top;">server_protocol</td><td style="vertical-align:top;">:</td><td><div>HTTP/1.1</div></td></tr><tr><td style="font-weight:bold;vertical-align:top;">uwsgi.node</td><td style="vertical-align:top;">:</td><td><div>giles-liveweb6</div></td></tr><tr><td style="font-weight:bold;vertical-align:top;">uwsgi.version</td><td style="vertical-align:top;">:</td><td><div>2.0.5.1</div></td></tr><tr><td style="font-weight:bold;vertical-align:top;">uwsgi_node</td><td style="vertical-align:top;">:</td><td><div>giles-liveweb6</div></td></tr><tr><td style="font-weight:bold;vertical-align:top;">uwsgi_version</td><td style="vertical-align:top;">:</td><td><div>2.0.5.1</div></td></tr><tr><td style="font-weight:bold;vertical-align:top;">web2py_original_uri</td><td style="vertical-align:top;">:</td><td><div>/test/appadmin/index</div></td></tr><tr><td style="font-weight:bold;vertical-align:top;">web2py_path</td><td style="vertical-align:top;">:</td><td><div>/home/concordance/web2py</div></td></tr><tr><td style="font-weight:bold;vertical-align:top;">web2py_version</td><td style="vertical-align:top;">:</td><td><div>2.9.5-stable+timestamp.2014.03.16.02.35.39</div></td></tr><tr><td style="font-weight:bold;vertical-align:top;">wsgi.errors</td><td style="vertical-align:top;">:</td><td><div>&lt;uwsgi_file__bin_user_wsgi_wrapper.ErrorLogFile object at 0x7f2718531150&gt;</div></td></tr><tr><td style="font-weight:bold;vertical-align:top;">wsgi.file_wrapper</td><td style="vertical-align:top;">:</td><td><div>&lt;built-in function uwsgi_sendfile&gt;</div></td></tr><tr><td style="font-weight:bold;vertical-align:top;">wsgi.input</td><td style="vertical-align:top;">:</td><td><div>&lt;uwsgi._Input object at 0x7f26f8a44510&gt;</div></td></tr><tr><td style="font-weight:bold;vertical-align:top;">wsgi.multiprocess</td><td style="vertical-align:top;">:</td><td><div>True</div></td></tr><tr><td style="font-weight:bold;vertical-align:top;">wsgi.multithread</td><td style="vertical-align:top;">:</td><td><div>False</div></td></tr><tr><td style="font-weight:bold;vertical-align:top;">wsgi.run_once</td><td style="vertical-align:top;">:</td><td><div>False</div></td></tr><tr><td style="font-weight:bold;vertical-align:top;">wsgi.url_scheme</td><td style="vertical-align:top;">:</td><td><div>https</div></td></tr><tr><td style="font-weight:bold;vertical-align:top;">wsgi.version</td><td style="vertical-align:top;">:</td><td><div><table><tr><td><div>1</div></td></tr><tr><td><div>0</div></td></tr></table></div></td></tr><tr><td style="font-weight:bold;vertical-align:top;">wsgi_errors</td><td style="vertical-align:top;">:</td><td><div>&lt;uwsgi_file__bin_user_wsgi_wrapper.ErrorLogFile object at 0x7f2718531150&gt;</div></td></tr><tr><td style="font-weight:bold;vertical-align:top;">wsgi_file_wrapper</td><td style="vertical-align:top;">:</td><td><div>&lt;built-in function uwsgi_sendfile&gt;</div></td></tr><tr><td style="font-weight:bold;vertical-align:top;">wsgi_input</td><td style="vertical-align:top;">:</td><td><div>&lt;uwsgi._Input object at 0x7f26f8a44510&gt;</div></td></tr><tr><td style="font-weight:bold;vertical-align:top;">wsgi_multiprocess</td><td style="vertical-align:top;">:</td><td><div>True</div></td></tr><tr><td style="font-weight:bold;vertical-align:top;">wsgi_multithread</td><td style="vertical-align:top;">:</td><td><div>False</div></td></tr><tr><td style="font-weight:bold;vertical-align:top;">wsgi_run_once</td><td style="vertical-align:top;">:</td><td><div>False</div></td></tr><tr><td style="font-weight:bold;vertical-align:top;">wsgi_url_scheme</td><td style="vertical-align:top;">:</td><td><div>https</div></td></tr><tr><td style="font-weight:bold;vertical-align:top;">wsgi_version</td><td style="vertical-align:top;">:</td><td><div><table><tr><td><div>1</div></td></tr><tr><td><div>0</div></td></tr></table></div></td></tr></table></div></td></tr><tr><td style="font-weight:bold;vertical-align:top;">extension</td><td style="vertical-align:top;">:</td><td><div>html</div></td></tr><tr><td style="font-weight:bold;vertical-align:top;">folder</td><td style="vertical-align:top;">:</td><td><div>/home/concordance/web2py/applications/test/</div></td></tr><tr><td style="font-weight:bold;vertical-align:top;">function</td><td style="vertical-align:top;">:</td><td><div>index</div></td></tr><tr><td style="font-weight:bold;vertical-align:top;">global_settings</td><td style="vertical-align:top;">:</td><td><div><table><tr><td style="font-weight:bold;vertical-align:top;">app_folders</td><td style="vertical-align:top;">:</td><td><div>set([&#x27;/home/concordance/web2py/applications/admin/&#x27;, &#x27;/home/concordance/web2py/applications/test/&#x27;])</div></td></tr><tr><td style="font-weight:bold;vertical-align:top;">applications_parent</td><td style="vertical-align:top;">:</td><td><div>/home/concordance/web2py</div></td></tr><tr><td style="font-weight:bold;vertical-align:top;">db_sessions</td><td style="vertical-align:top;">:</td><td><div>set([])</div></td></tr><tr><td style="font-weight:bold;vertical-align:top;">debugging</td><td style="vertical-align:top;">:</td><td><div>True</div></td></tr><tr><td style="font-weight:bold;vertical-align:top;">gluon_parent</td><td style="vertical-align:top;">:</td><td><div>/home/concordance/web2py</div></td></tr><tr><td style="font-weight:bold;vertical-align:top;">is_jython</td><td style="vertical-align:top;">:</td><td><div>False</div></td></tr><tr><td style="font-weight:bold;vertical-align:top;">is_pypy</td><td style="vertical-align:top;">:</td><td><div>False</div></td></tr><tr><td style="font-weight:bold;vertical-align:top;">is_source</td><td style="vertical-align:top;">:</td><td><div>True</div></td></tr><tr><td style="font-weight:bold;vertical-align:top;">local_hosts</td><td style="vertical-align:top;">:</td><td><div><table><tr><td><div>::ffff:127.0.0.1</div></td></tr><tr><td><div>::1</div></td></tr><tr><td><div>giles-liveweb6</div></td></tr><tr><td><div>50.19.109.98</div></td></tr><tr><td><div>127.0.0.1</div></td></tr><tr><td><div>concordance.pythonanywhere.com</div></td></tr><tr><td><div>localhost</div></td></tr></table></div></td></tr><tr><td style="font-weight:bold;vertical-align:top;">web2py_version</td><td style="vertical-align:top;">:</td><td><div>2.9.5-stable+timestamp.2014.03.16.02.35.39</div></td></tr></table></div></td></tr><tr><td style="font-weight:bold;vertical-align:top;">is_https</td><td style="vertical-align:top;">:</td><td><div>True</div></td></tr><tr><td style="font-weight:bold;vertical-align:top;">is_local</td><td style="vertical-align:top;">:</td><td><div>False</div></td></tr><tr><td style="font-weight:bold;vertical-align:top;">is_restful</td><td style="vertical-align:top;">:</td><td><div>False</div></td></tr><tr><td style="font-weight:bold;vertical-align:top;">now</td><td style="vertical-align:top;">:</td><td><div>datetime.datetime(2017, 1, 18, 14, 22, 38, 9227)</div></td></tr><tr><td style="font-weight:bold;vertical-align:top;">raw_args</td><td style="vertical-align:top;">:</td><td><div></div></td></tr><tr><td style="font-weight:bold;vertical-align:top;">raw_extension</td><td style="vertical-align:top;">:</td><td><div>None</div></td></tr><tr><td style="font-weight:bold;vertical-align:top;">url</td><td style="vertical-align:top;">:</td><td><div>/test/appadmin/index</div></td></tr><tr><td style="font-weight:bold;vertical-align:top;">utcnow</td><td style="vertical-align:top;">:</td><td><div>datetime.datetime(2017, 1, 18, 14, 22, 38, 9247)</div></td></tr><tr><td style="font-weight:bold;vertical-align:top;">uuid</td><td style="vertical-align:top;">:</td><td><div>test/217.118.78.84.2017-01-18.14-22-38.4db29742-139e-4711-a8ae-6b067d84e070</div></td></tr><tr><td style="font-weight:bold;vertical-align:top;">wsgi</td><td style="vertical-align:top;">:</td><td><div>&lt;gluon.main.LazyWSGI object at 0x7f26faad6a90&gt;</div></td></tr></table></div>'
tRp70
sS'frames'
p71
(lp72
(dp73
S'file'
p74
S'/home/concordance/web2py/gluon/restricted.py'
p75
sS'dump'
p76
(dp77
S'environment'
p78
S"{'A': <class 'gluon.html.A'>, 'ANY_OF': <class 'gluon.validators.ANY_OF'>, 'Auth': <class 'gluon.tools.Auth'>, 'B': <class 'gluon.html.B'>, 'BEAUTIFY': <class 'gluon.html.BEAUTIFY'>, 'BODY': <class 'gluon.html.BODY'>, 'BR': <class 'gluon.html.BR'>, 'BUTTON': <class 'gluon.html.BUTTON'>, 'CAT': <class 'gluon.html.CAT'>, 'CENTER': <class 'gluon.html.CENTER'>, ...}"
p79
sS'ccode'
p80
S'<code object <module> at 0x7f26fb866a30, file "/...py/applications/test/models/trymysql.py", line 1>'
p81
ssS'lnum'
p82
I220
sS'lines'
p83
(dp84
I224
S'        # do not encapsulate (obfuscate) the original RestrictedError'
p85
sI215
S'    try:'
p86
sI216
S'        if isinstance(code, types.CodeType):'
p87
sI217
S'            ccode = code'
p88
sI218
S'        else:'
p89
sI219
S'            ccode = compile2(code, layer)'
p90
sI220
S'        exec ccode in environment'
p91
sI221
S'    except HTTP:'
p92
sI222
S'        raise'
p93
sI223
S'    except RestrictedError:'
p94
ssS'call'
p95
S'(code="trymysql = DAL(\'mysql://concordance:sosnora@conc...title)&(trymysql.text1.id==trymysql.words.title)\\n", environment={\'A\': <class \'gluon.html.A\'>, \'ANY_OF\': <class \'gluon.validators.ANY_OF\'>, \'Auth\': <class \'gluon.tools.Auth\'>, \'B\': <class \'gluon.html.B\'>, \'BEAUTIFY\': <class \'gluon.html.BEAUTIFY\'>, \'BODY\': <class \'gluon.html.BODY\'>, \'BR\': <class \'gluon.html.BR\'>, \'BUTTON\': <class \'gluon.html.BUTTON\'>, \'CAT\': <class \'gluon.html.CAT\'>, \'CENTER\': <class \'gluon.html.CENTER\'>, ...}, layer=\'/home/concordance/web2py/applications/test/models/trymysql.py\')'
p96
sS'func'
p97
S'restricted'
p98
sa(dp99
g74
S'/home/concordance/web2py/applications/test/models/trymysql.py'
p100
sg76
(dp101
S'Field'
p102
S"<class 'gluon.dal.Field'>"
p103
ssg82
I177
sg83
(dp104
I171
S"trymysql.define_table('biblio',"
p105
sI172
S"                      Field('title', '\xd0\x9d\xd0\xb0\xd0\xb7\xd0\xb2\xd0\xb0\xd0\xbd\xd0\xb8\xd0\xb5'),"
p106
sI173
S"                      Field('author', '\xd0\x90\xd0\xb2\xd1\x82\xd0\xbe\xd1\x80'),"
p107
sI174
S"                      Field('city', '\xd0\x93\xd0\xbe\xd1\x80\xd0\xbe\xd0\xb4'),"
p108
sI175
S"                      Field('editor', '\xd0\x98\xd0\xb7\xd0\xb4\xd0\xb0\xd1\x82\xd0\xb5\xd0\xbb\xd1\x8c\xd1\x81\xd1\x82\xd0\xb2\xd0\xbe'),"
p109
sI176
S"                      Field('year', '\xd0\x93\xd0\xbe\xd0\xb4'),"
p110
sI177
S"                      Field('part', '\xd0\xa2\xd0\xbe\xd0\xbc'))"
p111
sI178
S''
sI179
S'#purchased = (trymysql.author.name==trymysql.text1.author)&(trymysql.author.id==trymysql.words.author)'
p112
sI180
S'#n2ew = (trymysql.text1.title==trymysql.words.title)&(trymysql.text1.id==trymysql.words.title)'
p113
ssg95
S'()'
p114
sg97
S'<module>'
p115
sa(dp116
g74
S'/home/concordance/web2py/gluon/dal.py'
p117
sg76
(dp118
S'fields'
p119
S'(<gluon.dal.Field object>, <gluon.dal.Field object>, <gluon.dal.Field object>, <gluon.dal.Field object>, <gluon.dal.Field object>, <gluon.dal.Field object>)'
p120
sS'self'
p121
S'<DAL uri="mysql:******@concordance.mysql.pythonanywhere-services.com/concordance$new">'
p122
sS'args'
p123
g21
sS'tablename'
p124
S"'biblio'"
p125
sS'table'
p126
S'undefined'
p127
sS'self.lazy_define_table'
p128
S'<bound method DAL.lazy_define_table of <DAL uri=...ql.pythonanywhere-services.com/concordance$new">>'
p129
ssg82
I8223
sg83
(dp130
I8224
S'        if not tablename in self.tables:'
p131
sI8225
S'            self.tables.append(tablename)'
p132
sI8226
S'        return table'
p133
sI8227
S''
sI8218
S'                    % (tablename,invalid_args))'
p134
sI8219
S'        if self._lazy_tables and not tablename in self._LAZY_TABLES:'
p135
sI8220
S'            self._LAZY_TABLES[tablename] = (tablename,fields,args)'
p136
sI8221
S'            table = None'
p137
sI8222
S'        else:'
p138
sI8223
S'            table = self.lazy_define_table(tablename,*fields,**args)'
p139
ssg95
S'(self=<DAL uri="mysql:******@concordance.mysql.pythonanywhere-services.com/concordance$new">, tablename=\'biblio\', *fields=(<gluon.dal.Field object>, <gluon.dal.Field object>, <gluon.dal.Field object>, <gluon.dal.Field object>, <gluon.dal.Field object>, <gluon.dal.Field object>), **args={})'
p140
sg97
S'define_table'
p141
sa(dp142
g74
S'/home/concordance/web2py/gluon/dal.py'
p143
sg76
(dp144
S'polymodel'
p145
S'None'
p146
ssg82
I8260
sg83
(dp147
I8256
S'                GLOBAL_LOCKER.acquire()'
p148
sI8257
S'                self._lastsql = self._adapter.create_table('
p149
sI8258
S'                    table,migrate=migrate,'
p150
sI8259
S'                    fake_migrate=fake_migrate,'
p151
sI8260
S'                    polymodel=polymodel)'
p152
sI8261
S'            finally:'
p153
sI8262
S'                GLOBAL_LOCKER.release()'
p154
sI8263
S'        else:'
p155
sI8264
S'            table._dbt = None'
p156
sI8255
S'            try:'
p157
ssg95
S'(self=<DAL uri="mysql:******@concordance.mysql.pythonanywhere-services.com/concordance$new">, tablename=\'biblio\', *fields=(<gluon.dal.Field object>, <gluon.dal.Field object>, <gluon.dal.Field object>, <gluon.dal.Field object>, <gluon.dal.Field object>, <gluon.dal.Field object>), **args={})'
p158
sg97
S'lazy_define_table'
p159
sa(dp160
g74
S'/home/concordance/web2py/gluon/dal.py'
p161
sg76
(dp162
S'field_type'
p163
S"'\\xd0\\x9d\\xd0\\xb0\\xd0\\xb7\\xd0\\xb2\\xd0\\xb0\\xd0\\xbd\\xd0\\xb8\\xd0\\xb5'"
p164
sS'field_name'
p165
S"'title'"
p166
ssg82
I1007
sg83
(dp167
I1002
S'                                         fieldname=field_name, srid=srid,'
p168
sI1003
S'                                         dimension=dimension)'
p169
sI1004
S'                    postcreation_fields.append(ftype)'
p170
sI1005
S'            elif not field_type in types:'
p171
sI1006
S"                raise SyntaxError('Field: unknown field type: %s for %s' % \\"
p172
sI1007
S'                    (field_type, field_name))'
p173
sI1008
S'            else:'
p174
sI1009
S'                ftype = types[field_type]\\'
p175
sI1010
S'                     % dict(length=field.length)'
p176
sI1011
S"            if not field_type.startswith('id') and \\"
p177
ssg95
S'(self=<gluon.dal.MySQLAdapter object>, table=<Table biblio (id,title,author,city,editor,year,part)>, migrate=True, fake_migrate=False, polymodel=None)'
p178
sg97
S'create_table'
p179
sasS'pyver'
p180
S'Python 2.7.6: /usr/local/bin/uwsgi (prefix: /usr)'
p181
sS'session'
p182
g69
(S's\xc1\x01\x00\x00<div><table><tr><td style="font-weight:bold;vertical-align:top;">flash</td><td style="vertical-align:top;">:</td><td><div>None</div></td></tr><tr><td style="font-weight:bold;vertical-align:top;">last_orderby</td><td style="vertical-align:top;">:</td><td><div>None</div></td></tr><tr><td style="font-weight:bold;vertical-align:top;">last_query</td><td style="vertical-align:top;">:</td><td><div>trymysql.variants.id&gt;0</div></td></tr></table></div>'
tRp183
sS'etype'
p184
S"<type 'exceptions.SyntaxError'>"
p185
sS'date'
p186
S'Wed Jan 18 14:22:38 2017'
p187
sS'response'
p188
g69
(S's\x86\x1e\x00\x00<div><table><tr><td style="font-weight:bold;vertical-align:top;">body</td><td style="vertical-align:top;">:</td><td><div>&lt;cStringIO.StringO object at 0x7f26f98fafb8&gt;</div></td></tr><tr><td style="font-weight:bold;vertical-align:top;">cookies</td><td style="vertical-align:top;">:</td><td><div><table><tr><td style="font-weight:bold;vertical-align:top;">session_id_test</td><td style="vertical-align:top;">:</td><td><div>217.118.78.84-af7ac002-84a3-4ec7-b952-0cf6d8838678<table><tr><td style="font-weight:bold;vertical-align:top;">comment</td><td style="vertical-align:top;">:</td><td><div></div></td></tr><tr><td style="font-weight:bold;vertical-align:top;">domain</td><td style="vertical-align:top;">:</td><td><div></div></td></tr><tr><td style="font-weight:bold;vertical-align:top;">expires</td><td style="vertical-align:top;">:</td><td><div></div></td></tr><tr><td style="font-weight:bold;vertical-align:top;">httponly</td><td style="vertical-align:top;">:</td><td><div></div></td></tr><tr><td style="font-weight:bold;vertical-align:top;">max-age</td><td style="vertical-align:top;">:</td><td><div></div></td></tr><tr><td style="font-weight:bold;vertical-align:top;">path</td><td style="vertical-align:top;">:</td><td><div>/</div></td></tr><tr><td style="font-weight:bold;vertical-align:top;">secure</td><td style="vertical-align:top;">:</td><td><div></div></td></tr><tr><td style="font-weight:bold;vertical-align:top;">version</td><td style="vertical-align:top;">:</td><td><div></div></td></tr></table></div></td></tr></table></div></td></tr><tr><td style="font-weight:bold;vertical-align:top;">delimiters</td><td style="vertical-align:top;">:</td><td><div><table><tr><td><div>{{</div></td></tr><tr><td><div>}}</div></td></tr></table></div></td></tr><tr><td style="font-weight:bold;vertical-align:top;">files</td><td style="vertical-align:top;">:</td><td><div><table></table></div></td></tr><tr><td style="font-weight:bold;vertical-align:top;">flash</td><td style="vertical-align:top;">:</td><td><div></div></td></tr><tr><td style="font-weight:bold;vertical-align:top;">generic_patterns</td><td style="vertical-align:top;">:</td><td><div><table></table></div></td></tr><tr><td style="font-weight:bold;vertical-align:top;">google_analytics_id</td><td style="vertical-align:top;">:</td><td><div>UA-52567545-1</div></td></tr><tr><td style="font-weight:bold;vertical-align:top;">headers</td><td style="vertical-align:top;">:</td><td><div><table><tr><td style="font-weight:bold;vertical-align:top;">X-Powered-By</td><td style="vertical-align:top;">:</td><td><div>web2py</div></td></tr></table></div></td></tr><tr><td style="font-weight:bold;vertical-align:top;">logo</td><td style="vertical-align:top;">:</td><td><div><a class="brand" href="http://concordances.ru"><b>concor<span>dances</span></b>.ru</a></div></td></tr><tr><td style="font-weight:bold;vertical-align:top;">menu</td><td style="vertical-align:top;">:</td><td><div><table><tr><td><div><table><tr><td><div>Home</div></td></tr><tr><td><div>False</div></td></tr><tr><td><div>/test/default/index</div></td></tr><tr><td><div><table></table></div></td></tr></table></div></td></tr><tr><td><div><table><tr><td><div><span class="highlighted">web2py</span></div></td></tr><tr><td><div>False</div></td></tr><tr><td><div>http://concordances.ru</div></td></tr><tr><td><div><table><tr><td><div><table><tr><td><div>\xd0\x9e \xd0\xbf\xd1\x80\xd0\xbe\xd0\xb5\xd0\xba\xd1\x82\xd0\xb5</div></td></tr><tr><td><div>False</div></td></tr><tr><td><div>/admin/default/about/test</div></td></tr></table></div></td></tr><tr><td><div><table><tr><td><div>\xd0\x90\xd0\xb4\xd0\xbc\xd0\xb8\xd0\xbd\xd0\xba\xd0\xb0</div></td></tr><tr><td><div>False</div></td></tr><tr><td><div>/admin/default/edit/test/controllers/appadmin.py</div></td></tr></table></div></td></tr></table></div></td></tr></table></div></td></tr></table></div></td></tr><tr><td style="font-weight:bold;vertical-align:top;">meta</td><td style="vertical-align:top;">:</td><td><div><table><tr><td style="font-weight:bold;vertical-align:top;">author</td><td style="vertical-align:top;">:</td><td><div>Maria Levchenko &lt;marylevchenko@gmail.com&gt;</div></td></tr><tr><td style="font-weight:bold;vertical-align:top;">generator</td><td style="vertical-align:top;">:</td><td><div>\xd0\xa7\xd0\xb0\xd1\x81\xd1\x82\xd0\xbe\xd1\x82\xd0\xbd\xd1\x8b\xd0\xb9 \xd1\x81\xd0\xbb\xd0\xbe\xd0\xb2\xd0\xb0\xd1\x80\xd1\x8c \xd1\x80\xd1\x83\xd1\x81\xd1\x81\xd0\xba\xd0\xbe\xd0\xb9 \xd0\xbb\xd0\xb8\xd1\x82\xd0\xb5\xd1\x80\xd0\xb0\xd1\x82\xd1\x83\xd1\x80\xd1\x8b</div></td></tr><tr><td style="font-weight:bold;vertical-align:top;">keywords</td><td style="vertical-align:top;">:</td><td><div>concordance, natural language processing, critics</div></td></tr></table></div></td></tr><tr><td style="font-weight:bold;vertical-align:top;">models_to_run</td><td style="vertical-align:top;">:</td><td><div><table><tr><td><div>^\\w+\\.py$</div></td></tr><tr><td><div>^appadmin/\\w+\\.py$</div></td></tr><tr><td><div>^appadmin/index/\\w+\\.py$</div></td></tr></table></div></td></tr><tr><td style="font-weight:bold;vertical-align:top;">postprocessing</td><td style="vertical-align:top;">:</td><td><div><table></table></div></td></tr><tr><td style="font-weight:bold;vertical-align:top;">session_client</td><td style="vertical-align:top;">:</td><td><div>217.118.78.84</div></td></tr><tr><td style="font-weight:bold;vertical-align:top;">session_cookie_compression_level</td><td style="vertical-align:top;">:</td><td><div>None</div></td></tr><tr><td style="font-weight:bold;vertical-align:top;">session_cookie_expires</td><td style="vertical-align:top;">:</td><td><div>None</div></td></tr><tr><td style="font-weight:bold;vertical-align:top;">session_cookie_key</td><td style="vertical-align:top;">:</td><td><div>None</div></td></tr><tr><td style="font-weight:bold;vertical-align:top;">session_data_name</td><td style="vertical-align:top;">:</td><td><div>session_data_test</div></td></tr><tr><td style="font-weight:bold;vertical-align:top;">session_file</td><td style="vertical-align:top;">:</td><td><div>&lt;open file &#x27;/home/concordance/web2py/applications/test/sessions/217.118.78.84-af7ac002-84a3-4ec7-b952-0cf6d8838678&#x27;, mode &#x27;rb+&#x27; at 0x7f26fa7c7f60&gt;</div></td></tr><tr><td style="font-weight:bold;vertical-align:top;">session_filename</td><td style="vertical-align:top;">:</td><td><div>/home/concordance/web2py/applications/test/sessions/217.118.78.84-af7ac002-84a3-4ec7-b952-0cf6d8838678</div></td></tr><tr><td style="font-weight:bold;vertical-align:top;">session_hash</td><td style="vertical-align:top;">:</td><td><div>1b09c79d7baa8bfc3958c44688262179</div></td></tr><tr><td style="font-weight:bold;vertical-align:top;">session_id</td><td style="vertical-align:top;">:</td><td><div>217.118.78.84-af7ac002-84a3-4ec7-b952-0cf6d8838678</div></td></tr><tr><td style="font-weight:bold;vertical-align:top;">session_id_name</td><td style="vertical-align:top;">:</td><td><div>session_id_test</div></td></tr><tr><td style="font-weight:bold;vertical-align:top;">session_locked</td><td style="vertical-align:top;">:</td><td><div>True</div></td></tr><tr><td style="font-weight:bold;vertical-align:top;">session_masterapp</td><td style="vertical-align:top;">:</td><td><div>test</div></td></tr><tr><td style="font-weight:bold;vertical-align:top;">session_new</td><td style="vertical-align:top;">:</td><td><div>False</div></td></tr><tr><td style="font-weight:bold;vertical-align:top;">session_storage_type</td><td style="vertical-align:top;">:</td><td><div>file</div></td></tr><tr><td style="font-weight:bold;vertical-align:top;">status</td><td style="vertical-align:top;">:</td><td><div>200</div></td></tr><tr><td style="font-weight:bold;vertical-align:top;">subtitle</td><td style="vertical-align:top;">:</td><td><div></div></td></tr><tr><td style="font-weight:bold;vertical-align:top;">title</td><td style="vertical-align:top;">:</td><td><div>Test</div></td></tr><tr><td style="font-weight:bold;vertical-align:top;">view</td><td style="vertical-align:top;">:</td><td><div>appadmin/index.html</div></td></tr></table></div>'
tRp189
sS'locals'
p190
(dp191
S'polymodel'
p192
S'None'
p193
sS'field_type'
p194
S"'\\xd0\\x9d\\xd0\\xb0\\xd0\\xb7\\xd0\\xb2\\xd0\\xb0\\xd0\\xbd\\xd0\\xb8\\xd0\\xb5'"
p195
sS'sortable'
p196
S'2'
sS'sql_fields_aux'
p197
S"{'id': {'sql': 'INT AUTO_INCREMENT NOT NULL'}}"
p198
sS'TFK'
p199
g21
sS'postcreation_fields'
p200
S'[]'
p201
sS'migrate'
p202
S'True'
p203
sS'fields'
p204
S"['id INT AUTO_INCREMENT NOT NULL']"
p205
sS'self'
p206
S'<gluon.dal.MySQLAdapter object>'
p207
sS'tablename'
p208
S"'biblio'"
p209
sS'fake_migrate'
p210
S'False'
p211
sS'db'
p212
S'<DAL uri="mysql:******@concordance.mysql.pythonanywhere-services.com/concordance$new">'
p213
sS'field'
p214
S'<gluon.dal.Field object>'
p215
sS'ftype'
p216
S"'INT AUTO_INCREMENT NOT NULL'"
p217
sS'table'
p218
S'<Table biblio (id,title,author,city,editor,year,part)>'
p219
sS'sql_fields'
p220
S"{'id': {'length': 512, 'notnull': False, 'sortable': 1, 'sql': 'INT AUTO_INCREMENT NOT NULL', 'type': 'id', 'unique': False}}"
p221
sS'field_name'
p222
S"'title'"
p223
sS'types'
p224
S"{'big-id': 'BIGINT AUTO_INCREMENT NOT NULL', 'big-reference': 'BIGINT, INDEX %(index_name)s (%(field_name)s), F...ES %(foreign_key)s ON DELETE %(on_delete_action)s', 'bigint': 'BIGINT', 'blob': 'LONGBLOB', 'boolean': 'CHAR(1)', 'date': 'DATE', 'datetime': 'DATETIME', 'decimal': 'NUMERIC(%(precision)s,%(scale)s)', 'double': 'DOUBLE', 'float': 'FLOAT', ...}"
p225
sssS'traceback'
p226
S'Traceback (most recent call last):\n  File "/home/concordance/web2py/gluon/restricted.py", line 220, in restricted\n    exec ccode in environment\n  File "/home/concordance/web2py/applications/test/models/trymysql.py", line 177, in <module>\n    Field(\'part\', \'\xd0\xa2\xd0\xbe\xd0\xbc\'))\n  File "/home/concordance/web2py/gluon/dal.py", line 8223, in define_table\n    table = self.lazy_define_table(tablename,*fields,**args)\n  File "/home/concordance/web2py/gluon/dal.py", line 8260, in lazy_define_table\n    polymodel=polymodel)\n  File "/home/concordance/web2py/gluon/dal.py", line 1007, in create_table\n    (field_type, field_name))\nSyntaxError: Field: unknown field type: \xd0\x9d\xd0\xb0\xd0\xb7\xd0\xb2\xd0\xb0\xd0\xbd\xd0\xb8\xd0\xb5 for title\n'
p227
s.