(dp1
S'output'
p2
S"<type 'exceptions.UnicodeDecodeError'> 'ascii' codec can't decode byte 0xd0 in position 0: ordinal not in range(128)"
p3
sS'layer'
p4
S'/home/concordance/web2py/applications/test/controllers/stress.py'
p5
sS'code'
p6
S'# coding: utf8\n# \xd0\xbf\xd0\xbe\xd0\xbf\xd1\x80\xd0\xbe\xd0\xb1\xd0\xbe\xd0\xb2\xd0\xb0\xd1\x82\xd1\x8c \xd1\x87\xd1\x82\xd0\xbe-\xd0\xbb\xd0\xb8\xd0\xb1\xd0\xbe \xd0\xb2\xd0\xb8\xd0\xb4\xd0\xb0\n\ndef index():\n    filename = \'/home/concordance/web2py/applications/test/rhymes/test.txt\'\n    text = open(filename, \'rb\')\n    text = text.readlines()\n    newlines = []\n    words = []\n    for all in text:\n        c = all.split(\'#\')\n        newlines.append(c)\n        words.append(c[0].encode(\'utf-8\'))\n    newlines2 = [all[1].split(\',\') for all in newlines]\n    newlines_antistress = []\n    newlines_stress = []\n    for all in newlines2:\n        newlines3 = [n.replace("\'", \'\') for n in all]\n        newlines_antistress.append(newlines3)\n        newlines_stress.append(all)\n    couples = []\n    paradigma = {}\n    for a in range(0, len(newlines_antistress)-1):\n        c = [newlines_antistress[a], newlines_stress[a]]\n        for all in range(0, len(newlines_antistress)-1):\n            not_stressed_word = newlines_antistress[a][all]\n            stressed_word = newlines_stress[a][all]\n            c = [not_stressed_word.encode(\'utf-8\'), stressed_word]\n            couples.append(c)\n            paradigma[words[a]][not_stressed_word] = [stressed_word]\n    return dict(couples=couples, words=words, paradigma = paradigma)\n\nresponse._vars=response._caller(index)\n'
p7
sS'snapshot'
p8
(dp9
S'exception'
p10
(dp11
S'__getslice__'
p12
S"<method-wrapper '__getslice__' of exceptions.UnicodeDecodeError object>"
p13
sS'encoding'
p14
S"'ascii'"
p15
sS'__str__'
p16
S"<method-wrapper '__str__' of exceptions.UnicodeDecodeError object>"
p17
sS'__reduce__'
p18
S'<built-in method __reduce__ of exceptions.UnicodeDecodeError object>'
p19
sS'__dict__'
p20
S'{}'
p21
sS'__sizeof__'
p22
S'<built-in method __sizeof__ of exceptions.UnicodeDecodeError object>'
p23
sS'__init__'
p24
S"<method-wrapper '__init__' of exceptions.UnicodeDecodeError object>"
p25
sS'__setattr__'
p26
S"<method-wrapper '__setattr__' of exceptions.UnicodeDecodeError object>"
p27
sS'__reduce_ex__'
p28
S'<built-in method __reduce_ex__ of exceptions.UnicodeDecodeError object>'
p29
sS'end'
p30
S'1'
sS'__new__'
p31
S'<built-in method __new__ of type object>'
p32
sS'__format__'
p33
S'<built-in method __format__ of exceptions.UnicodeDecodeError object>'
p34
sS'__class__'
p35
S"<type 'exceptions.UnicodeDecodeError'>"
p36
sS'start'
p37
S'0'
sS'__doc__'
p38
S"'Unicode decoding error.'"
p39
sS'object'
p40
S"'\\xd0\\xb0\\xd1\\x83\\xd0\\xb4\\xd0\\xb8\\xd1\\x82\\xd0\\xbe\\xd1\\x80\\xd0\\xb8\\xd1\\x8f'"
p41
sS'__getitem__'
p42
S"<method-wrapper '__getitem__' of exceptions.UnicodeDecodeError object>"
p43
sS'__setstate__'
p44
S'<built-in method __setstate__ of exceptions.UnicodeDecodeError object>'
p45
sS'__getattribute__'
p46
S"<method-wrapper '__getattribute__' of exceptions.UnicodeDecodeError object>"
p47
sS'args'
p48
S"('ascii', '\\xd0\\xb0\\xd1\\x83\\xd0\\xb4\\xd0\\xb8\\xd1\\x82\\xd0\\xbe\\xd1\\x80\\xd0\\xb8\\xd1\\x8f', 0, 1, 'ordinal not in range(128)')"
p49
sS'reason'
p50
S"'ordinal not in range(128)'"
p51
sS'__subclasshook__'
p52
S'<built-in method __subclasshook__ of type object>'
p53
sS'__unicode__'
p54
S'<built-in method __unicode__ of exceptions.UnicodeDecodeError object>'
p55
sS'__delattr__'
p56
S"<method-wrapper '__delattr__' of exceptions.UnicodeDecodeError object>"
p57
sS'__repr__'
p58
S"<method-wrapper '__repr__' of exceptions.UnicodeDecodeError object>"
p59
sS'__hash__'
p60
S"<method-wrapper '__hash__' of exceptions.UnicodeDecodeError object>"
p61
ssS'evalue'
p62
S"'ascii' codec can't decode byte 0xd0 in position 0: ordinal not in range(128)"
p63
sS'request'
p64
cgluon.html
XML_unpickle
p65
(S's\x8fS\x00\x00<div><table><tr><td style="font-weight:bold;vertical-align:top;">ajax</td><td style="vertical-align:top;">:</td><td><div>False</div></td></tr><tr><td style="font-weight:bold;vertical-align:top;">application</td><td style="vertical-align:top;">:</td><td><div>test</div></td></tr><tr><td style="font-weight:bold;vertical-align:top;">args</td><td style="vertical-align:top;">:</td><td><div><table></table></div></td></tr><tr><td style="font-weight:bold;vertical-align:top;">cid</td><td style="vertical-align:top;">:</td><td><div>None</div></td></tr><tr><td style="font-weight:bold;vertical-align:top;">client</td><td style="vertical-align:top;">:</td><td><div>217.118.78.39</div></td></tr><tr><td style="font-weight:bold;vertical-align:top;">controller</td><td style="vertical-align:top;">:</td><td><div>stress</div></td></tr><tr><td style="font-weight:bold;vertical-align:top;">cookies</td><td style="vertical-align:top;">:</td><td><div><table><tr><td style="font-weight:bold;vertical-align:top;">session_id_admin</td><td style="vertical-align:top;">:</td><td><div>46.101.16.229-66ba3a19-410e-462f-b6b9-57f04f1b0572<table><tr><td style="font-weight:bold;vertical-align:top;">comment</td><td style="vertical-align:top;">:</td><td><div></div></td></tr><tr><td style="font-weight:bold;vertical-align:top;">domain</td><td style="vertical-align:top;">:</td><td><div></div></td></tr><tr><td style="font-weight:bold;vertical-align:top;">expires</td><td style="vertical-align:top;">:</td><td><div></div></td></tr><tr><td style="font-weight:bold;vertical-align:top;">httponly</td><td style="vertical-align:top;">:</td><td><div></div></td></tr><tr><td style="font-weight:bold;vertical-align:top;">max-age</td><td style="vertical-align:top;">:</td><td><div></div></td></tr><tr><td style="font-weight:bold;vertical-align:top;">path</td><td style="vertical-align:top;">:</td><td><div></div></td></tr><tr><td style="font-weight:bold;vertical-align:top;">secure</td><td style="vertical-align:top;">:</td><td><div></div></td></tr><tr><td style="font-weight:bold;vertical-align:top;">version</td><td style="vertical-align:top;">:</td><td><div></div></td></tr></table></div></td></tr><tr><td style="font-weight:bold;vertical-align:top;">session_id_test</td><td style="vertical-align:top;">:</td><td><div>46.101.16.229-06e011a5-7dfa-444f-aa81-2f76a54cf436<table><tr><td style="font-weight:bold;vertical-align:top;">comment</td><td style="vertical-align:top;">:</td><td><div></div></td></tr><tr><td style="font-weight:bold;vertical-align:top;">domain</td><td style="vertical-align:top;">:</td><td><div></div></td></tr><tr><td style="font-weight:bold;vertical-align:top;">expires</td><td style="vertical-align:top;">:</td><td><div></div></td></tr><tr><td style="font-weight:bold;vertical-align:top;">httponly</td><td style="vertical-align:top;">:</td><td><div></div></td></tr><tr><td style="font-weight:bold;vertical-align:top;">max-age</td><td style="vertical-align:top;">:</td><td><div></div></td></tr><tr><td style="font-weight:bold;vertical-align:top;">path</td><td style="vertical-align:top;">:</td><td><div></div></td></tr><tr><td style="font-weight:bold;vertical-align:top;">secure</td><td style="vertical-align:top;">:</td><td><div></div></td></tr><tr><td style="font-weight:bold;vertical-align:top;">version</td><td style="vertical-align:top;">:</td><td><div></div></td></tr></table></div></td></tr></table></div></td></tr><tr><td style="font-weight:bold;vertical-align:top;">env</td><td style="vertical-align:top;">:</td><td><div><table><tr><td style="font-weight:bold;vertical-align:top;">CONTENT_LENGTH</td><td style="vertical-align:top;">:</td><td><div></div></td></tr><tr><td style="font-weight:bold;vertical-align:top;">CONTENT_TYPE</td><td style="vertical-align:top;">:</td><td><div></div></td></tr><tr><td style="font-weight:bold;vertical-align:top;">DOCUMENT_ROOT</td><td style="vertical-align:top;">:</td><td><div>/usr/local/openresty/nginx/html</div></td></tr><tr><td style="font-weight:bold;vertical-align:top;">HTTPS</td><td style="vertical-align:top;">:</td><td><div>on</div></td></tr><tr><td style="font-weight:bold;vertical-align:top;">HTTP_ACCEPT</td><td style="vertical-align:top;">:</td><td><div>text/html,application/xhtml+xml,application/xml;q=0.9,image/webp,*/*;q=0.8</div></td></tr><tr><td style="font-weight:bold;vertical-align:top;">HTTP_ACCEPT_ENCODING</td><td style="vertical-align:top;">:</td><td><div>gzip, deflate, sdch, br</div></td></tr><tr><td style="font-weight:bold;vertical-align:top;">HTTP_ACCEPT_LANGUAGE</td><td style="vertical-align:top;">:</td><td><div>ru,en;q=0.8,en-US;q=0.6</div></td></tr><tr><td style="font-weight:bold;vertical-align:top;">HTTP_CACHE_CONTROL</td><td style="vertical-align:top;">:</td><td><div>max-age=0</div></td></tr><tr><td style="font-weight:bold;vertical-align:top;">HTTP_CONNECTION</td><td style="vertical-align:top;">:</td><td><div>close</div></td></tr><tr><td style="font-weight:bold;vertical-align:top;">HTTP_COOKIE</td><td style="vertical-align:top;">:</td><td><div>_ga=GA1.2.2009921225.1482865438; session_id_test=46.101.16.229-06e011a5-7dfa-444f-aa81-2f76a54cf436; __utma=134993891.2009921225.1482865438.1484355529.1484381545.2; __utmb=134993891.17.10.1484381545; __utmc=134993891; __utmz=134993891.1484355529.1.1.utmcsr=(direct)|utmccn=(direct)|utmcmd=(none); session_id_admin=46.101.16.229-66ba3a19-410e-462f-b6b9-57f04f1b0572</div></td></tr><tr><td style="font-weight:bold;vertical-align:top;">HTTP_HOST</td><td style="vertical-align:top;">:</td><td><div>concordance.pythonanywhere.com</div></td></tr><tr><td style="font-weight:bold;vertical-align:top;">HTTP_UPGRADE_INSECURE_REQUESTS</td><td style="vertical-align:top;">:</td><td><div>1</div></td></tr><tr><td style="font-weight:bold;vertical-align:top;">HTTP_USER_AGENT</td><td style="vertical-align:top;">:</td><td><div>Mozilla/5.0 (Windows NT 10.0; WOW64) AppleWebKit/537.36 (KHTML, like Gecko) Chrome/55.0.2883.87 Safari/537.36</div></td></tr><tr><td style="font-weight:bold;vertical-align:top;">HTTP_X_FORWARDED_FOR</td><td style="vertical-align:top;">:</td><td><div>217.118.78.39</div></td></tr><tr><td style="font-weight:bold;vertical-align:top;">HTTP_X_REAL_IP</td><td style="vertical-align:top;">:</td><td><div>217.118.78.39</div></td></tr><tr><td style="font-weight:bold;vertical-align:top;">PATH_INFO</td><td style="vertical-align:top;">:</td><td><div>/test/stress</div></td></tr><tr><td style="font-weight:bold;vertical-align:top;">QUERY_STRING</td><td style="vertical-align:top;">:</td><td><div></div></td></tr><tr><td style="font-weight:bold;vertical-align:top;">REMOTE_ADDR</td><td style="vertical-align:top;">:</td><td><div>10.0.0.236</div></td></tr><tr><td style="font-weight:bold;vertical-align:top;">REMOTE_PORT</td><td style="vertical-align:top;">:</td><td><div>38265</div></td></tr><tr><td style="font-weight:bold;vertical-align:top;">REQUEST_METHOD</td><td style="vertical-align:top;">:</td><td><div>GET</div></td></tr><tr><td style="font-weight:bold;vertical-align:top;">REQUEST_URI</td><td style="vertical-align:top;">:</td><td><div>/test/stress</div></td></tr><tr><td style="font-weight:bold;vertical-align:top;">SCRIPT_NAME</td><td style="vertical-align:top;">:</td><td><div></div></td></tr><tr><td style="font-weight:bold;vertical-align:top;">SERVER_NAME</td><td style="vertical-align:top;">:</td><td><div>concordance.pythonanywhere.com</div></td></tr><tr><td style="font-weight:bold;vertical-align:top;">SERVER_PORT</td><td style="vertical-align:top;">:</td><td><div>443</div></td></tr><tr><td style="font-weight:bold;vertical-align:top;">SERVER_PROTOCOL</td><td style="vertical-align:top;">:</td><td><div>HTTP/1.1</div></td></tr><tr><td style="font-weight:bold;vertical-align:top;">app_folders</td><td style="vertical-align:top;">:</td><td><div>set([&#x27;/home/concordance/web2py/applications/examples/&#x27;, &#x27;/home/concordance/web2py/applications/admin/&#x27;, &#x27;/home/concordance/web2py/applications/test/&#x27;])</div></td></tr><tr><td style="font-weight:bold;vertical-align:top;">applications_parent</td><td style="vertical-align:top;">:</td><td><div>/home/concordance/web2py</div></td></tr><tr><td style="font-weight:bold;vertical-align:top;">content_length</td><td style="vertical-align:top;">:</td><td><div></div></td></tr><tr><td style="font-weight:bold;vertical-align:top;">content_type</td><td style="vertical-align:top;">:</td><td><div></div></td></tr><tr><td style="font-weight:bold;vertical-align:top;">db_sessions</td><td style="vertical-align:top;">:</td><td><div>set([])</div></td></tr><tr><td style="font-weight:bold;vertical-align:top;">debugging</td><td style="vertical-align:top;">:</td><td><div>True</div></td></tr><tr><td style="font-weight:bold;vertical-align:top;">document_root</td><td style="vertical-align:top;">:</td><td><div>/usr/local/openresty/nginx/html</div></td></tr><tr><td style="font-weight:bold;vertical-align:top;">gluon_parent</td><td style="vertical-align:top;">:</td><td><div>/home/concordance/web2py</div></td></tr><tr><td style="font-weight:bold;vertical-align:top;">http_accept</td><td style="vertical-align:top;">:</td><td><div>text/html,application/xhtml+xml,application/xml;q=0.9,image/webp,*/*;q=0.8</div></td></tr><tr><td style="font-weight:bold;vertical-align:top;">http_accept_encoding</td><td style="vertical-align:top;">:</td><td><div>gzip, deflate, sdch, br</div></td></tr><tr><td style="font-weight:bold;vertical-align:top;">http_accept_language</td><td style="vertical-align:top;">:</td><td><div>ru,en;q=0.8,en-US;q=0.6</div></td></tr><tr><td style="font-weight:bold;vertical-align:top;">http_cache_control</td><td style="vertical-align:top;">:</td><td><div>max-age=0</div></td></tr><tr><td style="font-weight:bold;vertical-align:top;">http_connection</td><td style="vertical-align:top;">:</td><td><div>close</div></td></tr><tr><td style="font-weight:bold;vertical-align:top;">http_cookie</td><td style="vertical-align:top;">:</td><td><div>_ga=GA1.2.2009921225.1482865438; session_id_test=46.101.16.229-06e011a5-7dfa-444f-aa81-2f76a54cf436; __utma=134993891.2009921225.1482865438.1484355529.1484381545.2; __utmb=134993891.17.10.1484381545; __utmc=134993891; __utmz=134993891.1484355529.1.1.utmcsr=(direct)|utmccn=(direct)|utmcmd=(none); session_id_admin=46.101.16.229-66ba3a19-410e-462f-b6b9-57f04f1b0572</div></td></tr><tr><td style="font-weight:bold;vertical-align:top;">http_host</td><td style="vertical-align:top;">:</td><td><div>concordance.pythonanywhere.com</div></td></tr><tr><td style="font-weight:bold;vertical-align:top;">http_upgrade_insecure_requests</td><td style="vertical-align:top;">:</td><td><div>1</div></td></tr><tr><td style="font-weight:bold;vertical-align:top;">http_user_agent</td><td style="vertical-align:top;">:</td><td><div>Mozilla/5.0 (Windows NT 10.0; WOW64) AppleWebKit/537.36 (KHTML, like Gecko) Chrome/55.0.2883.87 Safari/537.36</div></td></tr><tr><td style="font-weight:bold;vertical-align:top;">http_x_forwarded_for</td><td style="vertical-align:top;">:</td><td><div>217.118.78.39</div></td></tr><tr><td style="font-weight:bold;vertical-align:top;">http_x_real_ip</td><td style="vertical-align:top;">:</td><td><div>217.118.78.39</div></td></tr><tr><td style="font-weight:bold;vertical-align:top;">https</td><td style="vertical-align:top;">:</td><td><div>on</div></td></tr><tr><td style="font-weight:bold;vertical-align:top;">is_jython</td><td style="vertical-align:top;">:</td><td><div>False</div></td></tr><tr><td style="font-weight:bold;vertical-align:top;">is_pypy</td><td style="vertical-align:top;">:</td><td><div>False</div></td></tr><tr><td style="font-weight:bold;vertical-align:top;">is_source</td><td style="vertical-align:top;">:</td><td><div>True</div></td></tr><tr><td style="font-weight:bold;vertical-align:top;">local_hosts</td><td style="vertical-align:top;">:</td><td><div><table><tr><td><div>::ffff:127.0.0.1</div></td></tr><tr><td><div>::1</div></td></tr><tr><td><div>giles-liveweb6</div></td></tr><tr><td><div>50.19.109.98</div></td></tr><tr><td><div>127.0.0.1</div></td></tr><tr><td><div>concordance.pythonanywhere.com</div></td></tr><tr><td><div>localhost</div></td></tr></table></div></td></tr><tr><td style="font-weight:bold;vertical-align:top;">path_info</td><td style="vertical-align:top;">:</td><td><div>/test/stress</div></td></tr><tr><td style="font-weight:bold;vertical-align:top;">query_string</td><td style="vertical-align:top;">:</td><td><div></div></td></tr><tr><td style="font-weight:bold;vertical-align:top;">remote_addr</td><td style="vertical-align:top;">:</td><td><div>10.0.0.236</div></td></tr><tr><td style="font-weight:bold;vertical-align:top;">remote_port</td><td style="vertical-align:top;">:</td><td><div>38265</div></td></tr><tr><td style="font-weight:bold;vertical-align:top;">request_method</td><td style="vertical-align:top;">:</td><td><div>GET</div></td></tr><tr><td style="font-weight:bold;vertical-align:top;">request_uri</td><td style="vertical-align:top;">:</td><td><div>/test/stress</div></td></tr><tr><td style="font-weight:bold;vertical-align:top;">script_name</td><td style="vertical-align:top;">:</td><td><div></div></td></tr><tr><td style="font-weight:bold;vertical-align:top;">server_name</td><td style="vertical-align:top;">:</td><td><div>concordance.pythonanywhere.com</div></td></tr><tr><td style="font-weight:bold;vertical-align:top;">server_port</td><td style="vertical-align:top;">:</td><td><div>443</div></td></tr><tr><td style="font-weight:bold;vertical-align:top;">server_protocol</td><td style="vertical-align:top;">:</td><td><div>HTTP/1.1</div></td></tr><tr><td style="font-weight:bold;vertical-align:top;">uwsgi.node</td><td style="vertical-align:top;">:</td><td><div>giles-liveweb6</div></td></tr><tr><td style="font-weight:bold;vertical-align:top;">uwsgi.version</td><td style="vertical-align:top;">:</td><td><div>2.0.5.1</div></td></tr><tr><td style="font-weight:bold;vertical-align:top;">uwsgi_node</td><td style="vertical-align:top;">:</td><td><div>giles-liveweb6</div></td></tr><tr><td style="font-weight:bold;vertical-align:top;">uwsgi_version</td><td style="vertical-align:top;">:</td><td><div>2.0.5.1</div></td></tr><tr><td style="font-weight:bold;vertical-align:top;">web2py_original_uri</td><td style="vertical-align:top;">:</td><td><div>/test/stress</div></td></tr><tr><td style="font-weight:bold;vertical-align:top;">web2py_path</td><td style="vertical-align:top;">:</td><td><div>/home/concordance/web2py</div></td></tr><tr><td style="font-weight:bold;vertical-align:top;">web2py_version</td><td style="vertical-align:top;">:</td><td><div>2.9.5-stable+timestamp.2014.03.16.02.35.39</div></td></tr><tr><td style="font-weight:bold;vertical-align:top;">wsgi.errors</td><td style="vertical-align:top;">:</td><td><div>&lt;uwsgi_file__bin_user_wsgi_wrapper.ErrorLogFile object at 0x7fad3d088150&gt;</div></td></tr><tr><td style="font-weight:bold;vertical-align:top;">wsgi.file_wrapper</td><td style="vertical-align:top;">:</td><td><div>&lt;built-in function uwsgi_sendfile&gt;</div></td></tr><tr><td style="font-weight:bold;vertical-align:top;">wsgi.input</td><td style="vertical-align:top;">:</td><td><div>&lt;uwsgi._Input object at 0x7fad1c2f2e58&gt;</div></td></tr><tr><td style="font-weight:bold;vertical-align:top;">wsgi.multiprocess</td><td style="vertical-align:top;">:</td><td><div>True</div></td></tr><tr><td style="font-weight:bold;vertical-align:top;">wsgi.multithread</td><td style="vertical-align:top;">:</td><td><div>False</div></td></tr><tr><td style="font-weight:bold;vertical-align:top;">wsgi.run_once</td><td style="vertical-align:top;">:</td><td><div>False</div></td></tr><tr><td style="font-weight:bold;vertical-align:top;">wsgi.url_scheme</td><td style="vertical-align:top;">:</td><td><div>https</div></td></tr><tr><td style="font-weight:bold;vertical-align:top;">wsgi.version</td><td style="vertical-align:top;">:</td><td><div><table><tr><td><div>1</div></td></tr><tr><td><div>0</div></td></tr></table></div></td></tr><tr><td style="font-weight:bold;vertical-align:top;">wsgi_errors</td><td style="vertical-align:top;">:</td><td><div>&lt;uwsgi_file__bin_user_wsgi_wrapper.ErrorLogFile object at 0x7fad3d088150&gt;</div></td></tr><tr><td style="font-weight:bold;vertical-align:top;">wsgi_file_wrapper</td><td style="vertical-align:top;">:</td><td><div>&lt;built-in function uwsgi_sendfile&gt;</div></td></tr><tr><td style="font-weight:bold;vertical-align:top;">wsgi_input</td><td style="vertical-align:top;">:</td><td><div>&lt;uwsgi._Input object at 0x7fad1c2f2e58&gt;</div></td></tr><tr><td style="font-weight:bold;vertical-align:top;">wsgi_multiprocess</td><td style="vertical-align:top;">:</td><td><div>True</div></td></tr><tr><td style="font-weight:bold;vertical-align:top;">wsgi_multithread</td><td style="vertical-align:top;">:</td><td><div>False</div></td></tr><tr><td style="font-weight:bold;vertical-align:top;">wsgi_run_once</td><td style="vertical-align:top;">:</td><td><div>False</div></td></tr><tr><td style="font-weight:bold;vertical-align:top;">wsgi_url_scheme</td><td style="vertical-align:top;">:</td><td><div>https</div></td></tr><tr><td style="font-weight:bold;vertical-align:top;">wsgi_version</td><td style="vertical-align:top;">:</td><td><div><table><tr><td><div>1</div></td></tr><tr><td><div>0</div></td></tr></table></div></td></tr></table></div></td></tr><tr><td style="font-weight:bold;vertical-align:top;">extension</td><td style="vertical-align:top;">:</td><td><div>html</div></td></tr><tr><td style="font-weight:bold;vertical-align:top;">folder</td><td style="vertical-align:top;">:</td><td><div>/home/concordance/web2py/applications/test/</div></td></tr><tr><td style="font-weight:bold;vertical-align:top;">function</td><td style="vertical-align:top;">:</td><td><div>index</div></td></tr><tr><td style="font-weight:bold;vertical-align:top;">global_settings</td><td style="vertical-align:top;">:</td><td><div><table><tr><td style="font-weight:bold;vertical-align:top;">app_folders</td><td style="vertical-align:top;">:</td><td><div>set([&#x27;/home/concordance/web2py/applications/examples/&#x27;, &#x27;/home/concordance/web2py/applications/admin/&#x27;, &#x27;/home/concordance/web2py/applications/test/&#x27;])</div></td></tr><tr><td style="font-weight:bold;vertical-align:top;">applications_parent</td><td style="vertical-align:top;">:</td><td><div>/home/concordance/web2py</div></td></tr><tr><td style="font-weight:bold;vertical-align:top;">db_sessions</td><td style="vertical-align:top;">:</td><td><div>set([])</div></td></tr><tr><td style="font-weight:bold;vertical-align:top;">debugging</td><td style="vertical-align:top;">:</td><td><div>True</div></td></tr><tr><td style="font-weight:bold;vertical-align:top;">gluon_parent</td><td style="vertical-align:top;">:</td><td><div>/home/concordance/web2py</div></td></tr><tr><td style="font-weight:bold;vertical-align:top;">is_jython</td><td style="vertical-align:top;">:</td><td><div>False</div></td></tr><tr><td style="font-weight:bold;vertical-align:top;">is_pypy</td><td style="vertical-align:top;">:</td><td><div>False</div></td></tr><tr><td style="font-weight:bold;vertical-align:top;">is_source</td><td style="vertical-align:top;">:</td><td><div>True</div></td></tr><tr><td style="font-weight:bold;vertical-align:top;">local_hosts</td><td style="vertical-align:top;">:</td><td><div><table><tr><td><div>::ffff:127.0.0.1</div></td></tr><tr><td><div>::1</div></td></tr><tr><td><div>giles-liveweb6</div></td></tr><tr><td><div>50.19.109.98</div></td></tr><tr><td><div>127.0.0.1</div></td></tr><tr><td><div>concordance.pythonanywhere.com</div></td></tr><tr><td><div>localhost</div></td></tr></table></div></td></tr><tr><td style="font-weight:bold;vertical-align:top;">web2py_version</td><td style="vertical-align:top;">:</td><td><div>2.9.5-stable+timestamp.2014.03.16.02.35.39</div></td></tr></table></div></td></tr><tr><td style="font-weight:bold;vertical-align:top;">is_https</td><td style="vertical-align:top;">:</td><td><div>True</div></td></tr><tr><td style="font-weight:bold;vertical-align:top;">is_local</td><td style="vertical-align:top;">:</td><td><div>False</div></td></tr><tr><td style="font-weight:bold;vertical-align:top;">is_restful</td><td style="vertical-align:top;">:</td><td><div>False</div></td></tr><tr><td style="font-weight:bold;vertical-align:top;">now</td><td style="vertical-align:top;">:</td><td><div>datetime.datetime(2017, 1, 14, 9, 20, 33, 535839)</div></td></tr><tr><td style="font-weight:bold;vertical-align:top;">raw_args</td><td style="vertical-align:top;">:</td><td><div></div></td></tr><tr><td style="font-weight:bold;vertical-align:top;">raw_extension</td><td style="vertical-align:top;">:</td><td><div>None</div></td></tr><tr><td style="font-weight:bold;vertical-align:top;">url</td><td style="vertical-align:top;">:</td><td><div>/test/stress</div></td></tr><tr><td style="font-weight:bold;vertical-align:top;">utcnow</td><td style="vertical-align:top;">:</td><td><div>datetime.datetime(2017, 1, 14, 9, 20, 33, 535857)</div></td></tr><tr><td style="font-weight:bold;vertical-align:top;">uuid</td><td style="vertical-align:top;">:</td><td><div>test/217.118.78.39.2017-01-14.09-20-33.bcced07a-044e-423b-b93d-42ffe9e86411</div></td></tr><tr><td style="font-weight:bold;vertical-align:top;">wsgi</td><td style="vertical-align:top;">:</td><td><div>&lt;gluon.main.LazyWSGI object at 0x7fad1c1f8450&gt;</div></td></tr></table></div>'
tRp66
sS'frames'
p67
(lp68
(dp69
S'file'
p70
S'/home/concordance/web2py/gluon/restricted.py'
p71
sS'dump'
p72
(dp73
S'environment'
p74
S"{'A': <class 'gluon.html.A'>, 'ANY_OF': <class 'gluon.validators.ANY_OF'>, 'Auth': <class 'gluon.tools.Auth'>, 'B': <class 'gluon.html.B'>, 'BEAUTIFY': <class 'gluon.html.BEAUTIFY'>, 'BODY': <class 'gluon.html.BODY'>, 'BR': <class 'gluon.html.BR'>, 'BUTTON': <class 'gluon.html.BUTTON'>, 'CAT': <class 'gluon.html.CAT'>, 'CENTER': <class 'gluon.html.CENTER'>, ...}"
p75
sS'ccode'
p76
S'<code object <module> at 0x7fad1af686b0, file "/...applications/test/controllers/stress.py", line 4>'
p77
ssS'lnum'
p78
I220
sS'lines'
p79
(dp80
I224
S'        # do not encapsulate (obfuscate) the original RestrictedError'
p81
sI215
S'    try:'
p82
sI216
S'        if isinstance(code, types.CodeType):'
p83
sI217
S'            ccode = code'
p84
sI218
S'        else:'
p85
sI219
S'            ccode = compile2(code, layer)'
p86
sI220
S'        exec ccode in environment'
p87
sI221
S'    except HTTP:'
p88
sI222
S'        raise'
p89
sI223
S'    except RestrictedError:'
p90
ssS'call'
p91
S"(code='# coding: utf8\\n# \\xd0\\xbf\\xd0\\xbe\\xd0\\xbf\\xd1\\x80\\xd0\\xbe\\xd0\\xb1\\xd0\\xbe\\xd0\\xb2\\xd0\\xb0\\xd1\\x82\\xd1\\x8c \\xd1\\x87\\xd1\\x82\\xd0\\xbe-\\xd0...radigma)\\n\\nresponse._vars=response._caller(index)\\n', environment={'A': <class 'gluon.html.A'>, 'ANY_OF': <class 'gluon.validators.ANY_OF'>, 'Auth': <class 'gluon.tools.Auth'>, 'B': <class 'gluon.html.B'>, 'BEAUTIFY': <class 'gluon.html.BEAUTIFY'>, 'BODY': <class 'gluon.html.BODY'>, 'BR': <class 'gluon.html.BR'>, 'BUTTON': <class 'gluon.html.BUTTON'>, 'CAT': <class 'gluon.html.CAT'>, 'CENTER': <class 'gluon.html.CENTER'>, ...}, layer='/home/concordance/web2py/applications/test/controllers/stress.py')"
p92
sS'func'
p93
S'restricted'
p94
sa(dp95
g70
S'/home/concordance/web2py/applications/test/controllers/stress.py'
p96
sg72
(dp97
sg78
I33
sg79
(dp98
I22
S'    paradigma = {}'
p99
sI23
S'    for a in range(0, len(newlines_antistress)-1):'
p100
sI24
S'        c = [newlines_antistress[a], newlines_stress[a]]'
p101
sI25
S'        for all in range(0, len(newlines_antistress)-1):'
p102
sI26
S'            not_stressed_word = newlines_antistress[a][all]'
p103
sI27
S'            stressed_word = newlines_stress[a][all]'
p104
sI28
S"            c = [not_stressed_word.encode('utf-8'), stressed_word]"
p105
sI29
S'            couples.append(c)'
p106
sI30
S'            paradigma[words[a]][not_stressed_word] = [stressed_word]'
p107
sI31
S'    return dict(couples=couples, words=words, paradigma = paradigma)'
p108
ssg91
S'()'
p109
sg93
S'<module>'
p110
sa(dp111
g70
S'/home/concordance/web2py/gluon/globals.py'
p112
sg72
(dp113
S'self'
p114
S'undefined'
p115
sS'f'
S'<function index>'
p116
ssg78
I385
sg79
(dp117
I384
S'        self._vars = None'
p118
sI385
S'        self._caller = lambda f: f()'
p119
sI386
S'        self._view_environment = None'
p120
sI387
S'        self._custom_commit = None'
p121
sI388
S'        self._custom_rollback = None'
p122
sI389
S''
sI380
S'        self.menu = []             # used by the default view layout'
p123
sI381
S'        self.files = []            # used by web2py_ajax.html'
p124
sI382
S'        self.generic_patterns = []  # patterns to allow generic views'
p125
sI383
S"        self.delimiters = ('{{', '}}')"
p126
ssg91
S'(f=<function index>)'
p127
sg93
S'<lambda>'
p128
sa(dp129
g70
S'/home/concordance/web2py/applications/test/controllers/stress.py'
p130
sg72
(dp131
S'c'
S'[\'\\xd0\\xb0\\xd1\\x83\\xd0\\xb4\\xd0\\xb8\\xd1\\x82\\xd0\\xbe\\xd1\\x80\\xd0\\xb8\\xd1\\x8f\', "\\xd0\\xb0\\xd1\\x83\\xd0\\xb4\\xd0\\xb8\\xd1\\x82\\xd0\\xbe\'\\xd1\\x80\\xd0\\xb8\\xd1\\x8f,\\xd0\\xb0\\xd1\\x83\\xd0\\xb4\\xd0\\xb8\\xd1\\x82\\xd0\\xbe\'\\xd1\\x80\\xd0\\xb8\\xd0\\xb8,\\xd0\\xb0\\xd1\\x83\\xd0\\xb4\\xd0\\xb8...\\x8f\\xd0\\xbc\\xd0\\xb8,\\xd0\\xb0\\xd1\\x83\\xd0\\xb4\\xd0\\xb8\\xd1\\x82\\xd0\\xbe\'\\xd1\\x80\\xd0\\xb8\\xd0\\xb8,\\xd0\\xb0\\xd1\\x83\\xd0\\xb4\\xd0\\xb8\\xd1\\x82\\xd0\\xbe\'\\xd1\\x80\\xd0\\xb8\\xd1\\x8f\\xd1\\x85\\r\\n"]'
p132
sS'].encode'
p133
g115
sS'words'
p134
S'[]'
p135
sS'words.append'
p136
S'<built-in method append of list object>'
p137
ssg78
I13
sg79
(dp138
I8
S'    newlines = []'
p139
sI9
S'    words = []'
p140
sI10
S'    for all in text:'
p141
sI11
S"        c = all.split('#')"
p142
sI12
S'        newlines.append(c)'
p143
sI13
S"        words.append(c[0].encode('utf-8'))"
p144
sI14
S"    newlines2 = [all[1].split(',') for all in newlines]"
p145
sI15
S'    newlines_antistress = []'
p146
sI16
S'    newlines_stress = []'
p147
sI17
S'    for all in newlines2:'
p148
ssg91
S'()'
p149
sg93
S'index'
p150
sasS'pyver'
p151
S'Python 2.7.6: /usr/local/bin/uwsgi (prefix: /usr)'
p152
sS'session'
p153
g65
(S's\x1a\x00\x00\x00<div><table></table></div>'
tRp154
sS'etype'
p155
S"<type 'exceptions.UnicodeDecodeError'>"
p156
sS'date'
p157
S'Sat Jan 14 09:20:33 2017'
p158
sS'response'
p159
g65
(S's~\x1e\x00\x00<div><table><tr><td style="font-weight:bold;vertical-align:top;">body</td><td style="vertical-align:top;">:</td><td><div>&lt;cStringIO.StringO object at 0x7fad1f0eca08&gt;</div></td></tr><tr><td style="font-weight:bold;vertical-align:top;">cookies</td><td style="vertical-align:top;">:</td><td><div><table><tr><td style="font-weight:bold;vertical-align:top;">session_id_test</td><td style="vertical-align:top;">:</td><td><div>46.101.16.229-06e011a5-7dfa-444f-aa81-2f76a54cf436<table><tr><td style="font-weight:bold;vertical-align:top;">comment</td><td style="vertical-align:top;">:</td><td><div></div></td></tr><tr><td style="font-weight:bold;vertical-align:top;">domain</td><td style="vertical-align:top;">:</td><td><div></div></td></tr><tr><td style="font-weight:bold;vertical-align:top;">expires</td><td style="vertical-align:top;">:</td><td><div></div></td></tr><tr><td style="font-weight:bold;vertical-align:top;">httponly</td><td style="vertical-align:top;">:</td><td><div></div></td></tr><tr><td style="font-weight:bold;vertical-align:top;">max-age</td><td style="vertical-align:top;">:</td><td><div></div></td></tr><tr><td style="font-weight:bold;vertical-align:top;">path</td><td style="vertical-align:top;">:</td><td><div>/</div></td></tr><tr><td style="font-weight:bold;vertical-align:top;">secure</td><td style="vertical-align:top;">:</td><td><div></div></td></tr><tr><td style="font-weight:bold;vertical-align:top;">version</td><td style="vertical-align:top;">:</td><td><div></div></td></tr></table></div></td></tr></table></div></td></tr><tr><td style="font-weight:bold;vertical-align:top;">delimiters</td><td style="vertical-align:top;">:</td><td><div><table><tr><td><div>{{</div></td></tr><tr><td><div>}}</div></td></tr></table></div></td></tr><tr><td style="font-weight:bold;vertical-align:top;">files</td><td style="vertical-align:top;">:</td><td><div><table></table></div></td></tr><tr><td style="font-weight:bold;vertical-align:top;">flash</td><td style="vertical-align:top;">:</td><td><div></div></td></tr><tr><td style="font-weight:bold;vertical-align:top;">generic_patterns</td><td style="vertical-align:top;">:</td><td><div><table></table></div></td></tr><tr><td style="font-weight:bold;vertical-align:top;">google_analytics_id</td><td style="vertical-align:top;">:</td><td><div>UA-52567545-1</div></td></tr><tr><td style="font-weight:bold;vertical-align:top;">headers</td><td style="vertical-align:top;">:</td><td><div><table><tr><td style="font-weight:bold;vertical-align:top;">X-Powered-By</td><td style="vertical-align:top;">:</td><td><div>web2py</div></td></tr></table></div></td></tr><tr><td style="font-weight:bold;vertical-align:top;">logo</td><td style="vertical-align:top;">:</td><td><div><a class="brand" href="http://concordances.ru"><b>concor<span>dances</span></b>.ru</a></div></td></tr><tr><td style="font-weight:bold;vertical-align:top;">menu</td><td style="vertical-align:top;">:</td><td><div><table><tr><td><div><table><tr><td><div>Home</div></td></tr><tr><td><div>False</div></td></tr><tr><td><div>/test/default/index</div></td></tr><tr><td><div><table></table></div></td></tr></table></div></td></tr><tr><td><div><table><tr><td><div><span class="highlighted">web2py</span></div></td></tr><tr><td><div>False</div></td></tr><tr><td><div>http://concordances.ru</div></td></tr><tr><td><div><table><tr><td><div><table><tr><td><div>\xd0\x9e \xd0\xbf\xd1\x80\xd0\xbe\xd0\xb5\xd0\xba\xd1\x82\xd0\xb5</div></td></tr><tr><td><div>False</div></td></tr><tr><td><div>/admin/default/about/test</div></td></tr></table></div></td></tr><tr><td><div><table><tr><td><div>\xd0\x90\xd0\xb4\xd0\xbc\xd0\xb8\xd0\xbd\xd0\xba\xd0\xb0</div></td></tr><tr><td><div>False</div></td></tr><tr><td><div>/admin/default/edit/test/controllers/stress.py</div></td></tr></table></div></td></tr></table></div></td></tr></table></div></td></tr></table></div></td></tr><tr><td style="font-weight:bold;vertical-align:top;">meta</td><td style="vertical-align:top;">:</td><td><div><table><tr><td style="font-weight:bold;vertical-align:top;">author</td><td style="vertical-align:top;">:</td><td><div>Maria Levchenko &lt;marylevchenko@gmail.com&gt;</div></td></tr><tr><td style="font-weight:bold;vertical-align:top;">generator</td><td style="vertical-align:top;">:</td><td><div>\xd0\xa7\xd0\xb0\xd1\x81\xd1\x82\xd0\xbe\xd1\x82\xd0\xbd\xd1\x8b\xd0\xb9 \xd1\x81\xd0\xbb\xd0\xbe\xd0\xb2\xd0\xb0\xd1\x80\xd1\x8c \xd1\x80\xd1\x83\xd1\x81\xd1\x81\xd0\xba\xd0\xbe\xd0\xb9 \xd0\xbb\xd0\xb8\xd1\x82\xd0\xb5\xd1\x80\xd0\xb0\xd1\x82\xd1\x83\xd1\x80\xd1\x8b</div></td></tr><tr><td style="font-weight:bold;vertical-align:top;">keywords</td><td style="vertical-align:top;">:</td><td><div>concordance, natural language processing, critics</div></td></tr></table></div></td></tr><tr><td style="font-weight:bold;vertical-align:top;">models_to_run</td><td style="vertical-align:top;">:</td><td><div><table><tr><td><div>^\\w+\\.py$</div></td></tr><tr><td><div>^stress/\\w+\\.py$</div></td></tr><tr><td><div>^stress/index/\\w+\\.py$</div></td></tr></table></div></td></tr><tr><td style="font-weight:bold;vertical-align:top;">postprocessing</td><td style="vertical-align:top;">:</td><td><div><table></table></div></td></tr><tr><td style="font-weight:bold;vertical-align:top;">session_client</td><td style="vertical-align:top;">:</td><td><div>217.118.78.39</div></td></tr><tr><td style="font-weight:bold;vertical-align:top;">session_cookie_compression_level</td><td style="vertical-align:top;">:</td><td><div>None</div></td></tr><tr><td style="font-weight:bold;vertical-align:top;">session_cookie_expires</td><td style="vertical-align:top;">:</td><td><div>None</div></td></tr><tr><td style="font-weight:bold;vertical-align:top;">session_cookie_key</td><td style="vertical-align:top;">:</td><td><div>None</div></td></tr><tr><td style="font-weight:bold;vertical-align:top;">session_data_name</td><td style="vertical-align:top;">:</td><td><div>session_data_test</div></td></tr><tr><td style="font-weight:bold;vertical-align:top;">session_file</td><td style="vertical-align:top;">:</td><td><div>&lt;open file &#x27;/home/concordance/web2py/applications/test/sessions/46.101.16.229-06e011a5-7dfa-444f-aa81-2f76a54cf436&#x27;, mode &#x27;rb+&#x27; at 0x7fad3494ad20&gt;</div></td></tr><tr><td style="font-weight:bold;vertical-align:top;">session_filename</td><td style="vertical-align:top;">:</td><td><div>/home/concordance/web2py/applications/test/sessions/46.101.16.229-06e011a5-7dfa-444f-aa81-2f76a54cf436</div></td></tr><tr><td style="font-weight:bold;vertical-align:top;">session_hash</td><td style="vertical-align:top;">:</td><td><div>9966c6519042e5b2a0ae1c59d00c8dc1</div></td></tr><tr><td style="font-weight:bold;vertical-align:top;">session_id</td><td style="vertical-align:top;">:</td><td><div>46.101.16.229-06e011a5-7dfa-444f-aa81-2f76a54cf436</div></td></tr><tr><td style="font-weight:bold;vertical-align:top;">session_id_name</td><td style="vertical-align:top;">:</td><td><div>session_id_test</div></td></tr><tr><td style="font-weight:bold;vertical-align:top;">session_locked</td><td style="vertical-align:top;">:</td><td><div>True</div></td></tr><tr><td style="font-weight:bold;vertical-align:top;">session_masterapp</td><td style="vertical-align:top;">:</td><td><div>test</div></td></tr><tr><td style="font-weight:bold;vertical-align:top;">session_new</td><td style="vertical-align:top;">:</td><td><div>False</div></td></tr><tr><td style="font-weight:bold;vertical-align:top;">session_storage_type</td><td style="vertical-align:top;">:</td><td><div>file</div></td></tr><tr><td style="font-weight:bold;vertical-align:top;">status</td><td style="vertical-align:top;">:</td><td><div>200</div></td></tr><tr><td style="font-weight:bold;vertical-align:top;">subtitle</td><td style="vertical-align:top;">:</td><td><div></div></td></tr><tr><td style="font-weight:bold;vertical-align:top;">title</td><td style="vertical-align:top;">:</td><td><div>Test</div></td></tr><tr><td style="font-weight:bold;vertical-align:top;">view</td><td style="vertical-align:top;">:</td><td><div>stress/index.html</div></td></tr></table></div>'
tRp160
sS'locals'
p161
(dp162
S'c'
S'[\'\\xd0\\xb0\\xd1\\x83\\xd0\\xb4\\xd0\\xb8\\xd1\\x82\\xd0\\xbe\\xd1\\x80\\xd0\\xb8\\xd1\\x8f\', "\\xd0\\xb0\\xd1\\x83\\xd0\\xb4\\xd0\\xb8\\xd1\\x82\\xd0\\xbe\'\\xd1\\x80\\xd0\\xb8\\xd1\\x8f,\\xd0\\xb0\\xd1\\x83\\xd0\\xb4\\xd0\\xb8\\xd1\\x82\\xd0\\xbe\'\\xd1\\x80\\xd0\\xb8\\xd0\\xb8,\\xd0\\xb0\\xd1\\x83\\xd0\\xb4\\xd0\\xb8...\\x8f\\xd0\\xbc\\xd0\\xb8,\\xd0\\xb0\\xd1\\x83\\xd0\\xb4\\xd0\\xb8\\xd1\\x82\\xd0\\xbe\'\\xd1\\x80\\xd0\\xb8\\xd0\\xb8,\\xd0\\xb0\\xd1\\x83\\xd0\\xb4\\xd0\\xb8\\xd1\\x82\\xd0\\xbe\'\\xd1\\x80\\xd0\\xb8\\xd1\\x8f\\xd1\\x85\\r\\n"]'
p163
sS'text'
p164
S'["\\xd0\\xb0\\xd1\\x83\\xd0\\xb4\\xd0\\xb8\\xd1\\x82\\xd0\\xbe\\xd1\\x80\\xd0\\xb8\\xd1\\x8f#\\xd0\\xb0\\xd1\\x83\\xd0\\xb4\\xd0\\xb8\\xd1\\x82\\xd0\\xbe\'\\xd1\\x80\\xd0\\xb8\\xd1\\x8f,\\xd0\\xb0\\xd1\\x83\\xd0\\xb4\\xd0\\xb8\\xd1...\\x8f\\xd0\\xbc\\xd0\\xb8,\\xd0\\xb0\\xd1\\x83\\xd0\\xb4\\xd0\\xb8\\xd1\\x82\\xd0\\xbe\'\\xd1\\x80\\xd0\\xb8\\xd0\\xb8,\\xd0\\xb0\\xd1\\x83\\xd0\\xb4\\xd0\\xb8\\xd1\\x82\\xd0\\xbe\'\\xd1\\x80\\xd0\\xb8\\xd1\\x8f\\xd1\\x85\\r\\n", "\\xd0\\xb0\\xd1\\x83\\xd0\\xb4\\xd0\\xb8\\xd1\\x82\\xd0\\xbe\\xd1\\x80\\xd0\\xbd\\xd1\\x8b\\xd0\\xb9#\\xd0\\xb0\\xd1\\x83\\xd0\\xb4\\xd0\\xb8\\xd1\\x82\\xd0\\xbe\'\\xd1\\x80\\xd0\\xbd\\xd1\\x8b\\xd0\\xb9,\\xd0\\xb0\\xd1\\x83\\xd0...\\xd0\\xb0\\xd1\\x83\\xd0\\xb4\\xd0\\xb8\\xd1\\x82\\xd0\\xbe\'\\xd1\\x80\\xd0\\xbd\\xd0\\xb5\\xd0\\xb9,\\xd0\\xbf\\xd0\\xbe\\xd0\\xb0\\xd1\\x83\\xd0\\xb4\\xd0\\xb8\\xd1\\x82\\xd0\\xbe\'\\xd1\\x80\\xd0\\xbd\\xd0\\xb5\\xd0\\xb9\\r\\n", "\\xd0\\xb0\\xd1\\x83\\xd0\\xb4\\xd0\\xb8\\xd1\\x82\\xd0\\xbe\\xd1\\x80\\xd1\\x81\\xd0\\xba\\xd0\\xb8\\xd0\\xb9#\\xd0\\xb0\\xd1\\x83\\xd0\\xb4\\xd0\\xb8\'\\xd1\\x82\\xd0\\xbe\\xd1\\x80\\xd1\\x81\\xd0\\xba\\xd0\\xb8\\xd0\\xb9,\\xd0...\\xba\\xd0\\xb0,\\xd0\\xb0\\xd1\\x83\\xd0\\xb4\\xd0\\xb8\'\\xd1\\x82\\xd0\\xbe\\xd1\\x80\\xd1\\x81\\xd0\\xba\\xd0\\xbe,\\xd0\\xb0\\xd1\\x83\\xd0\\xb4\\xd0\\xb8\'\\xd1\\x82\\xd0\\xbe\\xd1\\x80\\xd1\\x81\\xd0\\xba\\xd0\\xb8\\r\\n", "\\xd0\\xb0\\xd1\\x83\\xd0\\xb4\\xd0\\xb8\\xd1\\x84\\xd0\\xbe\\xd0\\xbd#\\xd0\\xb0\\xd1\\x83\\xd0\\xb4\\xd0\\xb8\\xd1\\x84\\xd0\\xbe\'\\xd0\\xbd,\\xd0\\xb0\\xd1\\x83\\xd0\\xb4\\xd0\\xb8\\xd1\\x84\\xd0\\xbe\'\\xd0\\xbd\\xd1\\x8b...\'\\xd0\\xbd\\xd0\\xb0\\xd0\\xbc\\xd0\\xb8,\\xd0\\xb0\\xd1\\x83\\xd0\\xb4\\xd0\\xb8\\xd1\\x84\\xd0\\xbe\'\\xd0\\xbd\\xd0\\xb5,\\xd0\\xb0\\xd1\\x83\\xd0\\xb4\\xd0\\xb8\\xd1\\x84\\xd0\\xbe\'\\xd0\\xbd\\xd0\\xb0\\xd1\\x85\\r\\n", "\\xd0\\xb0\\xd1\\x83\\xd0\\xba\\xd0\\xb0\\xd0\\xbd\\xd1\\x8c\\xd0\\xb5#\\xd0\\xb0\\xd1\\x83\'\\xd0\\xba\\xd0\\xb0\\xd0\\xbd\\xd1\\x8c\\xd0\\xb5,\\xd0\\xb0\\xd1\\x83\'\\xd0\\xba\\xd0\\xb0\\xd0\\xbd\\xd1\\x8c\\xd1\\x8f,\\xd0...\\xba\\xd0\\xb0\\xd0\\xbd\\xd1\\x8c\\xd1\\x8f\\xd0\\xbc\\xd0\\xb8,\\xd0\\xb0\\xd1\\x83\'\\xd0\\xba\\xd0\\xb0\\xd0\\xbd\\xd1\\x8c\\xd0\\xb5,\\xd0\\xb0\\xd1\\x83\'\\xd0\\xba\\xd0\\xb0\\xd0\\xbd\\xd1\\x8c\\xd1\\x8f\\xd1\\x85\\r\\n", "\\xd0\\xb0\\xd1\\x83\\xd0\\xba\\xd0\\xb0\\xd1\\x82\\xd1\\x8c#\\xd0\\xb0\\xd1\\x83\'\\xd0\\xba\\xd0\\xb0\\xd1\\x82\\xd1\\x8c,\\xd0\\xb0\\xd1\\x83\'\\xd0\\xba\\xd0\\xb0\\xd1\\x8e,\\xd0\\xb0\\xd1\\x83\'\\xd0\\xba\\xd0\\xb0...\\xba\\xd0\\xb0\\xd0\\xb2\\xd1\\x88\\xd0\\xb5\\xd0\\xb9,\\xd0\\xb0\\xd1\\x83\'\\xd0\\xba\\xd0\\xb0\\xd0\\xb2\\xd1\\x88\\xd0\\xb5\\xd0\\xbc,\\xd0\\xb0\\xd1\\x83\'\\xd0\\xba\\xd0\\xb0\\xd0\\xb2\\xd1\\x88\\xd0\\xb8\\xd1\\x85\\r\\n", "\\xd0\\xb0\\xd1\\x83\\xd0\\xba\\xd0\\xb0\\xd1\\x82\\xd1\\x8c\\xd1\\x81\\xd1\\x8f#\\xd0\\xb0\\xd1\\x83\'\\xd0\\xba\\xd0\\xb0\\xd1\\x82\\xd1\\x8c\\xd1\\x81\\xd1\\x8f,\\xd0\\xb0\\xd1\\x83\'\\xd0\\xba\\xd0\\xb0\\xd1\\x8e\\xd1\\x81...\\x81\\xd1\\x8f,\\xd0\\xb0\\xd1\\x83\'\\xd0\\xba\\xd0\\xb0\\xd0\\xb2\\xd1\\x88\\xd0\\xb5\\xd0\\xbc\\xd1\\x81\\xd1\\x8f,\\xd0\\xb0\\xd1\\x83\'\\xd0\\xba\\xd0\\xb0\\xd0\\xb2\\xd1\\x88\\xd0\\xb8\\xd1\\x85\\xd1\\x81\\xd1\\x8f\\r\\n", "\\xd0\\xb0\\xd1\\x83\\xd0\\xba\\xd0\\xbd\\xd1\\x83\\xd1\\x82\\xd1\\x8c#\\xd0\\xb0\\xd1\\x83\'\\xd0\\xba\\xd0\\xbd\\xd1\\x83\\xd1\\x82\\xd1\\x8c,\\xd0\\xb0\\xd1\\x83\'\\xd0\\xba\\xd0\\xbd\\xd1\\x83,\\xd0\\xb0\\xd1\\x83\'...\\xb2\\xd1\\x88\\xd0\\xb5\\xd0\\xb9,\\xd0\\xb0\\xd1\\x83\'\\xd0\\xba\\xd0\\xbd\\xd1\\x83\\xd0\\xb2\\xd1\\x88\\xd0\\xb5\\xd0\\xbc,\\xd0\\xb0\\xd1\\x83\'\\xd0\\xba\\xd0\\xbd\\xd1\\x83\\xd0\\xb2\\xd1\\x88\\xd0\\xb8\\xd1\\x85\\r\\n", "\\xd0\\xb0\\xd1\\x83\\xd0\\xba\\xd0\\xbd\\xd1\\x83\\xd1\\x82\\xd1\\x8c\\xd1\\x81\\xd1\\x8f#\\xd0\\xb0\\xd1\\x83\'\\xd0\\xba\\xd0\\xbd\\xd1\\x83\\xd1\\x82\\xd1\\x8c\\xd1\\x81\\xd1\\x8f,\\xd0\\xb0\\xd1\\x83\'\\xd0\\xba\\xd0\\xbd...\\x8f,\\xd0\\xb0\\xd1\\x83\'\\xd0\\xba\\xd0\\xbd\\xd1\\x83\\xd0\\xb2\\xd1\\x88\\xd0\\xb5\\xd0\\xbc\\xd1\\x81\\xd1\\x8f,\\xd0\\xb0\\xd1\\x83\'\\xd0\\xba\\xd0\\xbd\\xd1\\x83\\xd0\\xb2\\xd1\\x88\\xd0\\xb8\\xd1\\x85\\xd1\\x81\\xd1\\x8f"]'
p165
sS'all'
p166
S'"\\xd0\\xb0\\xd1\\x83\\xd0\\xb4\\xd0\\xb8\\xd1\\x82\\xd0\\xbe\\xd1\\x80\\xd0\\xb8\\xd1\\x8f#\\xd0\\xb0\\xd1\\x83\\xd0\\xb4\\xd0\\xb8\\xd1\\x82\\xd0\\xbe\'\\xd1\\x80\\xd0\\xb8\\xd1\\x8f,\\xd0\\xb0\\xd1\\x83\\xd0\\xb4\\xd0\\xb8\\xd1...\\x8f\\xd0\\xbc\\xd0\\xb8,\\xd0\\xb0\\xd1\\x83\\xd0\\xb4\\xd0\\xb8\\xd1\\x82\\xd0\\xbe\'\\xd1\\x80\\xd0\\xb8\\xd0\\xb8,\\xd0\\xb0\\xd1\\x83\\xd0\\xb4\\xd0\\xb8\\xd1\\x82\\xd0\\xbe\'\\xd1\\x80\\xd0\\xb8\\xd1\\x8f\\xd1\\x85\\r\\n"'
p167
sS'filename'
p168
S"'/home/concordance/web2py/applications/test/rhymes/test.txt'"
p169
sS'words'
p170
S'[]'
p171
sS'newlines'
p172
S'[[\'\\xd0\\xb0\\xd1\\x83\\xd0\\xb4\\xd0\\xb8\\xd1\\x82\\xd0\\xbe\\xd1\\x80\\xd0\\xb8\\xd1\\x8f\', "\\xd0\\xb0\\xd1\\x83\\xd0\\xb4\\xd0\\xb8\\xd1\\x82\\xd0\\xbe\'\\xd1\\x80\\xd0\\xb8\\xd1\\x8f,\\xd0\\xb0\\xd1\\x83\\xd0\\xb4\\xd0\\xb8\\xd1\\x82\\xd0\\xbe\'\\xd1\\x80\\xd0\\xb8\\xd0\\xb8,\\xd0\\xb0\\xd1\\x83\\xd0\\xb4\\xd0\\xb8...\\x8f\\xd0\\xbc\\xd0\\xb8,\\xd0\\xb0\\xd1\\x83\\xd0\\xb4\\xd0\\xb8\\xd1\\x82\\xd0\\xbe\'\\xd1\\x80\\xd0\\xb8\\xd0\\xb8,\\xd0\\xb0\\xd1\\x83\\xd0\\xb4\\xd0\\xb8\\xd1\\x82\\xd0\\xbe\'\\xd1\\x80\\xd0\\xb8\\xd1\\x8f\\xd1\\x85\\r\\n"]]'
p173
sssS'traceback'
p174
S'Traceback (most recent call last):\n  File "/home/concordance/web2py/gluon/restricted.py", line 220, in restricted\n    exec ccode in environment\n  File "/home/concordance/web2py/applications/test/controllers/stress.py", line 33, in <module>\n  File "/home/concordance/web2py/gluon/globals.py", line 385, in <lambda>\n    self._caller = lambda f: f()\n  File "/home/concordance/web2py/applications/test/controllers/stress.py", line 13, in index\n    words.append(c[0].encode(\'utf-8\'))\nUnicodeDecodeError: \'ascii\' codec can\'t decode byte 0xd0 in position 0: ordinal not in range(128)\n'
p175
s.