(dp1
S'output'
p2
S'<type \'exceptions.IOError\'> [Errno 36] File name too long: \'<?xml version="1.0" encoding="utf-8"?>\\n        <?xml-stylesheet type="text/xsl" href="style.xslt"?>\\n<results>\\n  <text>\\n    <info>\\n      <title>\\xd0\\x9d\\xd0\\xb0 \\xd0\\xb1\\xd0\\xbb\\xd0\\xb5\\xd0\\xb4\\xd0\\xbd\\xd0\\xbe-\\xd0\\xb3\\xd0\\xbe\\xd0\\xbb\\xd1\\x83\\xd0\\xb1\\xd0\\xbe\\xd0\\xb9 \\xd1\\x8d\\xd0\\xbc\\xd0\\xb0\\xd0\\xbb\\xd0\\xb8...</title>\\n      <name>\\xd0\\x9e\\xd1\\x81\\xd0\\xb8\\xd0\\xbf</name>\\n      <author>\\xd0\\x9c\\xd0\\xb0\\xd0\\xbd\\xd0\\xb4\\xd0\\xb5\\xd0\\xbb\\xd1\\x8c\\xd1\\x88\\xd1\\x82\\xd0\\xb0\\xd0\\xbc</author>\\n    </info>\\n    <poem>\\n      <stanza number="1">\\n        <line number="1">\\n          <word number="54563" pos="PREP">\\xd0\\x9d\\xd0\\xb0</word>\\n          <word number="54564" pos="ADVB">\\xd0\\xb1\\xd0\\xbb\\xd0\\xb5\\xd0\\xb4\\xd0\\xbd\\xd0\\xbe</word>\\n          <word number="54565" pos="PNCT">-</word>\\n          <word number="54566" pos="ADJF">\\xd0\\xb3\\xd0\\xbe\\xd0\\xbb\\xd1\\x83\\xd0\\xb1\\xd0\\xbe\\xd0\\xb9</word>\\n          <word number="54567" pos="NOUN">\\xd1\\x8d\\xd0\\xbc\\xd0\\xb0\\xd0\\xbb\\xd0\\xb8</word>\\n          <word number="54568" pos="PNCT">,</word>\\n        </line>\\n        <line number="2">\\n          <word number="54569" pos="ADJF">\\xd0\\x9a\\xd0\\xb0\\xd0\\xba\\xd0\\xb0\\xd1\\x8f</word>\\n          <word number="54570" pos="PRTS">\\xd0\\xbc\\xd1\\x8b\\xd1\\x81\\xd0\\xbb\\xd0\\xb8\\xd0\\xbc\\xd0\\xb0</word>\\n          <word number="54571" pos="PREP">\\xd0\\xb2</word>\\n          <word number="54572" pos="NOUN">\\xd0\\xb0\\xd0\\xbf\\xd1\\x80\\xd0\\xb5\\xd0\\xbb\\xd0\\xb5</word>\\n          <word number="54573" pos="PNCT">,</word>\\n        </line>\\n        <line number="3">\\n          <word number="54574" pos="NOUN">\\xd0\\x91\\xd0\\xb5\\xd1\\x80\\xd0\\xb5\\xd0\\xb7\\xd1\\x8b</word>\\n          <word number="54575" pos="NOUN">\\xd0\\xb2\\xd0\\xb5\\xd1\\x82\\xd0\\xb2\\xd0\\xb8</word>\\n          <word number="54576" pos="VERB">\\xd0\\xbf\\xd0\\xbe\\xd0\\xb4\\xd0\\xbd\\xd0\\xb8\\xd0\\xbc\\xd0\\xb0\\xd0\\xbb\\xd0\\xb8</word>\\n        </line>\\n        <line number="4">\\n          <word number="54577" pos="CONJ">\\xd0\\x98</word>\\n          <word number="54578" pos="ADVB">\\xd0\\xbd\\xd0\\xb5\\xd0\\xb7\\xd0\\xb0\\xd0\\xbc\\xd0\\xb5\\xd1\\x82\\xd0\\xbd\\xd0\\xbe</word>\\n          <word number="54579" pos="VERB">\\xd0\\xb2\\xd0\\xb5\\xd1\\x87\\xd0\\xb5\\xd1\\x80\\xd0\\xb5\\xd0\\xbb\\xd0\\xb8</word>\\n          <word number="54580" pos="PNCT">.</word>\\n        </line>\\n      </stanza>\\n      <stanza number="2">\\n        <line number="5">\\n          <word number="54581" pos="NOUN">\\xd0\\xa3\\xd0\\xb7\\xd0\\xbe\\xd1\\x80</word>\\n          <word number="54582" pos="PRTF">\\xd0\\xbe\\xd1\\x82\\xd1\\x82\\xd0\\xbe\\xd1\\x87\\xd0\\xb5\\xd0\\xbd\\xd0\\xbd\\xd1\\x8b\\xd0\\xb9</word>\\n          <word number="54583" pos="CONJ">\\xd0\\xb8</word>\\n          <word number="54584" pos="ADJF">\\xd0\\xbc\\xd0\\xb5\\xd0\\xbb\\xd0\\xba\\xd0\\xb8\\xd0\\xb9</word>\\n          <word number="54585" pos="PNCT">,</word>\\n        </line>\\n        <line number="6">\\n          <word number="54586" pos="VERB">\\xd0\\x97\\xd0\\xb0\\xd1\\x81\\xd1\\x82\\xd1\\x8b\\xd0\\xbb\\xd0\\xb0</word>\\n          <word number="54587" pos="ADJF">\\xd1\\x82\\xd0\\xbe\\xd0\\xbd\\xd0\\xb5\\xd0\\xbd\\xd1\\x8c\\xd0\\xba\\xd0\\xb0\\xd1\\x8f</word>\\n          <word number="54588" pos="NOUN">\\xd1\\x81\\xd0\\xb5\\xd1\\x82\\xd0\\xba\\xd0\\xb0</word>\\n          <word number="54589" pos="PNCT">,</word>\\n        </line>\\n        <line number="7">\\n          <word number="54590" pos="CONJ">\\xd0\\x9a\\xd0\\xb0\\xd0\\xba</word>\\n          <word number="54591" pos="PREP">\\xd0\\xbd\\xd0\\xb0</word>\\n          <word number="54592" pos="ADJF" variant="\\xd1\\x84\\xd0\\xb0\\xd1\\x8f\\xd0\\xbd\\xd1\\x81\\xd0\\xbe\\xd0\\xb2\\xd0\\xbe\\xd0\\xb9">\\xd1\\x84\\xd0\\xb0\\xd1\\x80\\xd1\\x84\\xd0\\xbe\\xd1\\x80\\xd0\\xbe\\xd0\\xb2\\xd0\\xbe\\xd0\\xb9</word>\\n          <word number="54593" pos="NOUN">\\xd1\\x82\\xd0\\xb0\\xd1\\x80\\xd0\\xb5\\xd0\\xbb\\xd0\\xba\\xd0\\xb5</word>\\n        </line>\\n        <line number="8">\\n          <word number="54594" pos="NOUN">\\xd0\\xa0\\xd0\\xb8\\xd1\\x81\\xd1\\x83\\xd0\\xbd\\xd0\\xbe\\xd0\\xba</word>\\n          <word number="54595" pos="PNCT">,</word>\\n          <word number="54596" pos="PRTF">\\xd0\\xb2\\xd1\\x8b\\xd1\\x87\\xd0\\xb5\\xd1\\x80\\xd1\\x87\\xd0\\xb5\\xd0\\xbd\\xd0\\xbd\\xd1\\x8b\\xd0\\xb9</word>\\n          <word number="54597" pos="ADVB">\\xd0\\xbc\\xd0\\xb5\\xd1\\x82\\xd0\\xba\\xd0\\xbe</word>\\n          <word number="54598" pos="PNCT">,</word>\\n          <word number="54599" pos="PNCT">\\xe2\\x80\\x94</word>\\n        </line>\\n      </stanza>\\n      <stanza number="3">\\n        <line number="9">\\n          <word number="54600" pos="CONJ">\\xd0\\x9a\\xd0\\xbe\\xd0\\xb3\\xd0\\xb4\\xd0\\xb0</word>\\n          <word number="54601" pos="NPRO">\\xd0\\xb5\\xd0\\xb3\\xd0\\xbe</word>\\n          <word number="54602" pos="NOUN">\\xd1\\x85\\xd1\\x83\\xd0\\xb4\\xd0\\xbe\\xd0\\xb6\\xd0\\xbd\\xd0\\xb8\\xd0\\xba</word>\\n          <word number="54603" pos="ADJF">\\xd0\\xbc\\xd0\\xb8\\xd0\\xbb\\xd1\\x8b\\xd0\\xb9</word>\\n        </line>\\n        <line number="10">\\n          <word number="54604" pos="VERB">\\xd0\\x92\\xd1\\x8b\\xd0\\xb2\\xd0\\xbe\\xd0\\xb4\\xd0\\xb8\\xd1\\x82</word>\\n          <word number="54605" pos="PREP">\\xd0\\xbd\\xd0\\xb0</word>\\n          <word number="54606" pos="ADJF">\\xd1\\x81\\xd1\\x82\\xd0\\xb5\\xd0\\xba\\xd0\\xbb\\xd1\\x8f\\xd0\\xbd\\xd0\\xbd\\xd0\\xbe\\xd0\\xb9</word>\\n          <word number="54607" pos="NOUN">\\xd1\\x82\\xd0\\xb2\\xd0\\xb5\\xd1\\x80\\xd0\\xb4\\xd0\\xb8</word>\\n          <word number="54608" pos="PNCT">,</word>\\n        </line>\\n        <line number="11">\\n          <word number="54609" pos="PREP">\\xd0\\x92</word>\\n          <word number="54610" pos="NOUN">\\xd1\\x81\\xd0\\xbe\\xd0\\xb7\\xd0\\xbd\\xd0\\xb0\\xd0\\xbd\\xd0\\xb8\\xd0\\xb8</word>\\n          <word number="54611" pos="ADJF">\\xd0\\xbc\\xd0\\xb8\\xd0\\xbd\\xd1\\x83\\xd1\\x82\\xd0\\xbd\\xd0\\xbe\\xd0\\xb9</word>\\n          <word number="54612" pos="NOUN">\\xd1\\x81\\xd0\\xb8\\xd0\\xbb\\xd1\\x8b</word>\\n          <word number="54613" pos="PNCT">,</word>\\n        </line>\\n        <line number="12">\\n          <word number="54614" pos="PREP">\\xd0\\x92</word>\\n          <word number="54615" pos="NOUN">\\xd0\\xb7\\xd0\\xb0\\xd0\\xb1\\xd0\\xb2\\xd0\\xb5\\xd0\\xbd\\xd0\\xb8\\xd0\\xb8</word>\\n          <word number="54616" pos="ADJF">\\xd0\\xbf\\xd0\\xb5\\xd1\\x87\\xd0\\xb0\\xd0\\xbb\\xd1\\x8c\\xd0\\xbd\\xd0\\xbe\\xd0\\xb9</word>\\n          <word number="54617" pos="NOUN">\\xd1\\x81\\xd0\\xbc\\xd0\\xb5\\xd1\\x80\\xd1\\x82\\xd0\\xb8</word>\\n          <word number="54618" pos="PNCT">.</word>\\n        </line>\\n      </stanza>\\n    </poem>\\n  </text>\\n</results>\\n\''
p3
sS'layer'
p4
S'/home/concordance/web2py/applications/test/controllers/show.py'
p5
sS'code'
p6
S'# coding: utf8\n# \xd0\xbf\xd0\xbe\xd0\xbf\xd1\x80\xd0\xbe\xd0\xb1\xd0\xbe\xd0\xb2\xd0\xb0\xd1\x82\xd1\x8c \xd1\x87\xd1\x82\xd0\xbe-\xd0\xbb\xd0\xb8\xd0\xb1\xd0\xbe \xd0\xb2\xd0\xb8\xd0\xb4\xd0\xb0\nfrom xml.etree import cElementTree as ET\n\ndef show1():   # show text from file\n    texts = trymysql(trymysql.text1.id==request.args(0)).select().first()\n    f = open(texts.filename, \'rb\')\n    content = f.readlines()\n    image = [all.url for all in d(d.pages.text==request.args(0)).select()]\n    return dict(texts=texts, content=content, image=image)\n\ndef show2(): # color the verbs\n    text = trymysql(trymysql.text1.id==483).select()[0]\n    words_numbers = [all.id for all in trymysql(trymysql.allword.title==text.id).select()]\n    f = open(text.filename, \'rb\')\n    content = f.readlines()\n    f.close()\n    var = trymysql(trymysql.variants.title==text.id).select(orderby=trymysql.variants.line)\n    words = [all.comment_text for all in var]\n    lines = [all.line for all in var]\n    #lines=[1,15]\n    return dict(text=text, content = content, words=words, lines=lines, var=var)\n\ndef show3(): #delete words\n    texts = trymysql(trymysql.text1.id==request.args(0)).select().first()\n    rows = trymysql(trymysql.allword.title==request.args(0)).select()\n    text_view = []\n    for row in rows:\n        text_view.append((row.lemma, row.id))\n    options = [OPTION(row.lemma, _value=row.id) for row in rows]\n    form=FORM(TABLE(TR("\xd0\x92\xd1\x8b\xd0\xb1\xd0\xb5\xd1\x80\xd0\xb8\xd1\x82\xd0\xb5 \xd1\x82\xd0\xb5\xd0\xba\xd1\x81\xd1\x82"),\n                    TR("\xd0\x9d\xd0\xb0\xd0\xbf\xd1\x80\xd0\xb8\xd0\xbc\xd0\xb5\xd1\x80, \xd1\x82\xd0\xb0\xd0\xba:",SELECT(*options, _name="first")),\n                    TR("",INPUT(_type="submit",_value="SUBMIT"))))\n    if form.accepts(request,session):\n        response.flash="form accepted"\n    return dict(text_view=text_view, form=form)\n\ndef show_variants(): # try to show xml\n    #texts = trymysql(trymysql.text1.id==481).select().first()\n    filename = "/home/concordance/web2py/applications/test/uploads/xml/4/481.xml"\n    x = open(filename, \'rb\').read()\n    root = ET.fromstring(x)\n    tree = ET.parse(x)\n    s = ET.tostring(tree, encoding=\'utf-8\', method=\'text\')\n\n\n\n    return dict(s=s)\n\nresponse._vars=response._caller(show_variants)\n'
p7
sS'snapshot'
p8
(dp9
S'exception'
p10
(dp11
S'__getslice__'
p12
S"<method-wrapper '__getslice__' of exceptions.IOError object>"
p13
sS'__str__'
p14
S"<method-wrapper '__str__' of exceptions.IOError object>"
p15
sS'__reduce__'
p16
S'<built-in method __reduce__ of exceptions.IOError object>'
p17
sS'__dict__'
p18
S'{}'
p19
sS'__sizeof__'
p20
S'<built-in method __sizeof__ of exceptions.IOError object>'
p21
sS'__init__'
p22
S"<method-wrapper '__init__' of exceptions.IOError object>"
p23
sS'__setattr__'
p24
S"<method-wrapper '__setattr__' of exceptions.IOError object>"
p25
sS'__reduce_ex__'
p26
S'<built-in method __reduce_ex__ of exceptions.IOError object>'
p27
sS'__new__'
p28
S'<built-in method __new__ of type object>'
p29
sS'errno'
p30
S'36'
p31
sS'__format__'
p32
S'<built-in method __format__ of exceptions.IOError object>'
p33
sS'__class__'
p34
S"<type 'exceptions.IOError'>"
p35
sS'filename'
p36
S'\'<?xml version="1.0" encoding="utf-8"?>\\n        <...      </stanza>\\n    </poem>\\n  </text>\\n</results>\\n\''
p37
sS'__doc__'
p38
S"'I/O operation failed.'"
p39
sS'__getitem__'
p40
S"<method-wrapper '__getitem__' of exceptions.IOError object>"
p41
sS'__setstate__'
p42
S'<built-in method __setstate__ of exceptions.IOError object>'
p43
sS'__getattribute__'
p44
S"<method-wrapper '__getattribute__' of exceptions.IOError object>"
p45
sS'args'
p46
S"(36, 'File name too long')"
p47
sS'__subclasshook__'
p48
S'<built-in method __subclasshook__ of type object>'
p49
sS'__unicode__'
p50
S'<built-in method __unicode__ of exceptions.IOError object>'
p51
sS'strerror'
p52
S"'File name too long'"
p53
sS'__delattr__'
p54
S"<method-wrapper '__delattr__' of exceptions.IOError object>"
p55
sS'__repr__'
p56
S"<method-wrapper '__repr__' of exceptions.IOError object>"
p57
sS'__hash__'
p58
S"<method-wrapper '__hash__' of exceptions.IOError object>"
p59
ssS'evalue'
p60
S'[Errno 36] File name too long: \'<?xml version="1.0" encoding="utf-8"?>\\n        <?xml-stylesheet type="text/xsl" href="style.xslt"?>\\n<results>\\n  <text>\\n    <info>\\n      <title>\\xd0\\x9d\\xd0\\xb0 \\xd0\\xb1\\xd0\\xbb\\xd0\\xb5\\xd0\\xb4\\xd0\\xbd\\xd0\\xbe-\\xd0\\xb3\\xd0\\xbe\\xd0\\xbb\\xd1\\x83\\xd0\\xb1\\xd0\\xbe\\xd0\\xb9 \\xd1\\x8d\\xd0\\xbc\\xd0\\xb0\\xd0\\xbb\\xd0\\xb8...</title>\\n      <name>\\xd0\\x9e\\xd1\\x81\\xd0\\xb8\\xd0\\xbf</name>\\n      <author>\\xd0\\x9c\\xd0\\xb0\\xd0\\xbd\\xd0\\xb4\\xd0\\xb5\\xd0\\xbb\\xd1\\x8c\\xd1\\x88\\xd1\\x82\\xd0\\xb0\\xd0\\xbc</author>\\n    </info>\\n    <poem>\\n      <stanza number="1">\\n        <line number="1">\\n          <word number="54563" pos="PREP">\\xd0\\x9d\\xd0\\xb0</word>\\n          <word number="54564" pos="ADVB">\\xd0\\xb1\\xd0\\xbb\\xd0\\xb5\\xd0\\xb4\\xd0\\xbd\\xd0\\xbe</word>\\n          <word number="54565" pos="PNCT">-</word>\\n          <word number="54566" pos="ADJF">\\xd0\\xb3\\xd0\\xbe\\xd0\\xbb\\xd1\\x83\\xd0\\xb1\\xd0\\xbe\\xd0\\xb9</word>\\n          <word number="54567" pos="NOUN">\\xd1\\x8d\\xd0\\xbc\\xd0\\xb0\\xd0\\xbb\\xd0\\xb8</word>\\n          <word number="54568" pos="PNCT">,</word>\\n        </line>\\n        <line number="2">\\n          <word number="54569" pos="ADJF">\\xd0\\x9a\\xd0\\xb0\\xd0\\xba\\xd0\\xb0\\xd1\\x8f</word>\\n          <word number="54570" pos="PRTS">\\xd0\\xbc\\xd1\\x8b\\xd1\\x81\\xd0\\xbb\\xd0\\xb8\\xd0\\xbc\\xd0\\xb0</word>\\n          <word number="54571" pos="PREP">\\xd0\\xb2</word>\\n          <word number="54572" pos="NOUN">\\xd0\\xb0\\xd0\\xbf\\xd1\\x80\\xd0\\xb5\\xd0\\xbb\\xd0\\xb5</word>\\n          <word number="54573" pos="PNCT">,</word>\\n        </line>\\n        <line number="3">\\n          <word number="54574" pos="NOUN">\\xd0\\x91\\xd0\\xb5\\xd1\\x80\\xd0\\xb5\\xd0\\xb7\\xd1\\x8b</word>\\n          <word number="54575" pos="NOUN">\\xd0\\xb2\\xd0\\xb5\\xd1\\x82\\xd0\\xb2\\xd0\\xb8</word>\\n          <word number="54576" pos="VERB">\\xd0\\xbf\\xd0\\xbe\\xd0\\xb4\\xd0\\xbd\\xd0\\xb8\\xd0\\xbc\\xd0\\xb0\\xd0\\xbb\\xd0\\xb8</word>\\n        </line>\\n        <line number="4">\\n          <word number="54577" pos="CONJ">\\xd0\\x98</word>\\n          <word number="54578" pos="ADVB">\\xd0\\xbd\\xd0\\xb5\\xd0\\xb7\\xd0\\xb0\\xd0\\xbc\\xd0\\xb5\\xd1\\x82\\xd0\\xbd\\xd0\\xbe</word>\\n          <word number="54579" pos="VERB">\\xd0\\xb2\\xd0\\xb5\\xd1\\x87\\xd0\\xb5\\xd1\\x80\\xd0\\xb5\\xd0\\xbb\\xd0\\xb8</word>\\n          <word number="54580" pos="PNCT">.</word>\\n        </line>\\n      </stanza>\\n      <stanza number="2">\\n        <line number="5">\\n          <word number="54581" pos="NOUN">\\xd0\\xa3\\xd0\\xb7\\xd0\\xbe\\xd1\\x80</word>\\n          <word number="54582" pos="PRTF">\\xd0\\xbe\\xd1\\x82\\xd1\\x82\\xd0\\xbe\\xd1\\x87\\xd0\\xb5\\xd0\\xbd\\xd0\\xbd\\xd1\\x8b\\xd0\\xb9</word>\\n          <word number="54583" pos="CONJ">\\xd0\\xb8</word>\\n          <word number="54584" pos="ADJF">\\xd0\\xbc\\xd0\\xb5\\xd0\\xbb\\xd0\\xba\\xd0\\xb8\\xd0\\xb9</word>\\n          <word number="54585" pos="PNCT">,</word>\\n        </line>\\n        <line number="6">\\n          <word number="54586" pos="VERB">\\xd0\\x97\\xd0\\xb0\\xd1\\x81\\xd1\\x82\\xd1\\x8b\\xd0\\xbb\\xd0\\xb0</word>\\n          <word number="54587" pos="ADJF">\\xd1\\x82\\xd0\\xbe\\xd0\\xbd\\xd0\\xb5\\xd0\\xbd\\xd1\\x8c\\xd0\\xba\\xd0\\xb0\\xd1\\x8f</word>\\n          <word number="54588" pos="NOUN">\\xd1\\x81\\xd0\\xb5\\xd1\\x82\\xd0\\xba\\xd0\\xb0</word>\\n          <word number="54589" pos="PNCT">,</word>\\n        </line>\\n        <line number="7">\\n          <word number="54590" pos="CONJ">\\xd0\\x9a\\xd0\\xb0\\xd0\\xba</word>\\n          <word number="54591" pos="PREP">\\xd0\\xbd\\xd0\\xb0</word>\\n          <word number="54592" pos="ADJF" variant="\\xd1\\x84\\xd0\\xb0\\xd1\\x8f\\xd0\\xbd\\xd1\\x81\\xd0\\xbe\\xd0\\xb2\\xd0\\xbe\\xd0\\xb9">\\xd1\\x84\\xd0\\xb0\\xd1\\x80\\xd1\\x84\\xd0\\xbe\\xd1\\x80\\xd0\\xbe\\xd0\\xb2\\xd0\\xbe\\xd0\\xb9</word>\\n          <word number="54593" pos="NOUN">\\xd1\\x82\\xd0\\xb0\\xd1\\x80\\xd0\\xb5\\xd0\\xbb\\xd0\\xba\\xd0\\xb5</word>\\n        </line>\\n        <line number="8">\\n          <word number="54594" pos="NOUN">\\xd0\\xa0\\xd0\\xb8\\xd1\\x81\\xd1\\x83\\xd0\\xbd\\xd0\\xbe\\xd0\\xba</word>\\n          <word number="54595" pos="PNCT">,</word>\\n          <word number="54596" pos="PRTF">\\xd0\\xb2\\xd1\\x8b\\xd1\\x87\\xd0\\xb5\\xd1\\x80\\xd1\\x87\\xd0\\xb5\\xd0\\xbd\\xd0\\xbd\\xd1\\x8b\\xd0\\xb9</word>\\n          <word number="54597" pos="ADVB">\\xd0\\xbc\\xd0\\xb5\\xd1\\x82\\xd0\\xba\\xd0\\xbe</word>\\n          <word number="54598" pos="PNCT">,</word>\\n          <word number="54599" pos="PNCT">\\xe2\\x80\\x94</word>\\n        </line>\\n      </stanza>\\n      <stanza number="3">\\n        <line number="9">\\n          <word number="54600" pos="CONJ">\\xd0\\x9a\\xd0\\xbe\\xd0\\xb3\\xd0\\xb4\\xd0\\xb0</word>\\n          <word number="54601" pos="NPRO">\\xd0\\xb5\\xd0\\xb3\\xd0\\xbe</word>\\n          <word number="54602" pos="NOUN">\\xd1\\x85\\xd1\\x83\\xd0\\xb4\\xd0\\xbe\\xd0\\xb6\\xd0\\xbd\\xd0\\xb8\\xd0\\xba</word>\\n          <word number="54603" pos="ADJF">\\xd0\\xbc\\xd0\\xb8\\xd0\\xbb\\xd1\\x8b\\xd0\\xb9</word>\\n        </line>\\n        <line number="10">\\n          <word number="54604" pos="VERB">\\xd0\\x92\\xd1\\x8b\\xd0\\xb2\\xd0\\xbe\\xd0\\xb4\\xd0\\xb8\\xd1\\x82</word>\\n          <word number="54605" pos="PREP">\\xd0\\xbd\\xd0\\xb0</word>\\n          <word number="54606" pos="ADJF">\\xd1\\x81\\xd1\\x82\\xd0\\xb5\\xd0\\xba\\xd0\\xbb\\xd1\\x8f\\xd0\\xbd\\xd0\\xbd\\xd0\\xbe\\xd0\\xb9</word>\\n          <word number="54607" pos="NOUN">\\xd1\\x82\\xd0\\xb2\\xd0\\xb5\\xd1\\x80\\xd0\\xb4\\xd0\\xb8</word>\\n          <word number="54608" pos="PNCT">,</word>\\n        </line>\\n        <line number="11">\\n          <word number="54609" pos="PREP">\\xd0\\x92</word>\\n          <word number="54610" pos="NOUN">\\xd1\\x81\\xd0\\xbe\\xd0\\xb7\\xd0\\xbd\\xd0\\xb0\\xd0\\xbd\\xd0\\xb8\\xd0\\xb8</word>\\n          <word number="54611" pos="ADJF">\\xd0\\xbc\\xd0\\xb8\\xd0\\xbd\\xd1\\x83\\xd1\\x82\\xd0\\xbd\\xd0\\xbe\\xd0\\xb9</word>\\n          <word number="54612" pos="NOUN">\\xd1\\x81\\xd0\\xb8\\xd0\\xbb\\xd1\\x8b</word>\\n          <word number="54613" pos="PNCT">,</word>\\n        </line>\\n        <line number="12">\\n          <word number="54614" pos="PREP">\\xd0\\x92</word>\\n          <word number="54615" pos="NOUN">\\xd0\\xb7\\xd0\\xb0\\xd0\\xb1\\xd0\\xb2\\xd0\\xb5\\xd0\\xbd\\xd0\\xb8\\xd0\\xb8</word>\\n          <word number="54616" pos="ADJF">\\xd0\\xbf\\xd0\\xb5\\xd1\\x87\\xd0\\xb0\\xd0\\xbb\\xd1\\x8c\\xd0\\xbd\\xd0\\xbe\\xd0\\xb9</word>\\n          <word number="54617" pos="NOUN">\\xd1\\x81\\xd0\\xbc\\xd0\\xb5\\xd1\\x80\\xd1\\x82\\xd0\\xb8</word>\\n          <word number="54618" pos="PNCT">.</word>\\n        </line>\\n      </stanza>\\n    </poem>\\n  </text>\\n</results>\\n\''
p61
sS'request'
p62
cgluon.html
XML_unpickle
p63
(S'syS\x00\x00<div><table><tr><td style="font-weight:bold;vertical-align:top;">ajax</td><td style="vertical-align:top;">:</td><td><div>False</div></td></tr><tr><td style="font-weight:bold;vertical-align:top;">application</td><td style="vertical-align:top;">:</td><td><div>test</div></td></tr><tr><td style="font-weight:bold;vertical-align:top;">args</td><td style="vertical-align:top;">:</td><td><div><table></table></div></td></tr><tr><td style="font-weight:bold;vertical-align:top;">cid</td><td style="vertical-align:top;">:</td><td><div>None</div></td></tr><tr><td style="font-weight:bold;vertical-align:top;">client</td><td style="vertical-align:top;">:</td><td><div>217.118.78.84</div></td></tr><tr><td style="font-weight:bold;vertical-align:top;">controller</td><td style="vertical-align:top;">:</td><td><div>show</div></td></tr><tr><td style="font-weight:bold;vertical-align:top;">cookies</td><td style="vertical-align:top;">:</td><td><div><table><tr><td style="font-weight:bold;vertical-align:top;">session_id_admin</td><td style="vertical-align:top;">:</td><td><div>46.101.16.229-66ba3a19-410e-462f-b6b9-57f04f1b0572<table><tr><td style="font-weight:bold;vertical-align:top;">comment</td><td style="vertical-align:top;">:</td><td><div></div></td></tr><tr><td style="font-weight:bold;vertical-align:top;">domain</td><td style="vertical-align:top;">:</td><td><div></div></td></tr><tr><td style="font-weight:bold;vertical-align:top;">expires</td><td style="vertical-align:top;">:</td><td><div></div></td></tr><tr><td style="font-weight:bold;vertical-align:top;">httponly</td><td style="vertical-align:top;">:</td><td><div></div></td></tr><tr><td style="font-weight:bold;vertical-align:top;">max-age</td><td style="vertical-align:top;">:</td><td><div></div></td></tr><tr><td style="font-weight:bold;vertical-align:top;">path</td><td style="vertical-align:top;">:</td><td><div></div></td></tr><tr><td style="font-weight:bold;vertical-align:top;">secure</td><td style="vertical-align:top;">:</td><td><div></div></td></tr><tr><td style="font-weight:bold;vertical-align:top;">version</td><td style="vertical-align:top;">:</td><td><div></div></td></tr></table></div></td></tr><tr><td style="font-weight:bold;vertical-align:top;">session_id_test</td><td style="vertical-align:top;">:</td><td><div>217.118.78.84-af7ac002-84a3-4ec7-b952-0cf6d8838678<table><tr><td style="font-weight:bold;vertical-align:top;">comment</td><td style="vertical-align:top;">:</td><td><div></div></td></tr><tr><td style="font-weight:bold;vertical-align:top;">domain</td><td style="vertical-align:top;">:</td><td><div></div></td></tr><tr><td style="font-weight:bold;vertical-align:top;">expires</td><td style="vertical-align:top;">:</td><td><div></div></td></tr><tr><td style="font-weight:bold;vertical-align:top;">httponly</td><td style="vertical-align:top;">:</td><td><div></div></td></tr><tr><td style="font-weight:bold;vertical-align:top;">max-age</td><td style="vertical-align:top;">:</td><td><div></div></td></tr><tr><td style="font-weight:bold;vertical-align:top;">path</td><td style="vertical-align:top;">:</td><td><div></div></td></tr><tr><td style="font-weight:bold;vertical-align:top;">secure</td><td style="vertical-align:top;">:</td><td><div></div></td></tr><tr><td style="font-weight:bold;vertical-align:top;">version</td><td style="vertical-align:top;">:</td><td><div></div></td></tr></table></div></td></tr></table></div></td></tr><tr><td style="font-weight:bold;vertical-align:top;">env</td><td style="vertical-align:top;">:</td><td><div><table><tr><td style="font-weight:bold;vertical-align:top;">CONTENT_LENGTH</td><td style="vertical-align:top;">:</td><td><div></div></td></tr><tr><td style="font-weight:bold;vertical-align:top;">CONTENT_TYPE</td><td style="vertical-align:top;">:</td><td><div></div></td></tr><tr><td style="font-weight:bold;vertical-align:top;">DOCUMENT_ROOT</td><td style="vertical-align:top;">:</td><td><div>/usr/local/openresty/nginx/html</div></td></tr><tr><td style="font-weight:bold;vertical-align:top;">HTTPS</td><td style="vertical-align:top;">:</td><td><div>on</div></td></tr><tr><td style="font-weight:bold;vertical-align:top;">HTTP_ACCEPT</td><td style="vertical-align:top;">:</td><td><div>text/html,application/xhtml+xml,application/xml;q=0.9,image/webp,*/*;q=0.8</div></td></tr><tr><td style="font-weight:bold;vertical-align:top;">HTTP_ACCEPT_ENCODING</td><td style="vertical-align:top;">:</td><td><div>gzip, deflate, sdch, br</div></td></tr><tr><td style="font-weight:bold;vertical-align:top;">HTTP_ACCEPT_LANGUAGE</td><td style="vertical-align:top;">:</td><td><div>ru,en;q=0.8,en-US;q=0.6</div></td></tr><tr><td style="font-weight:bold;vertical-align:top;">HTTP_CACHE_CONTROL</td><td style="vertical-align:top;">:</td><td><div>max-age=0</div></td></tr><tr><td style="font-weight:bold;vertical-align:top;">HTTP_CONNECTION</td><td style="vertical-align:top;">:</td><td><div>close</div></td></tr><tr><td style="font-weight:bold;vertical-align:top;">HTTP_COOKIE</td><td style="vertical-align:top;">:</td><td><div>_ga=GA1.2.2009921225.1482865438; __utmt=1; session_id_test=217.118.78.84-af7ac002-84a3-4ec7-b952-0cf6d8838678; __utma=134993891.2009921225.1482865438.1484682179.1484702379.26; __utmb=134993891.92.10.1484702379; __utmc=134993891; __utmz=134993891.1484355529.1.1.utmcsr=(direct)|utmccn=(direct)|utmcmd=(none); session_id_admin=46.101.16.229-66ba3a19-410e-462f-b6b9-57f04f1b0572</div></td></tr><tr><td style="font-weight:bold;vertical-align:top;">HTTP_HOST</td><td style="vertical-align:top;">:</td><td><div>concordance.pythonanywhere.com</div></td></tr><tr><td style="font-weight:bold;vertical-align:top;">HTTP_UPGRADE_INSECURE_REQUESTS</td><td style="vertical-align:top;">:</td><td><div>1</div></td></tr><tr><td style="font-weight:bold;vertical-align:top;">HTTP_USER_AGENT</td><td style="vertical-align:top;">:</td><td><div>Mozilla/5.0 (Windows NT 10.0; WOW64) AppleWebKit/537.36 (KHTML, like Gecko) Chrome/55.0.2883.87 Safari/537.36</div></td></tr><tr><td style="font-weight:bold;vertical-align:top;">HTTP_X_FORWARDED_FOR</td><td style="vertical-align:top;">:</td><td><div>217.118.78.84</div></td></tr><tr><td style="font-weight:bold;vertical-align:top;">HTTP_X_REAL_IP</td><td style="vertical-align:top;">:</td><td><div>217.118.78.84</div></td></tr><tr><td style="font-weight:bold;vertical-align:top;">PATH_INFO</td><td style="vertical-align:top;">:</td><td><div>/test/show/show_variants</div></td></tr><tr><td style="font-weight:bold;vertical-align:top;">QUERY_STRING</td><td style="vertical-align:top;">:</td><td><div></div></td></tr><tr><td style="font-weight:bold;vertical-align:top;">REMOTE_ADDR</td><td style="vertical-align:top;">:</td><td><div>10.0.0.236</div></td></tr><tr><td style="font-weight:bold;vertical-align:top;">REMOTE_PORT</td><td style="vertical-align:top;">:</td><td><div>55963</div></td></tr><tr><td style="font-weight:bold;vertical-align:top;">REQUEST_METHOD</td><td style="vertical-align:top;">:</td><td><div>GET</div></td></tr><tr><td style="font-weight:bold;vertical-align:top;">REQUEST_URI</td><td style="vertical-align:top;">:</td><td><div>/test/show/show_variants</div></td></tr><tr><td style="font-weight:bold;vertical-align:top;">SCRIPT_NAME</td><td style="vertical-align:top;">:</td><td><div></div></td></tr><tr><td style="font-weight:bold;vertical-align:top;">SERVER_NAME</td><td style="vertical-align:top;">:</td><td><div>concordance.pythonanywhere.com</div></td></tr><tr><td style="font-weight:bold;vertical-align:top;">SERVER_PORT</td><td style="vertical-align:top;">:</td><td><div>443</div></td></tr><tr><td style="font-weight:bold;vertical-align:top;">SERVER_PROTOCOL</td><td style="vertical-align:top;">:</td><td><div>HTTP/1.1</div></td></tr><tr><td style="font-weight:bold;vertical-align:top;">app_folders</td><td style="vertical-align:top;">:</td><td><div>set([&#x27;/home/concordance/web2py/applications/admin/&#x27;, &#x27;/home/concordance/web2py/applications/test/&#x27;])</div></td></tr><tr><td style="font-weight:bold;vertical-align:top;">applications_parent</td><td style="vertical-align:top;">:</td><td><div>/home/concordance/web2py</div></td></tr><tr><td style="font-weight:bold;vertical-align:top;">content_length</td><td style="vertical-align:top;">:</td><td><div></div></td></tr><tr><td style="font-weight:bold;vertical-align:top;">content_type</td><td style="vertical-align:top;">:</td><td><div></div></td></tr><tr><td style="font-weight:bold;vertical-align:top;">db_sessions</td><td style="vertical-align:top;">:</td><td><div>set([])</div></td></tr><tr><td style="font-weight:bold;vertical-align:top;">debugging</td><td style="vertical-align:top;">:</td><td><div>True</div></td></tr><tr><td style="font-weight:bold;vertical-align:top;">document_root</td><td style="vertical-align:top;">:</td><td><div>/usr/local/openresty/nginx/html</div></td></tr><tr><td style="font-weight:bold;vertical-align:top;">gluon_parent</td><td style="vertical-align:top;">:</td><td><div>/home/concordance/web2py</div></td></tr><tr><td style="font-weight:bold;vertical-align:top;">http_accept</td><td style="vertical-align:top;">:</td><td><div>text/html,application/xhtml+xml,application/xml;q=0.9,image/webp,*/*;q=0.8</div></td></tr><tr><td style="font-weight:bold;vertical-align:top;">http_accept_encoding</td><td style="vertical-align:top;">:</td><td><div>gzip, deflate, sdch, br</div></td></tr><tr><td style="font-weight:bold;vertical-align:top;">http_accept_language</td><td style="vertical-align:top;">:</td><td><div>ru,en;q=0.8,en-US;q=0.6</div></td></tr><tr><td style="font-weight:bold;vertical-align:top;">http_cache_control</td><td style="vertical-align:top;">:</td><td><div>max-age=0</div></td></tr><tr><td style="font-weight:bold;vertical-align:top;">http_connection</td><td style="vertical-align:top;">:</td><td><div>close</div></td></tr><tr><td style="font-weight:bold;vertical-align:top;">http_cookie</td><td style="vertical-align:top;">:</td><td><div>_ga=GA1.2.2009921225.1482865438; __utmt=1; session_id_test=217.118.78.84-af7ac002-84a3-4ec7-b952-0cf6d8838678; __utma=134993891.2009921225.1482865438.1484682179.1484702379.26; __utmb=134993891.92.10.1484702379; __utmc=134993891; __utmz=134993891.1484355529.1.1.utmcsr=(direct)|utmccn=(direct)|utmcmd=(none); session_id_admin=46.101.16.229-66ba3a19-410e-462f-b6b9-57f04f1b0572</div></td></tr><tr><td style="font-weight:bold;vertical-align:top;">http_host</td><td style="vertical-align:top;">:</td><td><div>concordance.pythonanywhere.com</div></td></tr><tr><td style="font-weight:bold;vertical-align:top;">http_upgrade_insecure_requests</td><td style="vertical-align:top;">:</td><td><div>1</div></td></tr><tr><td style="font-weight:bold;vertical-align:top;">http_user_agent</td><td style="vertical-align:top;">:</td><td><div>Mozilla/5.0 (Windows NT 10.0; WOW64) AppleWebKit/537.36 (KHTML, like Gecko) Chrome/55.0.2883.87 Safari/537.36</div></td></tr><tr><td style="font-weight:bold;vertical-align:top;">http_x_forwarded_for</td><td style="vertical-align:top;">:</td><td><div>217.118.78.84</div></td></tr><tr><td style="font-weight:bold;vertical-align:top;">http_x_real_ip</td><td style="vertical-align:top;">:</td><td><div>217.118.78.84</div></td></tr><tr><td style="font-weight:bold;vertical-align:top;">https</td><td style="vertical-align:top;">:</td><td><div>on</div></td></tr><tr><td style="font-weight:bold;vertical-align:top;">is_jython</td><td style="vertical-align:top;">:</td><td><div>False</div></td></tr><tr><td style="font-weight:bold;vertical-align:top;">is_pypy</td><td style="vertical-align:top;">:</td><td><div>False</div></td></tr><tr><td style="font-weight:bold;vertical-align:top;">is_source</td><td style="vertical-align:top;">:</td><td><div>True</div></td></tr><tr><td style="font-weight:bold;vertical-align:top;">local_hosts</td><td style="vertical-align:top;">:</td><td><div><table><tr><td><div>::ffff:127.0.0.1</div></td></tr><tr><td><div>::1</div></td></tr><tr><td><div>giles-liveweb6</div></td></tr><tr><td><div>50.19.109.98</div></td></tr><tr><td><div>127.0.0.1</div></td></tr><tr><td><div>concordance.pythonanywhere.com</div></td></tr><tr><td><div>localhost</div></td></tr></table></div></td></tr><tr><td style="font-weight:bold;vertical-align:top;">path_info</td><td style="vertical-align:top;">:</td><td><div>/test/show/show_variants</div></td></tr><tr><td style="font-weight:bold;vertical-align:top;">query_string</td><td style="vertical-align:top;">:</td><td><div></div></td></tr><tr><td style="font-weight:bold;vertical-align:top;">remote_addr</td><td style="vertical-align:top;">:</td><td><div>10.0.0.236</div></td></tr><tr><td style="font-weight:bold;vertical-align:top;">remote_port</td><td style="vertical-align:top;">:</td><td><div>55963</div></td></tr><tr><td style="font-weight:bold;vertical-align:top;">request_method</td><td style="vertical-align:top;">:</td><td><div>GET</div></td></tr><tr><td style="font-weight:bold;vertical-align:top;">request_uri</td><td style="vertical-align:top;">:</td><td><div>/test/show/show_variants</div></td></tr><tr><td style="font-weight:bold;vertical-align:top;">script_name</td><td style="vertical-align:top;">:</td><td><div></div></td></tr><tr><td style="font-weight:bold;vertical-align:top;">server_name</td><td style="vertical-align:top;">:</td><td><div>concordance.pythonanywhere.com</div></td></tr><tr><td style="font-weight:bold;vertical-align:top;">server_port</td><td style="vertical-align:top;">:</td><td><div>443</div></td></tr><tr><td style="font-weight:bold;vertical-align:top;">server_protocol</td><td style="vertical-align:top;">:</td><td><div>HTTP/1.1</div></td></tr><tr><td style="font-weight:bold;vertical-align:top;">uwsgi.node</td><td style="vertical-align:top;">:</td><td><div>giles-liveweb6</div></td></tr><tr><td style="font-weight:bold;vertical-align:top;">uwsgi.version</td><td style="vertical-align:top;">:</td><td><div>2.0.5.1</div></td></tr><tr><td style="font-weight:bold;vertical-align:top;">uwsgi_node</td><td style="vertical-align:top;">:</td><td><div>giles-liveweb6</div></td></tr><tr><td style="font-weight:bold;vertical-align:top;">uwsgi_version</td><td style="vertical-align:top;">:</td><td><div>2.0.5.1</div></td></tr><tr><td style="font-weight:bold;vertical-align:top;">web2py_original_uri</td><td style="vertical-align:top;">:</td><td><div>/test/show/show_variants</div></td></tr><tr><td style="font-weight:bold;vertical-align:top;">web2py_path</td><td style="vertical-align:top;">:</td><td><div>/home/concordance/web2py</div></td></tr><tr><td style="font-weight:bold;vertical-align:top;">web2py_version</td><td style="vertical-align:top;">:</td><td><div>2.9.5-stable+timestamp.2014.03.16.02.35.39</div></td></tr><tr><td style="font-weight:bold;vertical-align:top;">wsgi.errors</td><td style="vertical-align:top;">:</td><td><div>&lt;uwsgi_file__bin_user_wsgi_wrapper.ErrorLogFile object at 0x7f2718531150&gt;</div></td></tr><tr><td style="font-weight:bold;vertical-align:top;">wsgi.file_wrapper</td><td style="vertical-align:top;">:</td><td><div>&lt;built-in function uwsgi_sendfile&gt;</div></td></tr><tr><td style="font-weight:bold;vertical-align:top;">wsgi.input</td><td style="vertical-align:top;">:</td><td><div>&lt;uwsgi._Input object at 0x7f2711a94618&gt;</div></td></tr><tr><td style="font-weight:bold;vertical-align:top;">wsgi.multiprocess</td><td style="vertical-align:top;">:</td><td><div>True</div></td></tr><tr><td style="font-weight:bold;vertical-align:top;">wsgi.multithread</td><td style="vertical-align:top;">:</td><td><div>False</div></td></tr><tr><td style="font-weight:bold;vertical-align:top;">wsgi.run_once</td><td style="vertical-align:top;">:</td><td><div>False</div></td></tr><tr><td style="font-weight:bold;vertical-align:top;">wsgi.url_scheme</td><td style="vertical-align:top;">:</td><td><div>https</div></td></tr><tr><td style="font-weight:bold;vertical-align:top;">wsgi.version</td><td style="vertical-align:top;">:</td><td><div><table><tr><td><div>1</div></td></tr><tr><td><div>0</div></td></tr></table></div></td></tr><tr><td style="font-weight:bold;vertical-align:top;">wsgi_errors</td><td style="vertical-align:top;">:</td><td><div>&lt;uwsgi_file__bin_user_wsgi_wrapper.ErrorLogFile object at 0x7f2718531150&gt;</div></td></tr><tr><td style="font-weight:bold;vertical-align:top;">wsgi_file_wrapper</td><td style="vertical-align:top;">:</td><td><div>&lt;built-in function uwsgi_sendfile&gt;</div></td></tr><tr><td style="font-weight:bold;vertical-align:top;">wsgi_input</td><td style="vertical-align:top;">:</td><td><div>&lt;uwsgi._Input object at 0x7f2711a94618&gt;</div></td></tr><tr><td style="font-weight:bold;vertical-align:top;">wsgi_multiprocess</td><td style="vertical-align:top;">:</td><td><div>True</div></td></tr><tr><td style="font-weight:bold;vertical-align:top;">wsgi_multithread</td><td style="vertical-align:top;">:</td><td><div>False</div></td></tr><tr><td style="font-weight:bold;vertical-align:top;">wsgi_run_once</td><td style="vertical-align:top;">:</td><td><div>False</div></td></tr><tr><td style="font-weight:bold;vertical-align:top;">wsgi_url_scheme</td><td style="vertical-align:top;">:</td><td><div>https</div></td></tr><tr><td style="font-weight:bold;vertical-align:top;">wsgi_version</td><td style="vertical-align:top;">:</td><td><div><table><tr><td><div>1</div></td></tr><tr><td><div>0</div></td></tr></table></div></td></tr></table></div></td></tr><tr><td style="font-weight:bold;vertical-align:top;">extension</td><td style="vertical-align:top;">:</td><td><div>html</div></td></tr><tr><td style="font-weight:bold;vertical-align:top;">folder</td><td style="vertical-align:top;">:</td><td><div>/home/concordance/web2py/applications/test/</div></td></tr><tr><td style="font-weight:bold;vertical-align:top;">function</td><td style="vertical-align:top;">:</td><td><div>show_variants</div></td></tr><tr><td style="font-weight:bold;vertical-align:top;">global_settings</td><td style="vertical-align:top;">:</td><td><div><table><tr><td style="font-weight:bold;vertical-align:top;">app_folders</td><td style="vertical-align:top;">:</td><td><div>set([&#x27;/home/concordance/web2py/applications/admin/&#x27;, &#x27;/home/concordance/web2py/applications/test/&#x27;])</div></td></tr><tr><td style="font-weight:bold;vertical-align:top;">applications_parent</td><td style="vertical-align:top;">:</td><td><div>/home/concordance/web2py</div></td></tr><tr><td style="font-weight:bold;vertical-align:top;">db_sessions</td><td style="vertical-align:top;">:</td><td><div>set([])</div></td></tr><tr><td style="font-weight:bold;vertical-align:top;">debugging</td><td style="vertical-align:top;">:</td><td><div>True</div></td></tr><tr><td style="font-weight:bold;vertical-align:top;">gluon_parent</td><td style="vertical-align:top;">:</td><td><div>/home/concordance/web2py</div></td></tr><tr><td style="font-weight:bold;vertical-align:top;">is_jython</td><td style="vertical-align:top;">:</td><td><div>False</div></td></tr><tr><td style="font-weight:bold;vertical-align:top;">is_pypy</td><td style="vertical-align:top;">:</td><td><div>False</div></td></tr><tr><td style="font-weight:bold;vertical-align:top;">is_source</td><td style="vertical-align:top;">:</td><td><div>True</div></td></tr><tr><td style="font-weight:bold;vertical-align:top;">local_hosts</td><td style="vertical-align:top;">:</td><td><div><table><tr><td><div>::ffff:127.0.0.1</div></td></tr><tr><td><div>::1</div></td></tr><tr><td><div>giles-liveweb6</div></td></tr><tr><td><div>50.19.109.98</div></td></tr><tr><td><div>127.0.0.1</div></td></tr><tr><td><div>concordance.pythonanywhere.com</div></td></tr><tr><td><div>localhost</div></td></tr></table></div></td></tr><tr><td style="font-weight:bold;vertical-align:top;">web2py_version</td><td style="vertical-align:top;">:</td><td><div>2.9.5-stable+timestamp.2014.03.16.02.35.39</div></td></tr></table></div></td></tr><tr><td style="font-weight:bold;vertical-align:top;">is_https</td><td style="vertical-align:top;">:</td><td><div>True</div></td></tr><tr><td style="font-weight:bold;vertical-align:top;">is_local</td><td style="vertical-align:top;">:</td><td><div>False</div></td></tr><tr><td style="font-weight:bold;vertical-align:top;">is_restful</td><td style="vertical-align:top;">:</td><td><div>False</div></td></tr><tr><td style="font-weight:bold;vertical-align:top;">now</td><td style="vertical-align:top;">:</td><td><div>datetime.datetime(2017, 1, 18, 3, 55, 26, 894202)</div></td></tr><tr><td style="font-weight:bold;vertical-align:top;">raw_args</td><td style="vertical-align:top;">:</td><td><div></div></td></tr><tr><td style="font-weight:bold;vertical-align:top;">raw_extension</td><td style="vertical-align:top;">:</td><td><div>None</div></td></tr><tr><td style="font-weight:bold;vertical-align:top;">url</td><td style="vertical-align:top;">:</td><td><div>/test/show/show_variants</div></td></tr><tr><td style="font-weight:bold;vertical-align:top;">utcnow</td><td style="vertical-align:top;">:</td><td><div>datetime.datetime(2017, 1, 18, 3, 55, 26, 894218)</div></td></tr><tr><td style="font-weight:bold;vertical-align:top;">uuid</td><td style="vertical-align:top;">:</td><td><div>test/217.118.78.84.2017-01-18.03-55-26.b4883af9-4089-49a7-8773-9657a6a51590</div></td></tr><tr><td style="font-weight:bold;vertical-align:top;">wsgi</td><td style="vertical-align:top;">:</td><td><div>&lt;gluon.main.LazyWSGI object at 0x7f26fa3fbd50&gt;</div></td></tr></table></div>'
tRp64
sS'frames'
p65
(lp66
(dp67
S'file'
p68
S'/home/concordance/web2py/gluon/restricted.py'
p69
sS'dump'
p70
(dp71
S'environment'
p72
S"{'A': <class 'gluon.html.A'>, 'ANY_OF': <class 'gluon.validators.ANY_OF'>, 'Auth': <class 'gluon.tools.Auth'>, 'B': <class 'gluon.html.B'>, 'BEAUTIFY': <class 'gluon.html.BEAUTIFY'>, 'BODY': <class 'gluon.html.BODY'>, 'BR': <class 'gluon.html.BR'>, 'BUTTON': <class 'gluon.html.BUTTON'>, 'CAT': <class 'gluon.html.CAT'>, 'CENTER': <class 'gluon.html.CENTER'>, ...}"
p73
sS'ccode'
p74
S'<code object <module> at 0x7f26fa8f3db0, file "/...y/applications/test/controllers/show.py", line 3>'
p75
ssS'lnum'
p76
I220
sS'lines'
p77
(dp78
I224
S'        # do not encapsulate (obfuscate) the original RestrictedError'
p79
sI215
S'    try:'
p80
sI216
S'        if isinstance(code, types.CodeType):'
p81
sI217
S'            ccode = code'
p82
sI218
S'        else:'
p83
sI219
S'            ccode = compile2(code, layer)'
p84
sI220
S'        exec ccode in environment'
p85
sI221
S'    except HTTP:'
p86
sI222
S'        raise'
p87
sI223
S'    except RestrictedError:'
p88
ssS'call'
p89
S"(code='# coding: utf8\\n# \\xd0\\xbf\\xd0\\xbe\\xd0\\xbf\\xd1\\x80\\xd0\\xbe\\xd0\\xb1\\xd0\\xbe\\xd0\\xb2\\xd0\\xb0\\xd1\\x82\\xd1\\x8c \\xd1\\x87\\xd1\\x82\\xd0\\xbe-\\xd0...\\n\\nresponse._vars=response._caller(show_variants)\\n', environment={'A': <class 'gluon.html.A'>, 'ANY_OF': <class 'gluon.validators.ANY_OF'>, 'Auth': <class 'gluon.tools.Auth'>, 'B': <class 'gluon.html.B'>, 'BEAUTIFY': <class 'gluon.html.BEAUTIFY'>, 'BODY': <class 'gluon.html.BODY'>, 'BR': <class 'gluon.html.BR'>, 'BUTTON': <class 'gluon.html.BUTTON'>, 'CAT': <class 'gluon.html.CAT'>, 'CENTER': <class 'gluon.html.CENTER'>, ...}, layer='/home/concordance/web2py/applications/test/controllers/show.py')"
p90
sS'func'
p91
S'restricted'
p92
sa(dp93
g68
S'/home/concordance/web2py/applications/test/controllers/show.py'
p94
sg70
(dp95
sg76
I50
sg77
(dp96
I39
S'    #texts = trymysql(trymysql.text1.id==481).select().first()'
p97
sI40
S'    filename = "/home/concordance/web2py/applications/test/uploads/xml/4/481.xml"'
p98
sI41
S"    x = open(filename, 'rb').read()"
p99
sI42
S'    root = ET.fromstring(x)'
p100
sI43
S'    tree = ET.parse(x)'
p101
sI44
S"    s = ET.tostring(tree, encoding='utf-8', method='text')"
p102
sI45
S''
sI46
S''
sI47
S''
sI48
S'    return dict(s=s)'
p103
ssg89
S'()'
p104
sg91
S'<module>'
p105
sa(dp106
g68
S'/home/concordance/web2py/gluon/globals.py'
p107
sg70
(dp108
S'self'
p109
S'undefined'
p110
sS'f'
S'<function show_variants>'
p111
ssg76
I385
sg77
(dp112
I384
S'        self._vars = None'
p113
sI385
S'        self._caller = lambda f: f()'
p114
sI386
S'        self._view_environment = None'
p115
sI387
S'        self._custom_commit = None'
p116
sI388
S'        self._custom_rollback = None'
p117
sI389
S''
sI380
S'        self.menu = []             # used by the default view layout'
p118
sI381
S'        self.files = []            # used by web2py_ajax.html'
p119
sI382
S'        self.generic_patterns = []  # patterns to allow generic views'
p120
sI383
S"        self.delimiters = ('{{', '}}')"
p121
ssg89
S'(f=<function show_variants>)'
p122
sg91
S'<lambda>'
p123
sa(dp124
g68
S'/home/concordance/web2py/applications/test/controllers/show.py'
p125
sg70
(dp126
S'ET.parse'
p127
S'<function parse>'
p128
sS'tree'
p129
g110
sS'global ET'
p130
S"<module 'xml.etree.cElementTree' from '/usr/lib/python2.7/xml/etree/cElementTree.pyc'>"
p131
sS'x'
S'\'<?xml version="1.0" encoding="utf-8"?>\\n        <...      </stanza>\\n    </poem>\\n  </text>\\n</results>\\n\''
p132
ssg76
I43
sg77
(dp133
I38
S'def show_variants(): # try to show xml'
p134
sI39
S'    #texts = trymysql(trymysql.text1.id==481).select().first()'
p135
sI40
S'    filename = "/home/concordance/web2py/applications/test/uploads/xml/4/481.xml"'
p136
sI41
S"    x = open(filename, 'rb').read()"
p137
sI42
S'    root = ET.fromstring(x)'
p138
sI43
S'    tree = ET.parse(x)'
p139
sI44
S"    s = ET.tostring(tree, encoding='utf-8', method='text')"
p140
sI45
S''
sI46
S''
sI47
S''
ssg89
S'()'
p141
sg91
S'show_variants'
p142
sa(dp143
g68
S'/home/concordance/web2py/<string>'
p144
sg70
(dp145
sg76
I62
sg77
(dp146
sg89
S'(source=\'<?xml version="1.0" encoding="utf-8"?>\\n        <...      </stanza>\\n    </poem>\\n  </text>\\n</results>\\n\', parser=None)'
p147
sg91
S'parse'
p148
sa(dp149
g68
S'/home/concordance/web2py/<string>'
p150
sg70
(dp151
sg76
I26
sg77
(dp152
sg89
S'(self=<ElementTree object>, source=\'<?xml version="1.0" encoding="utf-8"?>\\n        <...      </stanza>\\n    </poem>\\n  </text>\\n</results>\\n\', parser=None)'
p153
sg91
g148
sasS'pyver'
p154
S'Python 2.7.6: /usr/local/bin/uwsgi (prefix: /usr)'
p155
sS'session'
p156
g63
(S's\xc1\x01\x00\x00<div><table><tr><td style="font-weight:bold;vertical-align:top;">flash</td><td style="vertical-align:top;">:</td><td><div>None</div></td></tr><tr><td style="font-weight:bold;vertical-align:top;">last_orderby</td><td style="vertical-align:top;">:</td><td><div>None</div></td></tr><tr><td style="font-weight:bold;vertical-align:top;">last_query</td><td style="vertical-align:top;">:</td><td><div>trymysql.variants.id&gt;0</div></td></tr></table></div>'
tRp157
sS'etype'
p158
S"<type 'exceptions.IOError'>"
p159
sS'date'
p160
S'Wed Jan 18 03:55:27 2017'
p161
sS'response'
p162
g63
(S's\x86\x1e\x00\x00<div><table><tr><td style="font-weight:bold;vertical-align:top;">body</td><td style="vertical-align:top;">:</td><td><div>&lt;cStringIO.StringO object at 0x7f26fac1edf8&gt;</div></td></tr><tr><td style="font-weight:bold;vertical-align:top;">cookies</td><td style="vertical-align:top;">:</td><td><div><table><tr><td style="font-weight:bold;vertical-align:top;">session_id_test</td><td style="vertical-align:top;">:</td><td><div>217.118.78.84-af7ac002-84a3-4ec7-b952-0cf6d8838678<table><tr><td style="font-weight:bold;vertical-align:top;">comment</td><td style="vertical-align:top;">:</td><td><div></div></td></tr><tr><td style="font-weight:bold;vertical-align:top;">domain</td><td style="vertical-align:top;">:</td><td><div></div></td></tr><tr><td style="font-weight:bold;vertical-align:top;">expires</td><td style="vertical-align:top;">:</td><td><div></div></td></tr><tr><td style="font-weight:bold;vertical-align:top;">httponly</td><td style="vertical-align:top;">:</td><td><div></div></td></tr><tr><td style="font-weight:bold;vertical-align:top;">max-age</td><td style="vertical-align:top;">:</td><td><div></div></td></tr><tr><td style="font-weight:bold;vertical-align:top;">path</td><td style="vertical-align:top;">:</td><td><div>/</div></td></tr><tr><td style="font-weight:bold;vertical-align:top;">secure</td><td style="vertical-align:top;">:</td><td><div></div></td></tr><tr><td style="font-weight:bold;vertical-align:top;">version</td><td style="vertical-align:top;">:</td><td><div></div></td></tr></table></div></td></tr></table></div></td></tr><tr><td style="font-weight:bold;vertical-align:top;">delimiters</td><td style="vertical-align:top;">:</td><td><div><table><tr><td><div>{{</div></td></tr><tr><td><div>}}</div></td></tr></table></div></td></tr><tr><td style="font-weight:bold;vertical-align:top;">files</td><td style="vertical-align:top;">:</td><td><div><table></table></div></td></tr><tr><td style="font-weight:bold;vertical-align:top;">flash</td><td style="vertical-align:top;">:</td><td><div></div></td></tr><tr><td style="font-weight:bold;vertical-align:top;">generic_patterns</td><td style="vertical-align:top;">:</td><td><div><table></table></div></td></tr><tr><td style="font-weight:bold;vertical-align:top;">google_analytics_id</td><td style="vertical-align:top;">:</td><td><div>UA-52567545-1</div></td></tr><tr><td style="font-weight:bold;vertical-align:top;">headers</td><td style="vertical-align:top;">:</td><td><div><table><tr><td style="font-weight:bold;vertical-align:top;">X-Powered-By</td><td style="vertical-align:top;">:</td><td><div>web2py</div></td></tr></table></div></td></tr><tr><td style="font-weight:bold;vertical-align:top;">logo</td><td style="vertical-align:top;">:</td><td><div><a class="brand" href="http://concordances.ru"><b>concor<span>dances</span></b>.ru</a></div></td></tr><tr><td style="font-weight:bold;vertical-align:top;">menu</td><td style="vertical-align:top;">:</td><td><div><table><tr><td><div><table><tr><td><div>Home</div></td></tr><tr><td><div>False</div></td></tr><tr><td><div>/test/default/index</div></td></tr><tr><td><div><table></table></div></td></tr></table></div></td></tr><tr><td><div><table><tr><td><div><span class="highlighted">web2py</span></div></td></tr><tr><td><div>False</div></td></tr><tr><td><div>http://concordances.ru</div></td></tr><tr><td><div><table><tr><td><div><table><tr><td><div>\xd0\x9e \xd0\xbf\xd1\x80\xd0\xbe\xd0\xb5\xd0\xba\xd1\x82\xd0\xb5</div></td></tr><tr><td><div>False</div></td></tr><tr><td><div>/admin/default/about/test</div></td></tr></table></div></td></tr><tr><td><div><table><tr><td><div>\xd0\x90\xd0\xb4\xd0\xbc\xd0\xb8\xd0\xbd\xd0\xba\xd0\xb0</div></td></tr><tr><td><div>False</div></td></tr><tr><td><div>/admin/default/edit/test/controllers/show.py</div></td></tr></table></div></td></tr></table></div></td></tr></table></div></td></tr></table></div></td></tr><tr><td style="font-weight:bold;vertical-align:top;">meta</td><td style="vertical-align:top;">:</td><td><div><table><tr><td style="font-weight:bold;vertical-align:top;">author</td><td style="vertical-align:top;">:</td><td><div>Maria Levchenko &lt;marylevchenko@gmail.com&gt;</div></td></tr><tr><td style="font-weight:bold;vertical-align:top;">generator</td><td style="vertical-align:top;">:</td><td><div>\xd0\xa7\xd0\xb0\xd1\x81\xd1\x82\xd0\xbe\xd1\x82\xd0\xbd\xd1\x8b\xd0\xb9 \xd1\x81\xd0\xbb\xd0\xbe\xd0\xb2\xd0\xb0\xd1\x80\xd1\x8c \xd1\x80\xd1\x83\xd1\x81\xd1\x81\xd0\xba\xd0\xbe\xd0\xb9 \xd0\xbb\xd0\xb8\xd1\x82\xd0\xb5\xd1\x80\xd0\xb0\xd1\x82\xd1\x83\xd1\x80\xd1\x8b</div></td></tr><tr><td style="font-weight:bold;vertical-align:top;">keywords</td><td style="vertical-align:top;">:</td><td><div>concordance, natural language processing, critics</div></td></tr></table></div></td></tr><tr><td style="font-weight:bold;vertical-align:top;">models_to_run</td><td style="vertical-align:top;">:</td><td><div><table><tr><td><div>^\\w+\\.py$</div></td></tr><tr><td><div>^show/\\w+\\.py$</div></td></tr><tr><td><div>^show/show_variants/\\w+\\.py$</div></td></tr></table></div></td></tr><tr><td style="font-weight:bold;vertical-align:top;">postprocessing</td><td style="vertical-align:top;">:</td><td><div><table></table></div></td></tr><tr><td style="font-weight:bold;vertical-align:top;">session_client</td><td style="vertical-align:top;">:</td><td><div>217.118.78.84</div></td></tr><tr><td style="font-weight:bold;vertical-align:top;">session_cookie_compression_level</td><td style="vertical-align:top;">:</td><td><div>None</div></td></tr><tr><td style="font-weight:bold;vertical-align:top;">session_cookie_expires</td><td style="vertical-align:top;">:</td><td><div>None</div></td></tr><tr><td style="font-weight:bold;vertical-align:top;">session_cookie_key</td><td style="vertical-align:top;">:</td><td><div>None</div></td></tr><tr><td style="font-weight:bold;vertical-align:top;">session_data_name</td><td style="vertical-align:top;">:</td><td><div>session_data_test</div></td></tr><tr><td style="font-weight:bold;vertical-align:top;">session_file</td><td style="vertical-align:top;">:</td><td><div>&lt;open file &#x27;/home/concordance/web2py/applications/test/sessions/217.118.78.84-af7ac002-84a3-4ec7-b952-0cf6d8838678&#x27;, mode &#x27;rb+&#x27; at 0x7f26fabba6f0&gt;</div></td></tr><tr><td style="font-weight:bold;vertical-align:top;">session_filename</td><td style="vertical-align:top;">:</td><td><div>/home/concordance/web2py/applications/test/sessions/217.118.78.84-af7ac002-84a3-4ec7-b952-0cf6d8838678</div></td></tr><tr><td style="font-weight:bold;vertical-align:top;">session_hash</td><td style="vertical-align:top;">:</td><td><div>47d6aef2cc51f38fdae571c1610e6222</div></td></tr><tr><td style="font-weight:bold;vertical-align:top;">session_id</td><td style="vertical-align:top;">:</td><td><div>217.118.78.84-af7ac002-84a3-4ec7-b952-0cf6d8838678</div></td></tr><tr><td style="font-weight:bold;vertical-align:top;">session_id_name</td><td style="vertical-align:top;">:</td><td><div>session_id_test</div></td></tr><tr><td style="font-weight:bold;vertical-align:top;">session_locked</td><td style="vertical-align:top;">:</td><td><div>True</div></td></tr><tr><td style="font-weight:bold;vertical-align:top;">session_masterapp</td><td style="vertical-align:top;">:</td><td><div>test</div></td></tr><tr><td style="font-weight:bold;vertical-align:top;">session_new</td><td style="vertical-align:top;">:</td><td><div>False</div></td></tr><tr><td style="font-weight:bold;vertical-align:top;">session_storage_type</td><td style="vertical-align:top;">:</td><td><div>file</div></td></tr><tr><td style="font-weight:bold;vertical-align:top;">status</td><td style="vertical-align:top;">:</td><td><div>200</div></td></tr><tr><td style="font-weight:bold;vertical-align:top;">subtitle</td><td style="vertical-align:top;">:</td><td><div></div></td></tr><tr><td style="font-weight:bold;vertical-align:top;">title</td><td style="vertical-align:top;">:</td><td><div>Test</div></td></tr><tr><td style="font-weight:bold;vertical-align:top;">view</td><td style="vertical-align:top;">:</td><td><div>show/show_variants.html</div></td></tr></table></div>'
tRp163
sS'locals'
p164
(dp165
S'close_source'
p166
S'False'
p167
sS'source'
p168
S'\'<?xml version="1.0" encoding="utf-8"?>\\n        <...      </stanza>\\n    </poem>\\n  </text>\\n</results>\\n\''
p169
sS'self'
p170
S'<ElementTree object>'
p171
sS'parser'
p172
S'None'
p173
sssS'traceback'
p174
S'Traceback (most recent call last):\n  File "/home/concordance/web2py/gluon/restricted.py", line 220, in restricted\n    exec ccode in environment\n  File "/home/concordance/web2py/applications/test/controllers/show.py", line 50, in <module>\n  File "/home/concordance/web2py/gluon/globals.py", line 385, in <lambda>\n    self._caller = lambda f: f()\n  File "/home/concordance/web2py/applications/test/controllers/show.py", line 43, in show_variants\n    tree = ET.parse(x)\n  File "<string>", line 62, in parse\n  File "<string>", line 26, in parse\nIOError: [Errno 36] File name too long: \'<?xml version="1.0" encoding="utf-8"?>\\n        <?xml-stylesheet type="text/xsl" href="style.xslt"?>\\n<results>\\n  <text>\\n    <info>\\n      <title>\\xd0\\x9d\\xd0\\xb0 \\xd0\\xb1\\xd0\\xbb\\xd0\\xb5\\xd0\\xb4\\xd0\\xbd\\xd0\\xbe-\\xd0\\xb3\\xd0\\xbe\\xd0\\xbb\\xd1\\x83\\xd0\\xb1\\xd0\\xbe\\xd0\\xb9 \\xd1\\x8d\\xd0\\xbc\\xd0\\xb0\\xd0\\xbb\\xd0\\xb8...</title>\\n      <name>\\xd0\\x9e\\xd1\\x81\\xd0\\xb8\\xd0\\xbf</name>\\n      <author>\\xd0\\x9c\\xd0\\xb0\\xd0\\xbd\\xd0\\xb4\\xd0\\xb5\\xd0\\xbb\\xd1\\x8c\\xd1\\x88\\xd1\\x82\\xd0\\xb0\\xd0\\xbc</author>\\n    </info>\\n    <poem>\\n      <stanza number="1">\\n        <line number="1">\\n          <word number="54563" pos="PREP">\\xd0\\x9d\\xd0\\xb0</word>\\n          <word number="54564" pos="ADVB">\\xd0\\xb1\\xd0\\xbb\\xd0\\xb5\\xd0\\xb4\\xd0\\xbd\\xd0\\xbe</word>\\n          <word number="54565" pos="PNCT">-</word>\\n          <word number="54566" pos="ADJF">\\xd0\\xb3\\xd0\\xbe\\xd0\\xbb\\xd1\\x83\\xd0\\xb1\\xd0\\xbe\\xd0\\xb9</word>\\n          <word number="54567" pos="NOUN">\\xd1\\x8d\\xd0\\xbc\\xd0\\xb0\\xd0\\xbb\\xd0\\xb8</word>\\n          <word number="54568" pos="PNCT">,</word>\\n        </line>\\n        <line number="2">\\n          <word number="54569" pos="ADJF">\\xd0\\x9a\\xd0\\xb0\\xd0\\xba\\xd0\\xb0\\xd1\\x8f</word>\\n          <word number="54570" pos="PRTS">\\xd0\\xbc\\xd1\\x8b\\xd1\\x81\\xd0\\xbb\\xd0\\xb8\\xd0\\xbc\\xd0\\xb0</word>\\n          <word number="54571" pos="PREP">\\xd0\\xb2</word>\\n          <word number="54572" pos="NOUN">\\xd0\\xb0\\xd0\\xbf\\xd1\\x80\\xd0\\xb5\\xd0\\xbb\\xd0\\xb5</word>\\n          <word number="54573" pos="PNCT">,</word>\\n        </line>\\n        <line number="3">\\n          <word number="54574" pos="NOUN">\\xd0\\x91\\xd0\\xb5\\xd1\\x80\\xd0\\xb5\\xd0\\xb7\\xd1\\x8b</word>\\n          <word number="54575" pos="NOUN">\\xd0\\xb2\\xd0\\xb5\\xd1\\x82\\xd0\\xb2\\xd0\\xb8</word>\\n          <word number="54576" pos="VERB">\\xd0\\xbf\\xd0\\xbe\\xd0\\xb4\\xd0\\xbd\\xd0\\xb8\\xd0\\xbc\\xd0\\xb0\\xd0\\xbb\\xd0\\xb8</word>\\n        </line>\\n        <line number="4">\\n          <word number="54577" pos="CONJ">\\xd0\\x98</word>\\n          <word number="54578" pos="ADVB">\\xd0\\xbd\\xd0\\xb5\\xd0\\xb7\\xd0\\xb0\\xd0\\xbc\\xd0\\xb5\\xd1\\x82\\xd0\\xbd\\xd0\\xbe</word>\\n          <word number="54579" pos="VERB">\\xd0\\xb2\\xd0\\xb5\\xd1\\x87\\xd0\\xb5\\xd1\\x80\\xd0\\xb5\\xd0\\xbb\\xd0\\xb8</word>\\n          <word number="54580" pos="PNCT">.</word>\\n        </line>\\n      </stanza>\\n      <stanza number="2">\\n        <line number="5">\\n          <word number="54581" pos="NOUN">\\xd0\\xa3\\xd0\\xb7\\xd0\\xbe\\xd1\\x80</word>\\n          <word number="54582" pos="PRTF">\\xd0\\xbe\\xd1\\x82\\xd1\\x82\\xd0\\xbe\\xd1\\x87\\xd0\\xb5\\xd0\\xbd\\xd0\\xbd\\xd1\\x8b\\xd0\\xb9</word>\\n          <word number="54583" pos="CONJ">\\xd0\\xb8</word>\\n          <word number="54584" pos="ADJF">\\xd0\\xbc\\xd0\\xb5\\xd0\\xbb\\xd0\\xba\\xd0\\xb8\\xd0\\xb9</word>\\n          <word number="54585" pos="PNCT">,</word>\\n        </line>\\n        <line number="6">\\n          <word number="54586" pos="VERB">\\xd0\\x97\\xd0\\xb0\\xd1\\x81\\xd1\\x82\\xd1\\x8b\\xd0\\xbb\\xd0\\xb0</word>\\n          <word number="54587" pos="ADJF">\\xd1\\x82\\xd0\\xbe\\xd0\\xbd\\xd0\\xb5\\xd0\\xbd\\xd1\\x8c\\xd0\\xba\\xd0\\xb0\\xd1\\x8f</word>\\n          <word number="54588" pos="NOUN">\\xd1\\x81\\xd0\\xb5\\xd1\\x82\\xd0\\xba\\xd0\\xb0</word>\\n          <word number="54589" pos="PNCT">,</word>\\n        </line>\\n        <line number="7">\\n          <word number="54590" pos="CONJ">\\xd0\\x9a\\xd0\\xb0\\xd0\\xba</word>\\n          <word number="54591" pos="PREP">\\xd0\\xbd\\xd0\\xb0</word>\\n          <word number="54592" pos="ADJF" variant="\\xd1\\x84\\xd0\\xb0\\xd1\\x8f\\xd0\\xbd\\xd1\\x81\\xd0\\xbe\\xd0\\xb2\\xd0\\xbe\\xd0\\xb9">\\xd1\\x84\\xd0\\xb0\\xd1\\x80\\xd1\\x84\\xd0\\xbe\\xd1\\x80\\xd0\\xbe\\xd0\\xb2\\xd0\\xbe\\xd0\\xb9</word>\\n          <word number="54593" pos="NOUN">\\xd1\\x82\\xd0\\xb0\\xd1\\x80\\xd0\\xb5\\xd0\\xbb\\xd0\\xba\\xd0\\xb5</word>\\n        </line>\\n        <line number="8">\\n          <word number="54594" pos="NOUN">\\xd0\\xa0\\xd0\\xb8\\xd1\\x81\\xd1\\x83\\xd0\\xbd\\xd0\\xbe\\xd0\\xba</word>\\n          <word number="54595" pos="PNCT">,</word>\\n          <word number="54596" pos="PRTF">\\xd0\\xb2\\xd1\\x8b\\xd1\\x87\\xd0\\xb5\\xd1\\x80\\xd1\\x87\\xd0\\xb5\\xd0\\xbd\\xd0\\xbd\\xd1\\x8b\\xd0\\xb9</word>\\n          <word number="54597" pos="ADVB">\\xd0\\xbc\\xd0\\xb5\\xd1\\x82\\xd0\\xba\\xd0\\xbe</word>\\n          <word number="54598" pos="PNCT">,</word>\\n          <word number="54599" pos="PNCT">\\xe2\\x80\\x94</word>\\n        </line>\\n      </stanza>\\n      <stanza number="3">\\n        <line number="9">\\n          <word number="54600" pos="CONJ">\\xd0\\x9a\\xd0\\xbe\\xd0\\xb3\\xd0\\xb4\\xd0\\xb0</word>\\n          <word number="54601" pos="NPRO">\\xd0\\xb5\\xd0\\xb3\\xd0\\xbe</word>\\n          <word number="54602" pos="NOUN">\\xd1\\x85\\xd1\\x83\\xd0\\xb4\\xd0\\xbe\\xd0\\xb6\\xd0\\xbd\\xd0\\xb8\\xd0\\xba</word>\\n          <word number="54603" pos="ADJF">\\xd0\\xbc\\xd0\\xb8\\xd0\\xbb\\xd1\\x8b\\xd0\\xb9</word>\\n        </line>\\n        <line number="10">\\n          <word number="54604" pos="VERB">\\xd0\\x92\\xd1\\x8b\\xd0\\xb2\\xd0\\xbe\\xd0\\xb4\\xd0\\xb8\\xd1\\x82</word>\\n          <word number="54605" pos="PREP">\\xd0\\xbd\\xd0\\xb0</word>\\n          <word number="54606" pos="ADJF">\\xd1\\x81\\xd1\\x82\\xd0\\xb5\\xd0\\xba\\xd0\\xbb\\xd1\\x8f\\xd0\\xbd\\xd0\\xbd\\xd0\\xbe\\xd0\\xb9</word>\\n          <word number="54607" pos="NOUN">\\xd1\\x82\\xd0\\xb2\\xd0\\xb5\\xd1\\x80\\xd0\\xb4\\xd0\\xb8</word>\\n          <word number="54608" pos="PNCT">,</word>\\n        </line>\\n        <line number="11">\\n          <word number="54609" pos="PREP">\\xd0\\x92</word>\\n          <word number="54610" pos="NOUN">\\xd1\\x81\\xd0\\xbe\\xd0\\xb7\\xd0\\xbd\\xd0\\xb0\\xd0\\xbd\\xd0\\xb8\\xd0\\xb8</word>\\n          <word number="54611" pos="ADJF">\\xd0\\xbc\\xd0\\xb8\\xd0\\xbd\\xd1\\x83\\xd1\\x82\\xd0\\xbd\\xd0\\xbe\\xd0\\xb9</word>\\n          <word number="54612" pos="NOUN">\\xd1\\x81\\xd0\\xb8\\xd0\\xbb\\xd1\\x8b</word>\\n          <word number="54613" pos="PNCT">,</word>\\n        </line>\\n        <line number="12">\\n          <word number="54614" pos="PREP">\\xd0\\x92</word>\\n          <word number="54615" pos="NOUN">\\xd0\\xb7\\xd0\\xb0\\xd0\\xb1\\xd0\\xb2\\xd0\\xb5\\xd0\\xbd\\xd0\\xb8\\xd0\\xb8</word>\\n          <word number="54616" pos="ADJF">\\xd0\\xbf\\xd0\\xb5\\xd1\\x87\\xd0\\xb0\\xd0\\xbb\\xd1\\x8c\\xd0\\xbd\\xd0\\xbe\\xd0\\xb9</word>\\n          <word number="54617" pos="NOUN">\\xd1\\x81\\xd0\\xbc\\xd0\\xb5\\xd1\\x80\\xd1\\x82\\xd0\\xb8</word>\\n          <word number="54618" pos="PNCT">.</word>\\n        </line>\\n      </stanza>\\n    </poem>\\n  </text>\\n</results>\\n\'\n'
p175
s.