(dp1
S'output'
p2
S"<type 'exceptions.AttributeError'> 'dict' object has no attribute 'stress'"
p3
sS'layer'
p4
S'/home/concordance/web2py/applications/test/controllers/stress.py'
p5
sS'code'
p6
S'# coding: utf8\n# \xd0\xbf\xd0\xbe\xd0\xbf\xd1\x80\xd0\xbe\xd0\xb1\xd0\xbe\xd0\xb2\xd0\xb0\xd1\x82\xd1\x8c \xd1\x87\xd1\x82\xd0\xbe-\xd0\xbb\xd0\xb8\xd0\xb1\xd0\xbe \xd0\xb2\xd0\xb8\xd0\xb4\xd0\xb0\nimport json\nimport itertools\n\ndef index():\n    filename = \'/home/concordance/web2py/applications/test/rhymes/stress/j.txt\'\n    text = open(filename, \'rb\')\n    text = text.readlines()\n    newlines = []\n    words = []\n    for all in text:\n        all=all.replace(\'\\r\\n\', \'\')\n        c = all.split(\'#\')\n        newlines.append(c)\n        words.append(c[0].decode(\'utf-8\'))\n    newlines2 = [all[1].split(\',\') for all in newlines]\n    newlines_antistress = []\n    newlines_stress = []\n    for all in newlines2:\n        newlines3 = [n.replace("\'", \'\') for n in all]\n        newlines_antistress.append(newlines3)\n        newlines_stress.append(all)\n    couples = []\n    paradigma = {}\n    err = []\n    for a in xrange(0, len(newlines_antistress)-1):\n        paradigma[words[a]]={}\n        for all in xrange(0, len(newlines_antistress)-1):\n            try:\n                not_stressed_word = newlines_antistress[a][all]\n                stressed_word = newlines_stress[a][all].decode(\'utf-8\')\n                c = [not_stressed_word, stressed_word]\n                couples.append(c)\n                paradigma[words[a]][not_stressed_word]=stressed_word\n            except:\n                err.append(newlines_antistress[a])\n    f = filename.replace(\'.txt\', \'.json\')\n    with open(f, \'w\') as outfile:\n        json.dump(paradigma, outfile)\n    return dict(paradigma = paradigma, err=err)\n\ndef stress():\n    filename = \'/home/concordance/web2py/applications/test/rhymes/stress/ch.json\'\n    with open(filename, \'rb\') as outfile:\n        d = json.load(outfile)\n    #result = d["\xd0\xb0\xd1\x80\xd0\xbc\xd1\x8f\xd1\x87\xd0\xbe\xd0\xba".decode(\'utf-8\')]\n    words = []\n    err = []\n    a = [[all.word, all.lemma] for all in trymysql(trymysql.allword.word.startswith(\'\xd1\x87\')).select()]\n    for all in a:\n        try:\n            w = d[all[0].decode(\'utf-8\')]\n            words.append(w[all[1].decode(\'utf-8\').lower()])\n        except:\n            err.append(all[0])\n    err = sorted(set(err))\n    return dict(words=words, err=err, e = len(err))\n\ndef stress_db():\n    filename = \'/home/concordance/web2py/applications/test/rhymes/stress/a.json\'\n    with open(filename, \'rb\') as outfile:\n        d = json.load(outfile)\n    l = []\n    for key, i in d.items():\n        for word, s in i.items():\n            #l.append([key, word, s])\n            d.stress.insert(lemma = key, form = word, stress = s)\n    msg = "\xd0\x92\xd1\x81\xd0\xb5"\n    return dict(msg=msg)\n\nresponse._vars=response._caller(stress_db)\n'
p7
sS'snapshot'
p8
(dp9
S'exception'
p10
(dp11
S'__hash__'
p12
S"<method-wrapper '__hash__' of exceptions.AttributeError object>"
p13
sS'__setattr__'
p14
S"<method-wrapper '__setattr__' of exceptions.AttributeError object>"
p15
sS'__reduce_ex__'
p16
S'<built-in method __reduce_ex__ of exceptions.AttributeError object>'
p17
sS'__getslice__'
p18
S"<method-wrapper '__getslice__' of exceptions.AttributeError object>"
p19
sS'__getitem__'
p20
S"<method-wrapper '__getitem__' of exceptions.AttributeError object>"
p21
sS'__setstate__'
p22
S'<built-in method __setstate__ of exceptions.AttributeError object>'
p23
sS'args'
p24
S'("\'dict\' object has no attribute \'stress\'",)'
p25
sS'__reduce__'
p26
S'<built-in method __reduce__ of exceptions.AttributeError object>'
p27
sS'__str__'
p28
S"<method-wrapper '__str__' of exceptions.AttributeError object>"
p29
sS'__format__'
p30
S'<built-in method __format__ of exceptions.AttributeError object>'
p31
sS'__getattribute__'
p32
S"<method-wrapper '__getattribute__' of exceptions.AttributeError object>"
p33
sS'__class__'
p34
S"<type 'exceptions.AttributeError'>"
p35
sS'__unicode__'
p36
S'<built-in method __unicode__ of exceptions.AttributeError object>'
p37
sS'__delattr__'
p38
S"<method-wrapper '__delattr__' of exceptions.AttributeError object>"
p39
sS'__subclasshook__'
p40
S'<built-in method __subclasshook__ of type object>'
p41
sS'__repr__'
p42
S"<method-wrapper '__repr__' of exceptions.AttributeError object>"
p43
sS'__dict__'
p44
S'{}'
p45
sS'__sizeof__'
p46
S'<built-in method __sizeof__ of exceptions.AttributeError object>'
p47
sS'__doc__'
p48
S"'Attribute not found.'"
p49
sS'__init__'
p50
S"<method-wrapper '__init__' of exceptions.AttributeError object>"
p51
sS'__new__'
p52
S'<built-in method __new__ of type object>'
p53
ssS'evalue'
p54
S"'dict' object has no attribute 'stress'"
p55
sS'request'
p56
cgluon.html
XML_unpickle
p57
(S'swS\x00\x00<div><table><tr><td style="font-weight:bold;vertical-align:top;">ajax</td><td style="vertical-align:top;">:</td><td><div>False</div></td></tr><tr><td style="font-weight:bold;vertical-align:top;">application</td><td style="vertical-align:top;">:</td><td><div>test</div></td></tr><tr><td style="font-weight:bold;vertical-align:top;">args</td><td style="vertical-align:top;">:</td><td><div><table></table></div></td></tr><tr><td style="font-weight:bold;vertical-align:top;">cid</td><td style="vertical-align:top;">:</td><td><div>None</div></td></tr><tr><td style="font-weight:bold;vertical-align:top;">client</td><td style="vertical-align:top;">:</td><td><div>217.118.78.39</div></td></tr><tr><td style="font-weight:bold;vertical-align:top;">controller</td><td style="vertical-align:top;">:</td><td><div>stress</div></td></tr><tr><td style="font-weight:bold;vertical-align:top;">cookies</td><td style="vertical-align:top;">:</td><td><div><table><tr><td style="font-weight:bold;vertical-align:top;">session_id_admin</td><td style="vertical-align:top;">:</td><td><div>46.101.16.229-66ba3a19-410e-462f-b6b9-57f04f1b0572<table><tr><td style="font-weight:bold;vertical-align:top;">comment</td><td style="vertical-align:top;">:</td><td><div></div></td></tr><tr><td style="font-weight:bold;vertical-align:top;">domain</td><td style="vertical-align:top;">:</td><td><div></div></td></tr><tr><td style="font-weight:bold;vertical-align:top;">expires</td><td style="vertical-align:top;">:</td><td><div></div></td></tr><tr><td style="font-weight:bold;vertical-align:top;">httponly</td><td style="vertical-align:top;">:</td><td><div></div></td></tr><tr><td style="font-weight:bold;vertical-align:top;">max-age</td><td style="vertical-align:top;">:</td><td><div></div></td></tr><tr><td style="font-weight:bold;vertical-align:top;">path</td><td style="vertical-align:top;">:</td><td><div></div></td></tr><tr><td style="font-weight:bold;vertical-align:top;">secure</td><td style="vertical-align:top;">:</td><td><div></div></td></tr><tr><td style="font-weight:bold;vertical-align:top;">version</td><td style="vertical-align:top;">:</td><td><div></div></td></tr></table></div></td></tr><tr><td style="font-weight:bold;vertical-align:top;">session_id_test</td><td style="vertical-align:top;">:</td><td><div>46.101.16.229-06e011a5-7dfa-444f-aa81-2f76a54cf436<table><tr><td style="font-weight:bold;vertical-align:top;">comment</td><td style="vertical-align:top;">:</td><td><div></div></td></tr><tr><td style="font-weight:bold;vertical-align:top;">domain</td><td style="vertical-align:top;">:</td><td><div></div></td></tr><tr><td style="font-weight:bold;vertical-align:top;">expires</td><td style="vertical-align:top;">:</td><td><div></div></td></tr><tr><td style="font-weight:bold;vertical-align:top;">httponly</td><td style="vertical-align:top;">:</td><td><div></div></td></tr><tr><td style="font-weight:bold;vertical-align:top;">max-age</td><td style="vertical-align:top;">:</td><td><div></div></td></tr><tr><td style="font-weight:bold;vertical-align:top;">path</td><td style="vertical-align:top;">:</td><td><div></div></td></tr><tr><td style="font-weight:bold;vertical-align:top;">secure</td><td style="vertical-align:top;">:</td><td><div></div></td></tr><tr><td style="font-weight:bold;vertical-align:top;">version</td><td style="vertical-align:top;">:</td><td><div></div></td></tr></table></div></td></tr></table></div></td></tr><tr><td style="font-weight:bold;vertical-align:top;">env</td><td style="vertical-align:top;">:</td><td><div><table><tr><td style="font-weight:bold;vertical-align:top;">CONTENT_LENGTH</td><td style="vertical-align:top;">:</td><td><div></div></td></tr><tr><td style="font-weight:bold;vertical-align:top;">CONTENT_TYPE</td><td style="vertical-align:top;">:</td><td><div></div></td></tr><tr><td style="font-weight:bold;vertical-align:top;">DOCUMENT_ROOT</td><td style="vertical-align:top;">:</td><td><div>/usr/local/openresty/nginx/html</div></td></tr><tr><td style="font-weight:bold;vertical-align:top;">HTTPS</td><td style="vertical-align:top;">:</td><td><div>on</div></td></tr><tr><td style="font-weight:bold;vertical-align:top;">HTTP_ACCEPT</td><td style="vertical-align:top;">:</td><td><div>text/html,application/xhtml+xml,application/xml;q=0.9,image/webp,*/*;q=0.8</div></td></tr><tr><td style="font-weight:bold;vertical-align:top;">HTTP_ACCEPT_ENCODING</td><td style="vertical-align:top;">:</td><td><div>gzip, deflate, sdch, br</div></td></tr><tr><td style="font-weight:bold;vertical-align:top;">HTTP_ACCEPT_LANGUAGE</td><td style="vertical-align:top;">:</td><td><div>ru,en;q=0.8,en-US;q=0.6</div></td></tr><tr><td style="font-weight:bold;vertical-align:top;">HTTP_CACHE_CONTROL</td><td style="vertical-align:top;">:</td><td><div>max-age=0</div></td></tr><tr><td style="font-weight:bold;vertical-align:top;">HTTP_CONNECTION</td><td style="vertical-align:top;">:</td><td><div>close</div></td></tr><tr><td style="font-weight:bold;vertical-align:top;">HTTP_COOKIE</td><td style="vertical-align:top;">:</td><td><div>_gat=1; __utmt=1; _ga=GA1.2.2009921225.1482865438; session_id_test=46.101.16.229-06e011a5-7dfa-444f-aa81-2f76a54cf436; __utma=134993891.2009921225.1482865438.1484437510.1484441443.8; __utmb=134993891.66.10.1484441443; __utmc=134993891; __utmz=134993891.1484355529.1.1.utmcsr=(direct)|utmccn=(direct)|utmcmd=(none); session_id_admin=46.101.16.229-66ba3a19-410e-462f-b6b9-57f04f1b0572</div></td></tr><tr><td style="font-weight:bold;vertical-align:top;">HTTP_HOST</td><td style="vertical-align:top;">:</td><td><div>concordance.pythonanywhere.com</div></td></tr><tr><td style="font-weight:bold;vertical-align:top;">HTTP_UPGRADE_INSECURE_REQUESTS</td><td style="vertical-align:top;">:</td><td><div>1</div></td></tr><tr><td style="font-weight:bold;vertical-align:top;">HTTP_USER_AGENT</td><td style="vertical-align:top;">:</td><td><div>Mozilla/5.0 (Windows NT 10.0; WOW64) AppleWebKit/537.36 (KHTML, like Gecko) Chrome/55.0.2883.87 Safari/537.36</div></td></tr><tr><td style="font-weight:bold;vertical-align:top;">HTTP_X_FORWARDED_FOR</td><td style="vertical-align:top;">:</td><td><div>217.118.78.39</div></td></tr><tr><td style="font-weight:bold;vertical-align:top;">HTTP_X_REAL_IP</td><td style="vertical-align:top;">:</td><td><div>217.118.78.39</div></td></tr><tr><td style="font-weight:bold;vertical-align:top;">PATH_INFO</td><td style="vertical-align:top;">:</td><td><div>/test/stress/stress_db</div></td></tr><tr><td style="font-weight:bold;vertical-align:top;">QUERY_STRING</td><td style="vertical-align:top;">:</td><td><div></div></td></tr><tr><td style="font-weight:bold;vertical-align:top;">REMOTE_ADDR</td><td style="vertical-align:top;">:</td><td><div>10.0.0.236</div></td></tr><tr><td style="font-weight:bold;vertical-align:top;">REMOTE_PORT</td><td style="vertical-align:top;">:</td><td><div>51070</div></td></tr><tr><td style="font-weight:bold;vertical-align:top;">REQUEST_METHOD</td><td style="vertical-align:top;">:</td><td><div>GET</div></td></tr><tr><td style="font-weight:bold;vertical-align:top;">REQUEST_URI</td><td style="vertical-align:top;">:</td><td><div>/test/stress/stress_db</div></td></tr><tr><td style="font-weight:bold;vertical-align:top;">SCRIPT_NAME</td><td style="vertical-align:top;">:</td><td><div></div></td></tr><tr><td style="font-weight:bold;vertical-align:top;">SERVER_NAME</td><td style="vertical-align:top;">:</td><td><div>concordance.pythonanywhere.com</div></td></tr><tr><td style="font-weight:bold;vertical-align:top;">SERVER_PORT</td><td style="vertical-align:top;">:</td><td><div>443</div></td></tr><tr><td style="font-weight:bold;vertical-align:top;">SERVER_PROTOCOL</td><td style="vertical-align:top;">:</td><td><div>HTTP/1.1</div></td></tr><tr><td style="font-weight:bold;vertical-align:top;">app_folders</td><td style="vertical-align:top;">:</td><td><div>set([&#x27;/home/concordance/web2py/applications/admin/&#x27;, &#x27;/home/concordance/web2py/applications/test/&#x27;])</div></td></tr><tr><td style="font-weight:bold;vertical-align:top;">applications_parent</td><td style="vertical-align:top;">:</td><td><div>/home/concordance/web2py</div></td></tr><tr><td style="font-weight:bold;vertical-align:top;">content_length</td><td style="vertical-align:top;">:</td><td><div></div></td></tr><tr><td style="font-weight:bold;vertical-align:top;">content_type</td><td style="vertical-align:top;">:</td><td><div></div></td></tr><tr><td style="font-weight:bold;vertical-align:top;">db_sessions</td><td style="vertical-align:top;">:</td><td><div>set([])</div></td></tr><tr><td style="font-weight:bold;vertical-align:top;">debugging</td><td style="vertical-align:top;">:</td><td><div>True</div></td></tr><tr><td style="font-weight:bold;vertical-align:top;">document_root</td><td style="vertical-align:top;">:</td><td><div>/usr/local/openresty/nginx/html</div></td></tr><tr><td style="font-weight:bold;vertical-align:top;">gluon_parent</td><td style="vertical-align:top;">:</td><td><div>/home/concordance/web2py</div></td></tr><tr><td style="font-weight:bold;vertical-align:top;">http_accept</td><td style="vertical-align:top;">:</td><td><div>text/html,application/xhtml+xml,application/xml;q=0.9,image/webp,*/*;q=0.8</div></td></tr><tr><td style="font-weight:bold;vertical-align:top;">http_accept_encoding</td><td style="vertical-align:top;">:</td><td><div>gzip, deflate, sdch, br</div></td></tr><tr><td style="font-weight:bold;vertical-align:top;">http_accept_language</td><td style="vertical-align:top;">:</td><td><div>ru,en;q=0.8,en-US;q=0.6</div></td></tr><tr><td style="font-weight:bold;vertical-align:top;">http_cache_control</td><td style="vertical-align:top;">:</td><td><div>max-age=0</div></td></tr><tr><td style="font-weight:bold;vertical-align:top;">http_connection</td><td style="vertical-align:top;">:</td><td><div>close</div></td></tr><tr><td style="font-weight:bold;vertical-align:top;">http_cookie</td><td style="vertical-align:top;">:</td><td><div>_gat=1; __utmt=1; _ga=GA1.2.2009921225.1482865438; session_id_test=46.101.16.229-06e011a5-7dfa-444f-aa81-2f76a54cf436; __utma=134993891.2009921225.1482865438.1484437510.1484441443.8; __utmb=134993891.66.10.1484441443; __utmc=134993891; __utmz=134993891.1484355529.1.1.utmcsr=(direct)|utmccn=(direct)|utmcmd=(none); session_id_admin=46.101.16.229-66ba3a19-410e-462f-b6b9-57f04f1b0572</div></td></tr><tr><td style="font-weight:bold;vertical-align:top;">http_host</td><td style="vertical-align:top;">:</td><td><div>concordance.pythonanywhere.com</div></td></tr><tr><td style="font-weight:bold;vertical-align:top;">http_upgrade_insecure_requests</td><td style="vertical-align:top;">:</td><td><div>1</div></td></tr><tr><td style="font-weight:bold;vertical-align:top;">http_user_agent</td><td style="vertical-align:top;">:</td><td><div>Mozilla/5.0 (Windows NT 10.0; WOW64) AppleWebKit/537.36 (KHTML, like Gecko) Chrome/55.0.2883.87 Safari/537.36</div></td></tr><tr><td style="font-weight:bold;vertical-align:top;">http_x_forwarded_for</td><td style="vertical-align:top;">:</td><td><div>217.118.78.39</div></td></tr><tr><td style="font-weight:bold;vertical-align:top;">http_x_real_ip</td><td style="vertical-align:top;">:</td><td><div>217.118.78.39</div></td></tr><tr><td style="font-weight:bold;vertical-align:top;">https</td><td style="vertical-align:top;">:</td><td><div>on</div></td></tr><tr><td style="font-weight:bold;vertical-align:top;">is_jython</td><td style="vertical-align:top;">:</td><td><div>False</div></td></tr><tr><td style="font-weight:bold;vertical-align:top;">is_pypy</td><td style="vertical-align:top;">:</td><td><div>False</div></td></tr><tr><td style="font-weight:bold;vertical-align:top;">is_source</td><td style="vertical-align:top;">:</td><td><div>True</div></td></tr><tr><td style="font-weight:bold;vertical-align:top;">local_hosts</td><td style="vertical-align:top;">:</td><td><div><table><tr><td><div>::ffff:127.0.0.1</div></td></tr><tr><td><div>::1</div></td></tr><tr><td><div>giles-liveweb6</div></td></tr><tr><td><div>50.19.109.98</div></td></tr><tr><td><div>127.0.0.1</div></td></tr><tr><td><div>concordance.pythonanywhere.com</div></td></tr><tr><td><div>localhost</div></td></tr></table></div></td></tr><tr><td style="font-weight:bold;vertical-align:top;">path_info</td><td style="vertical-align:top;">:</td><td><div>/test/stress/stress_db</div></td></tr><tr><td style="font-weight:bold;vertical-align:top;">query_string</td><td style="vertical-align:top;">:</td><td><div></div></td></tr><tr><td style="font-weight:bold;vertical-align:top;">remote_addr</td><td style="vertical-align:top;">:</td><td><div>10.0.0.236</div></td></tr><tr><td style="font-weight:bold;vertical-align:top;">remote_port</td><td style="vertical-align:top;">:</td><td><div>51070</div></td></tr><tr><td style="font-weight:bold;vertical-align:top;">request_method</td><td style="vertical-align:top;">:</td><td><div>GET</div></td></tr><tr><td style="font-weight:bold;vertical-align:top;">request_uri</td><td style="vertical-align:top;">:</td><td><div>/test/stress/stress_db</div></td></tr><tr><td style="font-weight:bold;vertical-align:top;">script_name</td><td style="vertical-align:top;">:</td><td><div></div></td></tr><tr><td style="font-weight:bold;vertical-align:top;">server_name</td><td style="vertical-align:top;">:</td><td><div>concordance.pythonanywhere.com</div></td></tr><tr><td style="font-weight:bold;vertical-align:top;">server_port</td><td style="vertical-align:top;">:</td><td><div>443</div></td></tr><tr><td style="font-weight:bold;vertical-align:top;">server_protocol</td><td style="vertical-align:top;">:</td><td><div>HTTP/1.1</div></td></tr><tr><td style="font-weight:bold;vertical-align:top;">uwsgi.node</td><td style="vertical-align:top;">:</td><td><div>giles-liveweb6</div></td></tr><tr><td style="font-weight:bold;vertical-align:top;">uwsgi.version</td><td style="vertical-align:top;">:</td><td><div>2.0.5.1</div></td></tr><tr><td style="font-weight:bold;vertical-align:top;">uwsgi_node</td><td style="vertical-align:top;">:</td><td><div>giles-liveweb6</div></td></tr><tr><td style="font-weight:bold;vertical-align:top;">uwsgi_version</td><td style="vertical-align:top;">:</td><td><div>2.0.5.1</div></td></tr><tr><td style="font-weight:bold;vertical-align:top;">web2py_original_uri</td><td style="vertical-align:top;">:</td><td><div>/test/stress/stress_db</div></td></tr><tr><td style="font-weight:bold;vertical-align:top;">web2py_path</td><td style="vertical-align:top;">:</td><td><div>/home/concordance/web2py</div></td></tr><tr><td style="font-weight:bold;vertical-align:top;">web2py_version</td><td style="vertical-align:top;">:</td><td><div>2.9.5-stable+timestamp.2014.03.16.02.35.39</div></td></tr><tr><td style="font-weight:bold;vertical-align:top;">wsgi.errors</td><td style="vertical-align:top;">:</td><td><div>&lt;uwsgi_file__bin_user_wsgi_wrapper.ErrorLogFile object at 0x7ff1d2ff8150&gt;</div></td></tr><tr><td style="font-weight:bold;vertical-align:top;">wsgi.file_wrapper</td><td style="vertical-align:top;">:</td><td><div>&lt;built-in function uwsgi_sendfile&gt;</div></td></tr><tr><td style="font-weight:bold;vertical-align:top;">wsgi.input</td><td style="vertical-align:top;">:</td><td><div>&lt;uwsgi._Input object at 0x7ff1e79bbfa8&gt;</div></td></tr><tr><td style="font-weight:bold;vertical-align:top;">wsgi.multiprocess</td><td style="vertical-align:top;">:</td><td><div>True</div></td></tr><tr><td style="font-weight:bold;vertical-align:top;">wsgi.multithread</td><td style="vertical-align:top;">:</td><td><div>False</div></td></tr><tr><td style="font-weight:bold;vertical-align:top;">wsgi.run_once</td><td style="vertical-align:top;">:</td><td><div>False</div></td></tr><tr><td style="font-weight:bold;vertical-align:top;">wsgi.url_scheme</td><td style="vertical-align:top;">:</td><td><div>https</div></td></tr><tr><td style="font-weight:bold;vertical-align:top;">wsgi.version</td><td style="vertical-align:top;">:</td><td><div><table><tr><td><div>1</div></td></tr><tr><td><div>0</div></td></tr></table></div></td></tr><tr><td style="font-weight:bold;vertical-align:top;">wsgi_errors</td><td style="vertical-align:top;">:</td><td><div>&lt;uwsgi_file__bin_user_wsgi_wrapper.ErrorLogFile object at 0x7ff1d2ff8150&gt;</div></td></tr><tr><td style="font-weight:bold;vertical-align:top;">wsgi_file_wrapper</td><td style="vertical-align:top;">:</td><td><div>&lt;built-in function uwsgi_sendfile&gt;</div></td></tr><tr><td style="font-weight:bold;vertical-align:top;">wsgi_input</td><td style="vertical-align:top;">:</td><td><div>&lt;uwsgi._Input object at 0x7ff1e79bbfa8&gt;</div></td></tr><tr><td style="font-weight:bold;vertical-align:top;">wsgi_multiprocess</td><td style="vertical-align:top;">:</td><td><div>True</div></td></tr><tr><td style="font-weight:bold;vertical-align:top;">wsgi_multithread</td><td style="vertical-align:top;">:</td><td><div>False</div></td></tr><tr><td style="font-weight:bold;vertical-align:top;">wsgi_run_once</td><td style="vertical-align:top;">:</td><td><div>False</div></td></tr><tr><td style="font-weight:bold;vertical-align:top;">wsgi_url_scheme</td><td style="vertical-align:top;">:</td><td><div>https</div></td></tr><tr><td style="font-weight:bold;vertical-align:top;">wsgi_version</td><td style="vertical-align:top;">:</td><td><div><table><tr><td><div>1</div></td></tr><tr><td><div>0</div></td></tr></table></div></td></tr></table></div></td></tr><tr><td style="font-weight:bold;vertical-align:top;">extension</td><td style="vertical-align:top;">:</td><td><div>html</div></td></tr><tr><td style="font-weight:bold;vertical-align:top;">folder</td><td style="vertical-align:top;">:</td><td><div>/home/concordance/web2py/applications/test/</div></td></tr><tr><td style="font-weight:bold;vertical-align:top;">function</td><td style="vertical-align:top;">:</td><td><div>stress_db</div></td></tr><tr><td style="font-weight:bold;vertical-align:top;">global_settings</td><td style="vertical-align:top;">:</td><td><div><table><tr><td style="font-weight:bold;vertical-align:top;">app_folders</td><td style="vertical-align:top;">:</td><td><div>set([&#x27;/home/concordance/web2py/applications/admin/&#x27;, &#x27;/home/concordance/web2py/applications/test/&#x27;])</div></td></tr><tr><td style="font-weight:bold;vertical-align:top;">applications_parent</td><td style="vertical-align:top;">:</td><td><div>/home/concordance/web2py</div></td></tr><tr><td style="font-weight:bold;vertical-align:top;">db_sessions</td><td style="vertical-align:top;">:</td><td><div>set([])</div></td></tr><tr><td style="font-weight:bold;vertical-align:top;">debugging</td><td style="vertical-align:top;">:</td><td><div>True</div></td></tr><tr><td style="font-weight:bold;vertical-align:top;">gluon_parent</td><td style="vertical-align:top;">:</td><td><div>/home/concordance/web2py</div></td></tr><tr><td style="font-weight:bold;vertical-align:top;">is_jython</td><td style="vertical-align:top;">:</td><td><div>False</div></td></tr><tr><td style="font-weight:bold;vertical-align:top;">is_pypy</td><td style="vertical-align:top;">:</td><td><div>False</div></td></tr><tr><td style="font-weight:bold;vertical-align:top;">is_source</td><td style="vertical-align:top;">:</td><td><div>True</div></td></tr><tr><td style="font-weight:bold;vertical-align:top;">local_hosts</td><td style="vertical-align:top;">:</td><td><div><table><tr><td><div>::ffff:127.0.0.1</div></td></tr><tr><td><div>::1</div></td></tr><tr><td><div>giles-liveweb6</div></td></tr><tr><td><div>50.19.109.98</div></td></tr><tr><td><div>127.0.0.1</div></td></tr><tr><td><div>concordance.pythonanywhere.com</div></td></tr><tr><td><div>localhost</div></td></tr></table></div></td></tr><tr><td style="font-weight:bold;vertical-align:top;">web2py_version</td><td style="vertical-align:top;">:</td><td><div>2.9.5-stable+timestamp.2014.03.16.02.35.39</div></td></tr></table></div></td></tr><tr><td style="font-weight:bold;vertical-align:top;">is_https</td><td style="vertical-align:top;">:</td><td><div>True</div></td></tr><tr><td style="font-weight:bold;vertical-align:top;">is_local</td><td style="vertical-align:top;">:</td><td><div>False</div></td></tr><tr><td style="font-weight:bold;vertical-align:top;">is_restful</td><td style="vertical-align:top;">:</td><td><div>False</div></td></tr><tr><td style="font-weight:bold;vertical-align:top;">now</td><td style="vertical-align:top;">:</td><td><div>datetime.datetime(2017, 1, 15, 2, 4, 27, 302275)</div></td></tr><tr><td style="font-weight:bold;vertical-align:top;">raw_args</td><td style="vertical-align:top;">:</td><td><div></div></td></tr><tr><td style="font-weight:bold;vertical-align:top;">raw_extension</td><td style="vertical-align:top;">:</td><td><div>None</div></td></tr><tr><td style="font-weight:bold;vertical-align:top;">url</td><td style="vertical-align:top;">:</td><td><div>/test/stress/stress_db</div></td></tr><tr><td style="font-weight:bold;vertical-align:top;">utcnow</td><td style="vertical-align:top;">:</td><td><div>datetime.datetime(2017, 1, 15, 2, 4, 27, 302291)</div></td></tr><tr><td style="font-weight:bold;vertical-align:top;">uuid</td><td style="vertical-align:top;">:</td><td><div>test/217.118.78.39.2017-01-15.02-04-27.adcf2463-c5be-43ed-a6c2-b02b0907d20e</div></td></tr><tr><td style="font-weight:bold;vertical-align:top;">wsgi</td><td style="vertical-align:top;">:</td><td><div>&lt;gluon.main.LazyWSGI object at 0x7ff1c35579d0&gt;</div></td></tr></table></div>'
tRp58
sS'frames'
p59
(lp60
(dp61
S'file'
p62
S'/home/concordance/web2py/gluon/restricted.py'
p63
sS'dump'
p64
(dp65
S'environment'
p66
S"{'A': <class 'gluon.html.A'>, 'ANY_OF': <class 'gluon.validators.ANY_OF'>, 'Auth': <class 'gluon.tools.Auth'>, 'B': <class 'gluon.html.B'>, 'BEAUTIFY': <class 'gluon.html.BEAUTIFY'>, 'BODY': <class 'gluon.html.BODY'>, 'BR': <class 'gluon.html.BR'>, 'BUTTON': <class 'gluon.html.BUTTON'>, 'CAT': <class 'gluon.html.CAT'>, 'CENTER': <class 'gluon.html.CENTER'>, ...}"
p67
sS'ccode'
p68
S'<code object <module> at 0x7ff1c35bb1b0, file "/...applications/test/controllers/stress.py", line 3>'
p69
ssS'lnum'
p70
I220
sS'lines'
p71
(dp72
I224
S'        # do not encapsulate (obfuscate) the original RestrictedError'
p73
sI215
S'    try:'
p74
sI216
S'        if isinstance(code, types.CodeType):'
p75
sI217
S'            ccode = code'
p76
sI218
S'        else:'
p77
sI219
S'            ccode = compile2(code, layer)'
p78
sI220
S'        exec ccode in environment'
p79
sI221
S'    except HTTP:'
p80
sI222
S'        raise'
p81
sI223
S'    except RestrictedError:'
p82
ssS'call'
p83
S"(code='# coding: utf8\\n# \\xd0\\xbf\\xd0\\xbe\\xd0\\xbf\\xd1\\x80\\xd0\\xbe\\xd0\\xb1\\xd0\\xbe\\xd0\\xb2\\xd0\\xb0\\xd1\\x82\\xd1\\x8c \\xd1\\x87\\xd1\\x82\\xd0\\xbe-\\xd0...msg)\\n\\nresponse._vars=response._caller(stress_db)\\n', environment={'A': <class 'gluon.html.A'>, 'ANY_OF': <class 'gluon.validators.ANY_OF'>, 'Auth': <class 'gluon.tools.Auth'>, 'B': <class 'gluon.html.B'>, 'BEAUTIFY': <class 'gluon.html.BEAUTIFY'>, 'BODY': <class 'gluon.html.BODY'>, 'BR': <class 'gluon.html.BR'>, 'BUTTON': <class 'gluon.html.BUTTON'>, 'CAT': <class 'gluon.html.CAT'>, 'CENTER': <class 'gluon.html.CENTER'>, ...}, layer='/home/concordance/web2py/applications/test/controllers/stress.py')"
p84
sS'func'
p85
S'restricted'
p86
sa(dp87
g62
S'/home/concordance/web2py/applications/test/controllers/stress.py'
p88
sg64
(dp89
sg70
I72
sg71
(dp90
I64
S'    l = []'
p91
sI65
S'    for key, i in d.items():'
p92
sI66
S'        for word, s in i.items():'
p93
sI67
S'            #l.append([key, word, s])'
p94
sI68
S'            d.stress.insert(lemma = key, form = word, stress = s)'
p95
sI69
S'    msg = "\xd0\x92\xd1\x81\xd0\xb5"'
p96
sI70
S'    return dict(msg=msg)'
p97
sI61
S"    filename = '/home/concordance/web2py/applications/test/rhymes/stress/a.json'"
p98
sI62
S"    with open(filename, 'rb') as outfile:"
p99
sI63
S'        d = json.load(outfile)'
p100
ssg83
S'()'
p101
sg85
S'<module>'
p102
sa(dp103
g62
S'/home/concordance/web2py/gluon/globals.py'
p104
sg64
(dp105
S'self'
p106
S'undefined'
p107
sS'f'
S'<function stress_db>'
p108
ssg70
I385
sg71
(dp109
I384
S'        self._vars = None'
p110
sI385
S'        self._caller = lambda f: f()'
p111
sI386
S'        self._view_environment = None'
p112
sI387
S'        self._custom_commit = None'
p113
sI388
S'        self._custom_rollback = None'
p114
sI389
S''
sI380
S'        self.menu = []             # used by the default view layout'
p115
sI381
S'        self.files = []            # used by web2py_ajax.html'
p116
sI382
S'        self.generic_patterns = []  # patterns to allow generic views'
p117
sI383
S"        self.delimiters = ('{{', '}}')"
p118
ssg83
S'(f=<function stress_db>)'
p119
sg85
S'<lambda>'
p120
sa(dp121
g62
S'/home/concordance/web2py/applications/test/controllers/stress.py'
p122
sg64
(dp123
S'word'
p124
S"u'\\u0430\\u0440\\u0442\\u0440\\u043e\\u0442\\u043e\\u043c\\u0438\\u044f\\u0445'"
p125
sS'd'
S'{u\'\\u0430\': {u\'\\u0430\': u\'\\u0430\'}, u\'\\u0430\\u0431\\u0430\': {u\'\\u0430\\u0431\': u"\\u0430\'\\u0431", u\'\\u0430\\u0431\\u0430\': u"\\u0430\\u0431\\u0430\'", u\'\\u0430\\u0431\\u0430\\u043c\': u"\\u0430\\u0431\\u0430\'\\u043c", u\'\\u0430\\u0431\\u0430\\u043c\\u0438\': u"\\u0430\\u0431\\u0430\'\\u043c\\u0438", u\'\\u0430\\u0431\\u0430\\u0445\': u"\\u0430\\u0431\\u0430\'\\u0445", u\'\\u0430\\u0431\\u0435\': u"\\u0430\\u0431\\u0435\'", u\'\\u0430\\u0431\\u043e\\u0439\': u"\\u0430\\u0431\\u043e\'\\u0439", u\'\\u0430\\u0431\\u043e\\u044e\': u"\\u0430\\u0431\\u043e\'\\u044e", u\'\\u0430\\u0431\\u0443\': u"\\u0430\\u0431\\u0443\'", u\'\\u0430\\u0431\\u044b\': u"\\u0430\\u0431\\u044b\'"}, u\'\\u0430\\u0431\\u0430\\u0436\\u0443\\u0440\': {u\'\\u0430\\u0431\\u0430\\u0436\\u0443\\u0440\': u"\\u0430\\u0431\\u0430\\u0436\\u0443\'\\u0440", u\'\\u0430\\u0431\\u0430\\u0436\\u0443\\u0440\\u0430\': u"\\u0430\\u0431\\u0430\\u0436\\u0443\'\\u0440\\u0430", u\'\\u0430\\u0431\\u0430\\u0436\\u0443\\u0440\\u0430\\u043c\': u"\\u0430\\u0431\\u0430\\u0436\\u0443\'\\u0440\\u0430\\u043c", u\'\\u0430\\u0431\\u0430\\u0436\\u0443\\u0440\\u0430\\u043c\\u0438\': u"\\u0430\\u0431\\u0430\\u0436\\u0443\'\\u0440\\u0430\\u043c\\u0438", u\'\\u0430\\u0431\\u0430\\u0436\\u0443\\u0440\\u0430\\u0445\': u"\\u0430\\u0431\\u0430\\u0436\\u0443\'\\u0440\\u0430\\u0445", u\'\\u0430\\u0431\\u0430\\u0436\\u0443\\u0440\\u0435\': u"\\u0430\\u0431\\u0430\\u0436\\u0443\'\\u0440\\u0435", u\'\\u0430\\u0431\\u0430\\u0436\\u0443\\u0440\\u043e\\u0432\': u"\\u0430\\u0431\\u0430\\u0436\\u0443\'\\u0440\\u043e\\u0432", u\'\\u0430\\u0431\\u0430\\u0436\\u0443\\u0440\\u043e\\u043c\': u"\\u0430\\u0431\\u0430\\u0436\\u0443\'\\u0440\\u043e\\u043c", u\'\\u0430\\u0431\\u0430\\u0436\\u0443\\u0440\\u0443\': u"\\u0430\\u0431\\u0430\\u0436\\u0443\'\\u0440\\u0443", u\'\\u0430\\u0431\\u0430\\u0436\\u0443\\u0440\\u044b\': u"\\u0430\\u0431\\u0430\\u0436\\u0443\'\\u0440\\u044b"}, u\'\\u0430\\u0431\\u0430\\u0436\\u0443\\u0440\\u043d\\u044b\\u0439\': {u\'\\u0430\\u0431\\u0430\\u0436\\u0443\\u0440\\u0435\\u043d\': u"\\u0430\\u0431\\u0430\\u0436\\u0443\'\\u0440\\u0435\\u043d", u\'\\u0430\\u0431\\u0430\\u0436\\u0443\\u0440\\u043d\\u0430\': u"\\u0430\\u0431\\u0430\\u0436\\u0443\'\\u0440\\u043d\\u0430", u\'\\u0430\\u0431\\u0430\\u0436\\u0443\\u0440\\u043d\\u0430\\u044f\': u"\\u0430\\u0431\\u0430\\u0436\\u0443\'\\u0440\\u043d\\u0430\\u044f", u\'\\u0430\\u0431\\u0430\\u0436\\u0443\\u0440\\u043d\\u0435\\u0435\': u"\\u0430\\u0431\\u0430\\u0436\\u0443\'\\u0440\\u043d\\u0435\\u0435", u\'\\u0430\\u0431\\u0430\\u0436\\u0443\\u0440\\u043d\\u0435\\u0439\': u"\\u0430\\u0431\\u0430\\u0436\\u0443\'\\u0440\\u043d\\u0435\\u0439", u\'\\u0430\\u0431\\u0430\\u0436\\u0443\\u0440\\u043d\\u043e\': u"\\u0430\\u0431\\u0430\\u0436\\u0443\'\\u0440\\u043d\\u043e", u\'\\u0430\\u0431\\u0430\\u0436\\u0443\\u0440\\u043d\\u043e\\u0433\\u043e\': u"\\u0430\\u0431\\u0430\\u0436\\u0443\'\\u0440\\u043d\\u043e\\u0433\\u043e", u\'\\u0430\\u0431\\u0430\\u0436\\u0443\\u0440\\u043d\\u043e\\u0435\': u"\\u0430\\u0431\\u0430\\u0436\\u0443\'\\u0440\\u043d\\u043e\\u0435", u\'\\u0430\\u0431\\u0430\\u0436\\u0443\\u0440\\u043d\\u043e\\u0439\': u"\\u0430\\u0431\\u0430\\u0436\\u0443\'\\u0440\\u043d\\u043e\\u0439", u\'\\u0430\\u0431\\u0430\\u0436\\u0443\\u0440\\u043d\\u043e\\u043c\': u"\\u0430\\u0431\\u0430\\u0436\\u0443\'\\u0440\\u043d\\u043e\\u043c", ...}, u\'\\u0430\\u0431\\u0430\\u0437\': {u\'\\u0430\\u0431\\u0430\\u0437\': u"\\u0430\\u0431\\u0430\'\\u0437", u\'\\u0430\\u0431\\u0430\\u0437\\u0430\': u"\\u0430\\u0431\\u0430\'\\u0437\\u0430", u\'\\u0430\\u0431\\u0430\\u0437\\u0430\\u043c\': u"\\u0430\\u0431\\u0430\'\\u0437\\u0430\\u043c", u\'\\u0430\\u0431\\u0430\\u0437\\u0430\\u043c\\u0438\': u"\\u0430\\u0431\\u0430\'\\u0437\\u0430\\u043c\\u0438", u\'\\u0430\\u0431\\u0430\\u0437\\u0430\\u0445\': u"\\u0430\\u0431\\u0430\'\\u0437\\u0430\\u0445", u\'\\u0430\\u0431\\u0430\\u0437\\u0435\': u"\\u0430\\u0431\\u0430\'\\u0437\\u0435", u\'\\u0430\\u0431\\u0430\\u0437\\u043e\\u0432\': u"\\u0430\\u0431\\u0430\'\\u0437\\u043e\\u0432", u\'\\u0430\\u0431\\u0430\\u0437\\u043e\\u043c\': u"\\u0430\\u0431\\u0430\'\\u0437\\u043e\\u043c", u\'\\u0430\\u0431\\u0430\\u0437\\u0443\': u"\\u0430\\u0431\\u0430\'\\u0437\\u0443", u\'\\u0430\\u0431\\u0430\\u0437\\u044b\': u"\\u0430\\u0431\\u0430\'\\u0437\\u044b"}, u\'\\u0430\\u0431\\u0430\\u0437\\u0438\\u043d\': {u\'\\u0430\\u0431\\u0430\\u0437\\u0438\\u043d\': u"\\u0430\\u0431\\u0430\\u0437\\u0438\'\\u043d", u\'\\u0430\\u0431\\u0430\\u0437\\u0438\\u043d\\u0430\': u"\\u0430\\u0431\\u0430\\u0437\\u0438\'\\u043d\\u0430", u\'\\u0430\\u0431\\u0430\\u0437\\u0438\\u043d\\u0430\\u043c\': u"\\u0430\\u0431\\u0430\\u0437\\u0438\'\\u043d\\u0430\\u043c", u\'\\u0430\\u0431\\u0430\\u0437\\u0438\\u043d\\u0430\\u043c\\u0438\': u"\\u0430\\u0431\\u0430\\u0437\\u0438\'\\u043d\\u0430\\u043c\\u0438", u\'\\u0430\\u0431\\u0430\\u0437\\u0438\\u043d\\u0430\\u0445\': u"\\u0430\\u0431\\u0430\\u0437\\u0438\'\\u043d\\u0430\\u0445", u\'\\u0430\\u0431\\u0430\\u0437\\u0438\\u043d\\u0435\': u"\\u0430\\u0431\\u0430\\u0437\\u0438\'\\u043d\\u0435", u\'\\u0430\\u0431\\u0430\\u0437\\u0438\\u043d\\u043e\\u043c\': u"\\u0430\\u0431\\u0430\\u0437\\u0438\'\\u043d\\u043e\\u043c", u\'\\u0430\\u0431\\u0430\\u0437\\u0438\\u043d\\u0443\': u"\\u0430\\u0431\\u0430\\u0437\\u0438\'\\u043d\\u0443", u\'\\u0430\\u0431\\u0430\\u0437\\u0438\\u043d\\u044b\': u"\\u0430\\u0431\\u0430\\u0437\\u0438\'\\u043d\\u044b"}, u\'\\u0430\\u0431\\u0430\\u0437\\u0438\\u043d\\u0435\\u0446\': {u\'\\u0430\\u0431\\u0430\\u0437\\u0438\\u043d\\u0435\\u0446\': u"\\u0430\\u0431\\u0430\\u0437\\u0438\'\\u043d\\u0435\\u0446", u\'\\u0430\\u0431\\u0430\\u0437\\u0438\\u043d\\u0446\\u0430\': u"\\u0430\\u0431\\u0430\\u0437\\u0438\'\\u043d\\u0446\\u0430", u\'\\u0430\\u0431\\u0430\\u0437\\u0438\\u043d\\u0446\\u0430\\u043c\': u"\\u0430\\u0431\\u0430\\u0437\\u0438\'\\u043d\\u0446\\u0430\\u043c", u\'\\u0430\\u0431\\u0430\\u0437\\u0438\\u043d\\u0446\\u0430\\u043c\\u0438\': u"\\u0430\\u0431\\u0430\\u0437\\u0438\'\\u043d\\u0446\\u0430\\u043c\\u0438", u\'\\u0430\\u0431\\u0430\\u0437\\u0438\\u043d\\u0446\\u0430\\u0445\': u"\\u0430\\u0431\\u0430\\u0437\\u0438\'\\u043d\\u0446\\u0430\\u0445", u\'\\u0430\\u0431\\u0430\\u0437\\u0438\\u043d\\u0446\\u0435\': u"\\u0430\\u0431\\u0430\\u0437\\u0438\'\\u043d\\u0446\\u0435", u\'\\u0430\\u0431\\u0430\\u0437\\u0438\\u043d\\u0446\\u0435\\u0432\': u"\\u0430\\u0431\\u0430\\u0437\\u0438\'\\u043d\\u0446\\u0435\\u0432", u\'\\u0430\\u0431\\u0430\\u0437\\u0438\\u043d\\u0446\\u0435\\u043c\': u"\\u0430\\u0431\\u0430\\u0437\\u0438\'\\u043d\\u0446\\u0435\\u043c", u\'\\u0430\\u0431\\u0430\\u0437\\u0438\\u043d\\u0446\\u0443\': u"\\u0430\\u0431\\u0430\\u0437\\u0438\'\\u043d\\u0446\\u0443", u\'\\u0430\\u0431\\u0430\\u0437\\u0438\\u043d\\u0446\\u044b\': u"\\u0430\\u0431\\u0430\\u0437\\u0438\'\\u043d\\u0446\\u044b"}, u\'\\u0430\\u0431\\u0430\\u0437\\u0438\\u043d\\u043a\\u0430\': {u\'\\u0430\\u0431\\u0430\\u0437\\u0438\\u043d\\u043a\\u0430\': u"\\u0430\\u0431\\u0430\\u0437\\u0438\'\\u043d\\u043a\\u0430", u\'\\u0430\\u0431\\u0430\\u0437\\u0438\\u043d\\u043a\\u0430\\u043c\': u"\\u0430\\u0431\\u0430\\u0437\\u0438\'\\u043d\\u043a\\u0430\\u043c", u\'\\u0430\\u0431\\u0430\\u0437\\u0438\\u043d\\u043a\\u0430\\u043c\\u0438\': u"\\u0430\\u0431\\u0430\\u0437\\u0438\'\\u043d\\u043a\\u0430\\u043c\\u0438", u\'\\u0430\\u0431\\u0430\\u0437\\u0438\\u043d\\u043a\\u0430\\u0445\': u"\\u0430\\u0431\\u0430\\u0437\\u0438\'\\u043d\\u043a\\u0430\\u0445", u\'\\u0430\\u0431\\u0430\\u0437\\u0438\\u043d\\u043a\\u0435\': u"\\u0430\\u0431\\u0430\\u0437\\u0438\'\\u043d\\u043a\\u0435", u\'\\u0430\\u0431\\u0430\\u0437\\u0438\\u043d\\u043a\\u0438\': u"\\u0430\\u0431\\u0430\\u0437\\u0438\'\\u043d\\u043a\\u0438", u\'\\u0430\\u0431\\u0430\\u0437\\u0438\\u043d\\u043a\\u043e\\u0439\': u"\\u0430\\u0431\\u0430\\u0437\\u0438\'\\u043d\\u043a\\u043e\\u0439", u\'\\u0430\\u0431\\u0430\\u0437\\u0438\\u043d\\u043a\\u043e\\u044e\': u"\\u0430\\u0431\\u0430\\u0437\\u0438\'\\u043d\\u043a\\u043e\\u044e", u\'\\u0430\\u0431\\u0430\\u0437\\u0438\\u043d\\u043a\\u0443\': u"\\u0430\\u0431\\u0430\\u0437\\u0438\'\\u043d\\u043a\\u0443", u\'\\u0430\\u0431\\u0430\\u0437\\u0438\\u043d\\u043e\\u043a\': u"\\u0430\\u0431\\u0430\\u0437\\u0438\'\\u043d\\u043e\\u043a"}, u\'\\u0430\\u0431\\u0430\\u0437\\u0438\\u043d\\u0441\\u043a\\u0438\\u0439\': {u\'\\u0430\\u0431\\u0430\\u0437\\u0438\\u043d\\u0441\\u043a\': u"\\u0430\\u0431\\u0430\\u0437\\u0438\'\\u043d\\u0441\\u043a", u\'\\u0430\\u0431\\u0430\\u0437\\u0438\\u043d\\u0441\\u043a\\u0430\': u"\\u0430\\u0431\\u0430\\u0437\\u0438\'\\u043d\\u0441\\u043a\\u0430", u\'\\u0430\\u0431\\u0430\\u0437\\u0438\\u043d\\u0441\\u043a\\u0430\\u044f\': u"\\u0430\\u0431\\u0430\\u0437\\u0438\'\\u043d\\u0441\\u043a\\u0430\\u044f", u\'\\u0430\\u0431\\u0430\\u0437\\u0438\\u043d\\u0441\\u043a\\u0438\': u"\\u0430\\u0431\\u0430\\u0437\\u0438\'\\u043d\\u0441\\u043a\\u0438", u\'\\u0430\\u0431\\u0430\\u0437\\u0438\\u043d\\u0441\\u043a\\u0438\\u0435\': u"\\u0430\\u0431\\u0430\\u0437\\u0438\'\\u043d\\u0441\\u043a\\u0438\\u0435", u\'\\u0430\\u0431\\u0430\\u0437\\u0438\\u043d\\u0441\\u043a\\u0438\\u0439\': u"\\u0430\\u0431\\u0430\\u0437\\u0438\'\\u043d\\u0441\\u043a\\u0438\\u0439", u\'\\u0430\\u0431\\u0430\\u0437\\u0438\\u043d\\u0441\\u043a\\u0438\\u043c\': u"\\u0430\\u0431\\u0430\\u0437\\u0438\'\\u043d\\u0441\\u043a\\u0438\\u043c", u\'\\u0430\\u0431\\u0430\\u0437\\u0438\\u043d\\u0441\\u043a\\u0438\\u043c\\u0438\': u"\\u0430\\u0431\\u0430\\u0437\\u0438\'\\u043d\\u0441\\u043a\\u0438\\u043c\\u0438", u\'\\u0430\\u0431\\u0430\\u0437\\u0438\\u043d\\u0441\\u043a\\u0438\\u0445\': u"\\u0430\\u0431\\u0430\\u0437\\u0438\'\\u043d\\u0441\\u043a\\u0438\\u0445", u\'\\u0430\\u0431\\u0430\\u0437\\u0438\\u043d\\u0441\\u043a\\u043e\': u"\\u0430\\u0431\\u0430\\u0437\\u0438\'\\u043d\\u0441\\u043a\\u043e", ...}, u\'\\u0430\\u0431\\u0430\\u043a\': {u\'\\u0430\\u0431\\u0430\\u043a\': u"\\u0430\\u0431\\u0430\'\\u043a", u\'\\u0430\\u0431\\u0430\\u043a\\u0430\': u"\\u0430\\u0431\\u0430\'\\u043a\\u0430", u\'\\u0430\\u0431\\u0430\\u043a\\u0430\\u043c\': u"\\u0430\\u0431\\u0430\'\\u043a\\u0430\\u043c", u\'\\u0430\\u0431\\u0430\\u043a\\u0430\\u043c\\u0438\': u"\\u0430\\u0431\\u0430\'\\u043a\\u0430\\u043c\\u0438", u\'\\u0430\\u0431\\u0430\\u043a\\u0430\\u0445\': u"\\u0430\\u0431\\u0430\'\\u043a\\u0430\\u0445", u\'\\u0430\\u0431\\u0430\\u043a\\u0435\': u"\\u0430\\u0431\\u0430\'\\u043a\\u0435", u\'\\u0430\\u0431\\u0430\\u043a\\u0438\': u"\\u0430\\u0431\\u0430\'\\u043a\\u0438", u\'\\u0430\\u0431\\u0430\\u043a\\u043e\\u0432\': u"\\u0430\\u0431\\u0430\'\\u043a\\u043e\\u0432", u\'\\u0430\\u0431\\u0430\\u043a\\u043e\\u043c\': u"\\u0430\\u0431\\u0430\'\\u043a\\u043e\\u043c", u\'\\u0430\\u0431\\u0430\\u043a\\u0443\': u"\\u0430\\u0431\\u0430\'\\u043a\\u0443"}, ...}'
p126
sS'form'
p127
g107
sS'global stress'
p128
S'<function stress>'
p129
sS'd.stress'
p130
g107
sS'lemma'
p131
g107
sS's'
S'u"\\u0430\\u0440\\u0442\\u0440\\u043e\\u0442\\u043e\\u043c\\u0438\'\\u044f\\u0445"'
p132
sS'key'
p133
S"u'\\u0430\\u0440\\u0442\\u0440\\u043e\\u0442\\u043e\\u043c\\u0438\\u044f'"
p134
ssg70
I68
sg71
(dp135
I64
S'    l = []'
p136
sI65
S'    for key, i in d.items():'
p137
sI66
S'        for word, s in i.items():'
p138
sI67
S'            #l.append([key, word, s])'
p139
sI68
S'            d.stress.insert(lemma = key, form = word, stress = s)'
p140
sI69
S'    msg = "\xd0\x92\xd1\x81\xd0\xb5"'
p141
sI70
S'    return dict(msg=msg)'
p142
sI61
S"    filename = '/home/concordance/web2py/applications/test/rhymes/stress/a.json'"
p143
sI62
S"    with open(filename, 'rb') as outfile:"
p144
sI63
S'        d = json.load(outfile)'
p145
ssg83
S'()'
p146
sg85
S'stress_db'
p147
sasS'pyver'
p148
S'Python 2.7.6: /usr/local/bin/uwsgi (prefix: /usr)'
p149
sS'session'
p150
g57
(S's6\x01\x00\x00<div><table><tr><td style="font-weight:bold;vertical-align:top;">last_orderby</td><td style="vertical-align:top;">:</td><td><div>None</div></td></tr><tr><td style="font-weight:bold;vertical-align:top;">last_query</td><td style="vertical-align:top;">:</td><td><div>d.stress.id&gt;0</div></td></tr></table></div>'
tRp151
sS'etype'
p152
S"<type 'exceptions.AttributeError'>"
p153
sS'date'
p154
S'Sun Jan 15 02:04:28 2017'
p155
sS'response'
p156
g57
(S's\x86\x1e\x00\x00<div><table><tr><td style="font-weight:bold;vertical-align:top;">body</td><td style="vertical-align:top;">:</td><td><div>&lt;cStringIO.StringO object at 0x7ff1c2e7b030&gt;</div></td></tr><tr><td style="font-weight:bold;vertical-align:top;">cookies</td><td style="vertical-align:top;">:</td><td><div><table><tr><td style="font-weight:bold;vertical-align:top;">session_id_test</td><td style="vertical-align:top;">:</td><td><div>46.101.16.229-06e011a5-7dfa-444f-aa81-2f76a54cf436<table><tr><td style="font-weight:bold;vertical-align:top;">comment</td><td style="vertical-align:top;">:</td><td><div></div></td></tr><tr><td style="font-weight:bold;vertical-align:top;">domain</td><td style="vertical-align:top;">:</td><td><div></div></td></tr><tr><td style="font-weight:bold;vertical-align:top;">expires</td><td style="vertical-align:top;">:</td><td><div></div></td></tr><tr><td style="font-weight:bold;vertical-align:top;">httponly</td><td style="vertical-align:top;">:</td><td><div></div></td></tr><tr><td style="font-weight:bold;vertical-align:top;">max-age</td><td style="vertical-align:top;">:</td><td><div></div></td></tr><tr><td style="font-weight:bold;vertical-align:top;">path</td><td style="vertical-align:top;">:</td><td><div>/</div></td></tr><tr><td style="font-weight:bold;vertical-align:top;">secure</td><td style="vertical-align:top;">:</td><td><div></div></td></tr><tr><td style="font-weight:bold;vertical-align:top;">version</td><td style="vertical-align:top;">:</td><td><div></div></td></tr></table></div></td></tr></table></div></td></tr><tr><td style="font-weight:bold;vertical-align:top;">delimiters</td><td style="vertical-align:top;">:</td><td><div><table><tr><td><div>{{</div></td></tr><tr><td><div>}}</div></td></tr></table></div></td></tr><tr><td style="font-weight:bold;vertical-align:top;">files</td><td style="vertical-align:top;">:</td><td><div><table></table></div></td></tr><tr><td style="font-weight:bold;vertical-align:top;">flash</td><td style="vertical-align:top;">:</td><td><div></div></td></tr><tr><td style="font-weight:bold;vertical-align:top;">generic_patterns</td><td style="vertical-align:top;">:</td><td><div><table></table></div></td></tr><tr><td style="font-weight:bold;vertical-align:top;">google_analytics_id</td><td style="vertical-align:top;">:</td><td><div>UA-52567545-1</div></td></tr><tr><td style="font-weight:bold;vertical-align:top;">headers</td><td style="vertical-align:top;">:</td><td><div><table><tr><td style="font-weight:bold;vertical-align:top;">X-Powered-By</td><td style="vertical-align:top;">:</td><td><div>web2py</div></td></tr></table></div></td></tr><tr><td style="font-weight:bold;vertical-align:top;">logo</td><td style="vertical-align:top;">:</td><td><div><a class="brand" href="http://concordances.ru"><b>concor<span>dances</span></b>.ru</a></div></td></tr><tr><td style="font-weight:bold;vertical-align:top;">menu</td><td style="vertical-align:top;">:</td><td><div><table><tr><td><div><table><tr><td><div>Home</div></td></tr><tr><td><div>False</div></td></tr><tr><td><div>/test/default/index</div></td></tr><tr><td><div><table></table></div></td></tr></table></div></td></tr><tr><td><div><table><tr><td><div><span class="highlighted">web2py</span></div></td></tr><tr><td><div>False</div></td></tr><tr><td><div>http://concordances.ru</div></td></tr><tr><td><div><table><tr><td><div><table><tr><td><div>\xd0\x9e \xd0\xbf\xd1\x80\xd0\xbe\xd0\xb5\xd0\xba\xd1\x82\xd0\xb5</div></td></tr><tr><td><div>False</div></td></tr><tr><td><div>/admin/default/about/test</div></td></tr></table></div></td></tr><tr><td><div><table><tr><td><div>\xd0\x90\xd0\xb4\xd0\xbc\xd0\xb8\xd0\xbd\xd0\xba\xd0\xb0</div></td></tr><tr><td><div>False</div></td></tr><tr><td><div>/admin/default/edit/test/controllers/stress.py</div></td></tr></table></div></td></tr></table></div></td></tr></table></div></td></tr></table></div></td></tr><tr><td style="font-weight:bold;vertical-align:top;">meta</td><td style="vertical-align:top;">:</td><td><div><table><tr><td style="font-weight:bold;vertical-align:top;">author</td><td style="vertical-align:top;">:</td><td><div>Maria Levchenko &lt;marylevchenko@gmail.com&gt;</div></td></tr><tr><td style="font-weight:bold;vertical-align:top;">generator</td><td style="vertical-align:top;">:</td><td><div>\xd0\xa7\xd0\xb0\xd1\x81\xd1\x82\xd0\xbe\xd1\x82\xd0\xbd\xd1\x8b\xd0\xb9 \xd1\x81\xd0\xbb\xd0\xbe\xd0\xb2\xd0\xb0\xd1\x80\xd1\x8c \xd1\x80\xd1\x83\xd1\x81\xd1\x81\xd0\xba\xd0\xbe\xd0\xb9 \xd0\xbb\xd0\xb8\xd1\x82\xd0\xb5\xd1\x80\xd0\xb0\xd1\x82\xd1\x83\xd1\x80\xd1\x8b</div></td></tr><tr><td style="font-weight:bold;vertical-align:top;">keywords</td><td style="vertical-align:top;">:</td><td><div>concordance, natural language processing, critics</div></td></tr></table></div></td></tr><tr><td style="font-weight:bold;vertical-align:top;">models_to_run</td><td style="vertical-align:top;">:</td><td><div><table><tr><td><div>^\\w+\\.py$</div></td></tr><tr><td><div>^stress/\\w+\\.py$</div></td></tr><tr><td><div>^stress/stress_db/\\w+\\.py$</div></td></tr></table></div></td></tr><tr><td style="font-weight:bold;vertical-align:top;">postprocessing</td><td style="vertical-align:top;">:</td><td><div><table></table></div></td></tr><tr><td style="font-weight:bold;vertical-align:top;">session_client</td><td style="vertical-align:top;">:</td><td><div>217.118.78.39</div></td></tr><tr><td style="font-weight:bold;vertical-align:top;">session_cookie_compression_level</td><td style="vertical-align:top;">:</td><td><div>None</div></td></tr><tr><td style="font-weight:bold;vertical-align:top;">session_cookie_expires</td><td style="vertical-align:top;">:</td><td><div>None</div></td></tr><tr><td style="font-weight:bold;vertical-align:top;">session_cookie_key</td><td style="vertical-align:top;">:</td><td><div>None</div></td></tr><tr><td style="font-weight:bold;vertical-align:top;">session_data_name</td><td style="vertical-align:top;">:</td><td><div>session_data_test</div></td></tr><tr><td style="font-weight:bold;vertical-align:top;">session_file</td><td style="vertical-align:top;">:</td><td><div>&lt;open file &#x27;/home/concordance/web2py/applications/test/sessions/46.101.16.229-06e011a5-7dfa-444f-aa81-2f76a54cf436&#x27;, mode &#x27;rb+&#x27; at 0x7ff1c35b40c0&gt;</div></td></tr><tr><td style="font-weight:bold;vertical-align:top;">session_filename</td><td style="vertical-align:top;">:</td><td><div>/home/concordance/web2py/applications/test/sessions/46.101.16.229-06e011a5-7dfa-444f-aa81-2f76a54cf436</div></td></tr><tr><td style="font-weight:bold;vertical-align:top;">session_hash</td><td style="vertical-align:top;">:</td><td><div>60a742176a31f74d2b63fc3c6ce01227</div></td></tr><tr><td style="font-weight:bold;vertical-align:top;">session_id</td><td style="vertical-align:top;">:</td><td><div>46.101.16.229-06e011a5-7dfa-444f-aa81-2f76a54cf436</div></td></tr><tr><td style="font-weight:bold;vertical-align:top;">session_id_name</td><td style="vertical-align:top;">:</td><td><div>session_id_test</div></td></tr><tr><td style="font-weight:bold;vertical-align:top;">session_locked</td><td style="vertical-align:top;">:</td><td><div>True</div></td></tr><tr><td style="font-weight:bold;vertical-align:top;">session_masterapp</td><td style="vertical-align:top;">:</td><td><div>test</div></td></tr><tr><td style="font-weight:bold;vertical-align:top;">session_new</td><td style="vertical-align:top;">:</td><td><div>False</div></td></tr><tr><td style="font-weight:bold;vertical-align:top;">session_storage_type</td><td style="vertical-align:top;">:</td><td><div>file</div></td></tr><tr><td style="font-weight:bold;vertical-align:top;">status</td><td style="vertical-align:top;">:</td><td><div>200</div></td></tr><tr><td style="font-weight:bold;vertical-align:top;">subtitle</td><td style="vertical-align:top;">:</td><td><div></div></td></tr><tr><td style="font-weight:bold;vertical-align:top;">title</td><td style="vertical-align:top;">:</td><td><div>Test</div></td></tr><tr><td style="font-weight:bold;vertical-align:top;">view</td><td style="vertical-align:top;">:</td><td><div>stress/stress_db.html</div></td></tr></table></div>'
tRp157
sS'locals'
p158
(dp159
S'word'
p160
S"u'\\u0430\\u0440\\u0442\\u0440\\u043e\\u0442\\u043e\\u043c\\u0438\\u044f\\u0445'"
p161
sS'd'
S'{u\'\\u0430\': {u\'\\u0430\': u\'\\u0430\'}, u\'\\u0430\\u0431\\u0430\': {u\'\\u0430\\u0431\': u"\\u0430\'\\u0431", u\'\\u0430\\u0431\\u0430\': u"\\u0430\\u0431\\u0430\'", u\'\\u0430\\u0431\\u0430\\u043c\': u"\\u0430\\u0431\\u0430\'\\u043c", u\'\\u0430\\u0431\\u0430\\u043c\\u0438\': u"\\u0430\\u0431\\u0430\'\\u043c\\u0438", u\'\\u0430\\u0431\\u0430\\u0445\': u"\\u0430\\u0431\\u0430\'\\u0445", u\'\\u0430\\u0431\\u0435\': u"\\u0430\\u0431\\u0435\'", u\'\\u0430\\u0431\\u043e\\u0439\': u"\\u0430\\u0431\\u043e\'\\u0439", u\'\\u0430\\u0431\\u043e\\u044e\': u"\\u0430\\u0431\\u043e\'\\u044e", u\'\\u0430\\u0431\\u0443\': u"\\u0430\\u0431\\u0443\'", u\'\\u0430\\u0431\\u044b\': u"\\u0430\\u0431\\u044b\'"}, u\'\\u0430\\u0431\\u0430\\u0436\\u0443\\u0440\': {u\'\\u0430\\u0431\\u0430\\u0436\\u0443\\u0440\': u"\\u0430\\u0431\\u0430\\u0436\\u0443\'\\u0440", u\'\\u0430\\u0431\\u0430\\u0436\\u0443\\u0440\\u0430\': u"\\u0430\\u0431\\u0430\\u0436\\u0443\'\\u0440\\u0430", u\'\\u0430\\u0431\\u0430\\u0436\\u0443\\u0440\\u0430\\u043c\': u"\\u0430\\u0431\\u0430\\u0436\\u0443\'\\u0440\\u0430\\u043c", u\'\\u0430\\u0431\\u0430\\u0436\\u0443\\u0440\\u0430\\u043c\\u0438\': u"\\u0430\\u0431\\u0430\\u0436\\u0443\'\\u0440\\u0430\\u043c\\u0438", u\'\\u0430\\u0431\\u0430\\u0436\\u0443\\u0440\\u0430\\u0445\': u"\\u0430\\u0431\\u0430\\u0436\\u0443\'\\u0440\\u0430\\u0445", u\'\\u0430\\u0431\\u0430\\u0436\\u0443\\u0440\\u0435\': u"\\u0430\\u0431\\u0430\\u0436\\u0443\'\\u0440\\u0435", u\'\\u0430\\u0431\\u0430\\u0436\\u0443\\u0440\\u043e\\u0432\': u"\\u0430\\u0431\\u0430\\u0436\\u0443\'\\u0440\\u043e\\u0432", u\'\\u0430\\u0431\\u0430\\u0436\\u0443\\u0440\\u043e\\u043c\': u"\\u0430\\u0431\\u0430\\u0436\\u0443\'\\u0440\\u043e\\u043c", u\'\\u0430\\u0431\\u0430\\u0436\\u0443\\u0440\\u0443\': u"\\u0430\\u0431\\u0430\\u0436\\u0443\'\\u0440\\u0443", u\'\\u0430\\u0431\\u0430\\u0436\\u0443\\u0440\\u044b\': u"\\u0430\\u0431\\u0430\\u0436\\u0443\'\\u0440\\u044b"}, u\'\\u0430\\u0431\\u0430\\u0436\\u0443\\u0440\\u043d\\u044b\\u0439\': {u\'\\u0430\\u0431\\u0430\\u0436\\u0443\\u0440\\u0435\\u043d\': u"\\u0430\\u0431\\u0430\\u0436\\u0443\'\\u0440\\u0435\\u043d", u\'\\u0430\\u0431\\u0430\\u0436\\u0443\\u0440\\u043d\\u0430\': u"\\u0430\\u0431\\u0430\\u0436\\u0443\'\\u0440\\u043d\\u0430", u\'\\u0430\\u0431\\u0430\\u0436\\u0443\\u0440\\u043d\\u0430\\u044f\': u"\\u0430\\u0431\\u0430\\u0436\\u0443\'\\u0440\\u043d\\u0430\\u044f", u\'\\u0430\\u0431\\u0430\\u0436\\u0443\\u0440\\u043d\\u0435\\u0435\': u"\\u0430\\u0431\\u0430\\u0436\\u0443\'\\u0440\\u043d\\u0435\\u0435", u\'\\u0430\\u0431\\u0430\\u0436\\u0443\\u0440\\u043d\\u0435\\u0439\': u"\\u0430\\u0431\\u0430\\u0436\\u0443\'\\u0440\\u043d\\u0435\\u0439", u\'\\u0430\\u0431\\u0430\\u0436\\u0443\\u0440\\u043d\\u043e\': u"\\u0430\\u0431\\u0430\\u0436\\u0443\'\\u0440\\u043d\\u043e", u\'\\u0430\\u0431\\u0430\\u0436\\u0443\\u0440\\u043d\\u043e\\u0433\\u043e\': u"\\u0430\\u0431\\u0430\\u0436\\u0443\'\\u0440\\u043d\\u043e\\u0433\\u043e", u\'\\u0430\\u0431\\u0430\\u0436\\u0443\\u0440\\u043d\\u043e\\u0435\': u"\\u0430\\u0431\\u0430\\u0436\\u0443\'\\u0440\\u043d\\u043e\\u0435", u\'\\u0430\\u0431\\u0430\\u0436\\u0443\\u0440\\u043d\\u043e\\u0439\': u"\\u0430\\u0431\\u0430\\u0436\\u0443\'\\u0440\\u043d\\u043e\\u0439", u\'\\u0430\\u0431\\u0430\\u0436\\u0443\\u0440\\u043d\\u043e\\u043c\': u"\\u0430\\u0431\\u0430\\u0436\\u0443\'\\u0440\\u043d\\u043e\\u043c", ...}, u\'\\u0430\\u0431\\u0430\\u0437\': {u\'\\u0430\\u0431\\u0430\\u0437\': u"\\u0430\\u0431\\u0430\'\\u0437", u\'\\u0430\\u0431\\u0430\\u0437\\u0430\': u"\\u0430\\u0431\\u0430\'\\u0437\\u0430", u\'\\u0430\\u0431\\u0430\\u0437\\u0430\\u043c\': u"\\u0430\\u0431\\u0430\'\\u0437\\u0430\\u043c", u\'\\u0430\\u0431\\u0430\\u0437\\u0430\\u043c\\u0438\': u"\\u0430\\u0431\\u0430\'\\u0437\\u0430\\u043c\\u0438", u\'\\u0430\\u0431\\u0430\\u0437\\u0430\\u0445\': u"\\u0430\\u0431\\u0430\'\\u0437\\u0430\\u0445", u\'\\u0430\\u0431\\u0430\\u0437\\u0435\': u"\\u0430\\u0431\\u0430\'\\u0437\\u0435", u\'\\u0430\\u0431\\u0430\\u0437\\u043e\\u0432\': u"\\u0430\\u0431\\u0430\'\\u0437\\u043e\\u0432", u\'\\u0430\\u0431\\u0430\\u0437\\u043e\\u043c\': u"\\u0430\\u0431\\u0430\'\\u0437\\u043e\\u043c", u\'\\u0430\\u0431\\u0430\\u0437\\u0443\': u"\\u0430\\u0431\\u0430\'\\u0437\\u0443", u\'\\u0430\\u0431\\u0430\\u0437\\u044b\': u"\\u0430\\u0431\\u0430\'\\u0437\\u044b"}, u\'\\u0430\\u0431\\u0430\\u0437\\u0438\\u043d\': {u\'\\u0430\\u0431\\u0430\\u0437\\u0438\\u043d\': u"\\u0430\\u0431\\u0430\\u0437\\u0438\'\\u043d", u\'\\u0430\\u0431\\u0430\\u0437\\u0438\\u043d\\u0430\': u"\\u0430\\u0431\\u0430\\u0437\\u0438\'\\u043d\\u0430", u\'\\u0430\\u0431\\u0430\\u0437\\u0438\\u043d\\u0430\\u043c\': u"\\u0430\\u0431\\u0430\\u0437\\u0438\'\\u043d\\u0430\\u043c", u\'\\u0430\\u0431\\u0430\\u0437\\u0438\\u043d\\u0430\\u043c\\u0438\': u"\\u0430\\u0431\\u0430\\u0437\\u0438\'\\u043d\\u0430\\u043c\\u0438", u\'\\u0430\\u0431\\u0430\\u0437\\u0438\\u043d\\u0430\\u0445\': u"\\u0430\\u0431\\u0430\\u0437\\u0438\'\\u043d\\u0430\\u0445", u\'\\u0430\\u0431\\u0430\\u0437\\u0438\\u043d\\u0435\': u"\\u0430\\u0431\\u0430\\u0437\\u0438\'\\u043d\\u0435", u\'\\u0430\\u0431\\u0430\\u0437\\u0438\\u043d\\u043e\\u043c\': u"\\u0430\\u0431\\u0430\\u0437\\u0438\'\\u043d\\u043e\\u043c", u\'\\u0430\\u0431\\u0430\\u0437\\u0438\\u043d\\u0443\': u"\\u0430\\u0431\\u0430\\u0437\\u0438\'\\u043d\\u0443", u\'\\u0430\\u0431\\u0430\\u0437\\u0438\\u043d\\u044b\': u"\\u0430\\u0431\\u0430\\u0437\\u0438\'\\u043d\\u044b"}, u\'\\u0430\\u0431\\u0430\\u0437\\u0438\\u043d\\u0435\\u0446\': {u\'\\u0430\\u0431\\u0430\\u0437\\u0438\\u043d\\u0435\\u0446\': u"\\u0430\\u0431\\u0430\\u0437\\u0438\'\\u043d\\u0435\\u0446", u\'\\u0430\\u0431\\u0430\\u0437\\u0438\\u043d\\u0446\\u0430\': u"\\u0430\\u0431\\u0430\\u0437\\u0438\'\\u043d\\u0446\\u0430", u\'\\u0430\\u0431\\u0430\\u0437\\u0438\\u043d\\u0446\\u0430\\u043c\': u"\\u0430\\u0431\\u0430\\u0437\\u0438\'\\u043d\\u0446\\u0430\\u043c", u\'\\u0430\\u0431\\u0430\\u0437\\u0438\\u043d\\u0446\\u0430\\u043c\\u0438\': u"\\u0430\\u0431\\u0430\\u0437\\u0438\'\\u043d\\u0446\\u0430\\u043c\\u0438", u\'\\u0430\\u0431\\u0430\\u0437\\u0438\\u043d\\u0446\\u0430\\u0445\': u"\\u0430\\u0431\\u0430\\u0437\\u0438\'\\u043d\\u0446\\u0430\\u0445", u\'\\u0430\\u0431\\u0430\\u0437\\u0438\\u043d\\u0446\\u0435\': u"\\u0430\\u0431\\u0430\\u0437\\u0438\'\\u043d\\u0446\\u0435", u\'\\u0430\\u0431\\u0430\\u0437\\u0438\\u043d\\u0446\\u0435\\u0432\': u"\\u0430\\u0431\\u0430\\u0437\\u0438\'\\u043d\\u0446\\u0435\\u0432", u\'\\u0430\\u0431\\u0430\\u0437\\u0438\\u043d\\u0446\\u0435\\u043c\': u"\\u0430\\u0431\\u0430\\u0437\\u0438\'\\u043d\\u0446\\u0435\\u043c", u\'\\u0430\\u0431\\u0430\\u0437\\u0438\\u043d\\u0446\\u0443\': u"\\u0430\\u0431\\u0430\\u0437\\u0438\'\\u043d\\u0446\\u0443", u\'\\u0430\\u0431\\u0430\\u0437\\u0438\\u043d\\u0446\\u044b\': u"\\u0430\\u0431\\u0430\\u0437\\u0438\'\\u043d\\u0446\\u044b"}, u\'\\u0430\\u0431\\u0430\\u0437\\u0438\\u043d\\u043a\\u0430\': {u\'\\u0430\\u0431\\u0430\\u0437\\u0438\\u043d\\u043a\\u0430\': u"\\u0430\\u0431\\u0430\\u0437\\u0438\'\\u043d\\u043a\\u0430", u\'\\u0430\\u0431\\u0430\\u0437\\u0438\\u043d\\u043a\\u0430\\u043c\': u"\\u0430\\u0431\\u0430\\u0437\\u0438\'\\u043d\\u043a\\u0430\\u043c", u\'\\u0430\\u0431\\u0430\\u0437\\u0438\\u043d\\u043a\\u0430\\u043c\\u0438\': u"\\u0430\\u0431\\u0430\\u0437\\u0438\'\\u043d\\u043a\\u0430\\u043c\\u0438", u\'\\u0430\\u0431\\u0430\\u0437\\u0438\\u043d\\u043a\\u0430\\u0445\': u"\\u0430\\u0431\\u0430\\u0437\\u0438\'\\u043d\\u043a\\u0430\\u0445", u\'\\u0430\\u0431\\u0430\\u0437\\u0438\\u043d\\u043a\\u0435\': u"\\u0430\\u0431\\u0430\\u0437\\u0438\'\\u043d\\u043a\\u0435", u\'\\u0430\\u0431\\u0430\\u0437\\u0438\\u043d\\u043a\\u0438\': u"\\u0430\\u0431\\u0430\\u0437\\u0438\'\\u043d\\u043a\\u0438", u\'\\u0430\\u0431\\u0430\\u0437\\u0438\\u043d\\u043a\\u043e\\u0439\': u"\\u0430\\u0431\\u0430\\u0437\\u0438\'\\u043d\\u043a\\u043e\\u0439", u\'\\u0430\\u0431\\u0430\\u0437\\u0438\\u043d\\u043a\\u043e\\u044e\': u"\\u0430\\u0431\\u0430\\u0437\\u0438\'\\u043d\\u043a\\u043e\\u044e", u\'\\u0430\\u0431\\u0430\\u0437\\u0438\\u043d\\u043a\\u0443\': u"\\u0430\\u0431\\u0430\\u0437\\u0438\'\\u043d\\u043a\\u0443", u\'\\u0430\\u0431\\u0430\\u0437\\u0438\\u043d\\u043e\\u043a\': u"\\u0430\\u0431\\u0430\\u0437\\u0438\'\\u043d\\u043e\\u043a"}, u\'\\u0430\\u0431\\u0430\\u0437\\u0438\\u043d\\u0441\\u043a\\u0438\\u0439\': {u\'\\u0430\\u0431\\u0430\\u0437\\u0438\\u043d\\u0441\\u043a\': u"\\u0430\\u0431\\u0430\\u0437\\u0438\'\\u043d\\u0441\\u043a", u\'\\u0430\\u0431\\u0430\\u0437\\u0438\\u043d\\u0441\\u043a\\u0430\': u"\\u0430\\u0431\\u0430\\u0437\\u0438\'\\u043d\\u0441\\u043a\\u0430", u\'\\u0430\\u0431\\u0430\\u0437\\u0438\\u043d\\u0441\\u043a\\u0430\\u044f\': u"\\u0430\\u0431\\u0430\\u0437\\u0438\'\\u043d\\u0441\\u043a\\u0430\\u044f", u\'\\u0430\\u0431\\u0430\\u0437\\u0438\\u043d\\u0441\\u043a\\u0438\': u"\\u0430\\u0431\\u0430\\u0437\\u0438\'\\u043d\\u0441\\u043a\\u0438", u\'\\u0430\\u0431\\u0430\\u0437\\u0438\\u043d\\u0441\\u043a\\u0438\\u0435\': u"\\u0430\\u0431\\u0430\\u0437\\u0438\'\\u043d\\u0441\\u043a\\u0438\\u0435", u\'\\u0430\\u0431\\u0430\\u0437\\u0438\\u043d\\u0441\\u043a\\u0438\\u0439\': u"\\u0430\\u0431\\u0430\\u0437\\u0438\'\\u043d\\u0441\\u043a\\u0438\\u0439", u\'\\u0430\\u0431\\u0430\\u0437\\u0438\\u043d\\u0441\\u043a\\u0438\\u043c\': u"\\u0430\\u0431\\u0430\\u0437\\u0438\'\\u043d\\u0441\\u043a\\u0438\\u043c", u\'\\u0430\\u0431\\u0430\\u0437\\u0438\\u043d\\u0441\\u043a\\u0438\\u043c\\u0438\': u"\\u0430\\u0431\\u0430\\u0437\\u0438\'\\u043d\\u0441\\u043a\\u0438\\u043c\\u0438", u\'\\u0430\\u0431\\u0430\\u0437\\u0438\\u043d\\u0441\\u043a\\u0438\\u0445\': u"\\u0430\\u0431\\u0430\\u0437\\u0438\'\\u043d\\u0441\\u043a\\u0438\\u0445", u\'\\u0430\\u0431\\u0430\\u0437\\u0438\\u043d\\u0441\\u043a\\u043e\': u"\\u0430\\u0431\\u0430\\u0437\\u0438\'\\u043d\\u0441\\u043a\\u043e", ...}, u\'\\u0430\\u0431\\u0430\\u043a\': {u\'\\u0430\\u0431\\u0430\\u043a\': u"\\u0430\\u0431\\u0430\'\\u043a", u\'\\u0430\\u0431\\u0430\\u043a\\u0430\': u"\\u0430\\u0431\\u0430\'\\u043a\\u0430", u\'\\u0430\\u0431\\u0430\\u043a\\u0430\\u043c\': u"\\u0430\\u0431\\u0430\'\\u043a\\u0430\\u043c", u\'\\u0430\\u0431\\u0430\\u043a\\u0430\\u043c\\u0438\': u"\\u0430\\u0431\\u0430\'\\u043a\\u0430\\u043c\\u0438", u\'\\u0430\\u0431\\u0430\\u043a\\u0430\\u0445\': u"\\u0430\\u0431\\u0430\'\\u043a\\u0430\\u0445", u\'\\u0430\\u0431\\u0430\\u043a\\u0435\': u"\\u0430\\u0431\\u0430\'\\u043a\\u0435", u\'\\u0430\\u0431\\u0430\\u043a\\u0438\': u"\\u0430\\u0431\\u0430\'\\u043a\\u0438", u\'\\u0430\\u0431\\u0430\\u043a\\u043e\\u0432\': u"\\u0430\\u0431\\u0430\'\\u043a\\u043e\\u0432", u\'\\u0430\\u0431\\u0430\\u043a\\u043e\\u043c\': u"\\u0430\\u0431\\u0430\'\\u043a\\u043e\\u043c", u\'\\u0430\\u0431\\u0430\\u043a\\u0443\': u"\\u0430\\u0431\\u0430\'\\u043a\\u0443"}, ...}'
p162
sS'i'
S'{u\'\\u0430\\u0440\\u0442\\u0440\\u043e\\u0442\\u043e\\u043c\\u0438\\u0435\\u0439\': u"\\u0430\\u0440\\u0442\\u0440\\u043e\\u0442\\u043e\\u043c\\u0438\'\\u0435\\u0439", u\'\\u0430\\u0440\\u0442\\u0440\\u043e\\u0442\\u043e\\u043c\\u0438\\u0435\\u044e\': u"\\u0430\\u0440\\u0442\\u0440\\u043e\\u0442\\u043e\\u043c\\u0438\'\\u0435\\u044e", u\'\\u0430\\u0440\\u0442\\u0440\\u043e\\u0442\\u043e\\u043c\\u0438\\u0438\': u"\\u0430\\u0440\\u0442\\u0440\\u043e\\u0442\\u043e\\u043c\\u0438\'\\u0438", u\'\\u0430\\u0440\\u0442\\u0440\\u043e\\u0442\\u043e\\u043c\\u0438\\u0439\': u"\\u0430\\u0440\\u0442\\u0440\\u043e\\u0442\\u043e\\u043c\\u0438\'\\u0439", u\'\\u0430\\u0440\\u0442\\u0440\\u043e\\u0442\\u043e\\u043c\\u0438\\u044e\': u"\\u0430\\u0440\\u0442\\u0440\\u043e\\u0442\\u043e\\u043c\\u0438\'\\u044e", u\'\\u0430\\u0440\\u0442\\u0440\\u043e\\u0442\\u043e\\u043c\\u0438\\u044f\': u"\\u0430\\u0440\\u0442\\u0440\\u043e\\u0442\\u043e\\u043c\\u0438\'\\u044f", u\'\\u0430\\u0440\\u0442\\u0440\\u043e\\u0442\\u043e\\u043c\\u0438\\u044f\\u043c\': u"\\u0430\\u0440\\u0442\\u0440\\u043e\\u0442\\u043e\\u043c\\u0438\'\\u044f\\u043c", u\'\\u0430\\u0440\\u0442\\u0440\\u043e\\u0442\\u043e\\u043c\\u0438\\u044f\\u043c\\u0438\': u"\\u0430\\u0440\\u0442\\u0440\\u043e\\u0442\\u043e\\u043c\\u0438\'\\u044f\\u043c\\u0438", u\'\\u0430\\u0440\\u0442\\u0440\\u043e\\u0442\\u043e\\u043c\\u0438\\u044f\\u0445\': u"\\u0430\\u0440\\u0442\\u0440\\u043e\\u0442\\u043e\\u043c\\u0438\'\\u044f\\u0445"}'
p163
sS'l'
S'[]'
p164
sS'filename'
p165
S"'/home/concordance/web2py/applications/test/rhymes/stress/a.json'"
p166
sS'outfile'
p167
S"<closed file '/home/concordance/web2py/applications/test/rhymes/stress/a.json', mode 'rb'>"
p168
sS's'
S'u"\\u0430\\u0440\\u0442\\u0440\\u043e\\u0442\\u043e\\u043c\\u0438\'\\u044f\\u0445"'
p169
sS'key'
p170
S"u'\\u0430\\u0440\\u0442\\u0440\\u043e\\u0442\\u043e\\u043c\\u0438\\u044f'"
p171
sssS'traceback'
p172
S'Traceback (most recent call last):\n  File "/home/concordance/web2py/gluon/restricted.py", line 220, in restricted\n    exec ccode in environment\n  File "/home/concordance/web2py/applications/test/controllers/stress.py", line 72, in <module>\n  File "/home/concordance/web2py/gluon/globals.py", line 385, in <lambda>\n    self._caller = lambda f: f()\n  File "/home/concordance/web2py/applications/test/controllers/stress.py", line 68, in stress_db\n    d.stress.insert(lemma = key, form = word, stress = s)\nAttributeError: \'dict\' object has no attribute \'stress\'\n'
p173
s.