(dp1
S'output'
p2
S"<type 'exceptions.IOError'> [Errno 2] No such file or directory: '/home/concordance/web2py/applications/test/uploads/8__1117.txt'"
p3
sS'layer'
p4
S'/home/concordance/web2py/applications/test/controllers/show.py'
p5
sS'code'
p6
S'# coding: utf8\n# \xd0\xbf\xd0\xbe\xd0\xbf\xd1\x80\xd0\xbe\xd0\xb1\xd0\xbe\xd0\xb2\xd0\xb0\xd1\x82\xd1\x8c \xd1\x87\xd1\x82\xd0\xbe-\xd0\xbb\xd0\xb8\xd0\xb1\xd0\xbe \xd0\xb2\xd0\xb8\xd0\xb4\xd0\xb0\nfrom xml.etree import cElementTree as ET\nimport difflib\nimport re\n\ndef show1():   # show text from file\n    texts = trymysql(trymysql.text1.id==request.args(0)).select().first()\n    f = open(texts.filename, \'rb\')\n    content = f.readlines()\n    image = [all.url for all in d(d.pages.text==request.args(0)).select()]\n    return dict(texts=texts, content=content, image=image)\n\ndef show2(): # \xd0\xb2\xd0\xb0\xd1\x80\xd0\xb8\xd0\xb0\xd0\xbd\xd1\x82\xd1\x8b \xd0\xb8\xd0\xb7 \xd1\x82\xd0\xb5\xd0\xba\xd1\x81\xd1\x82\xd0\xbe\xd0\xb2\xd0\xbe\xd0\xb3\xd0\xbe \xd1\x84\xd0\xb0\xd0\xb9\xd0\xbb\xd0\xb0, \xd0\xbf\xd1\x80\xd0\xbe\xd0\xb1\xd0\xbb\xd0\xb5\xd0\xbc\xd0\xb0 \xd1\x81 \xd0\xbf\xd1\x83\xd1\x81\xd1\x82\xd1\x8b\xd0\xbc\xd0\xb8 \xd1\x81\xd1\x82\xd1\x80\xd0\xbe\xd0\xba\xd0\xb0\xd0\xbc\xd0\xb8 \xd0\xbc\xd0\xb5\xd0\xb6\xd0\xb4\xd1\x83 \xd1\x81\xd1\x82\xd1\x80\xd0\xbe\xd1\x84\xd0\xb0\xd0\xbc\xd0\xb8\n    text = trymysql(trymysql.text1.id==483).select()[0]\n    words_numbers = [all.id for all in trymysql(trymysql.allword.title==text.id).select()]\n    f = open(text.filename, \'rb\')\n    content = f.readlines()\n    f.close()\n    var = trymysql(trymysql.variants.title==text.id).select(orderby=trymysql.variants.line)\n    words = [all.comment_text for all in var]\n    lines = [all.line for all in var]\n    #lines=[1,15]\n    return dict(text=text, content = content, words=words, lines=lines, var=var)\n\ndef show3(): #variants from txt files\n    text = trymysql(trymysql.text1.id==request.args(0)).select().first()\n    filename1 = text.filename\n    book = [text.book]\n    t1 = open(filename1, \'rb\')\n    text1 = t1.readlines()\n    # \xd0\xb8\xd1\x89\xd0\xb5\xd0\xbc \xd0\xb2\xd0\xb0\xd1\x80\xd0\xb8\xd0\xb0\xd0\xbd\xd1\x82\xd1\x8b \xd0\xb2 trymysql.drafts\n    variant = trymysql(trymysql.drafts.text==request.args(0)).select()\n    table = []\n    biblio = [text.book]\n    biblio1=[]\n    other = []\n    seq = []\n    for all in variant:\n        filename2 = all.filename\n        book.append(all.book.short)\n        t2 = open(filename2, \'rb\')\n        text2 = t2.readlines()\n        # \xd1\x81\xd1\x80\xd0\xb0\xd0\xb2\xd0\xbd\xd0\xb8\xd0\xb2\xd0\xb0\xd0\xb5\xd0\xbc \xd1\x82\xd0\xb5\xd0\xba\xd1\x81\xd1\x82\xd1\x8b\n        d = difflib.Differ()\n        result = list(d.compare(text1, text2))\n        table.append(result)\n        biblio1.append(trymysql(trymysql.biblio.id==all.book).select()[0])\n#str(all.book.id) + \'. \'+ all.book.title + \'. \' + all.book.city + \': \' + all.book.editor + \', \' + all.book.year + \'. \' + all.book.part + ". C. " + all.book_page + \'.\')\n        n = {}\n        n[\'title\'] = all.title.upper()\n        n[\'dedication\'] = all.dedication\n        n[\'epi\'] = all.epi\n        n[\'epi_author\'] = all.epi_author\n        n[\'epi_book\'] = all.epi_book\n        other.append(n)\n    #for res in table:\n    count = 0\n    s = []\n    clear = [line for line in table[1] if not line.startswith(\'?\') and \'|\' not in line]\n    while len(clear)>0:\n        if clear[count].startswith(\'-\'):\n            next_line = clear[count+1][2:]\n            next_line = re.findall(ur"\\w+[ ]|\\w+|[,]|[.]", next_line.decode(\'utf-8\'), re.U)\n            next_line = [all.replace(\' \', \'\') for all in next_line]\n            cline = re.findall(ur"\\w+[ ]|\\w+|[,]|[.]", clear[count][2:].decode(\'utf-8\'), re.U)\n            cline = [all.replace(\' \', \'\') for all in cline]\n            d = difflib.Differ(charjunk=difflib.IS_CHARACTER_JUNK )\n            s1 = list(d.compare(cline, next_line))\n            s.append(s1)\n            clear.remove(clear[count+1])\n            c= next_line\n        else:\n            s.append(clear[count][2:].split())\n            #c = re.findall(ur"\\w+[ ]|\\w+|[,]|[.]", clear[count].decode(\'utf-8\'), re.U)\n        clear.remove(clear[count])\n    return dict(book=book, table=table, text=text, biblio=biblio, biblio1=biblio1, other=other, s=s)\n\ndef show_variants(): # try to show xml\n    t = \'483\'\n    texts = trymysql(trymysql.text1.id==t).select().first()\n    filename = "/home/concordance/web2py/applications/test/uploads/xml/4/" + t + ".xml"\n    x = open(filename, \'rb\').read()\n    root = ET.fromstring(x) # \xd0\xbf\xd0\xb0\xd1\x80\xd1\x81\xd0\xb8\xd0\xbc xml\n    s= [] # \xd1\x8d\xd1\x82\xd0\xbe \xd0\xb1\xd1\x83\xd0\xb4\xd0\xb5\xd1\x82 \xd1\x82\xd0\xb5\xd0\xba\xd1\x81\xd1\x82\n    u = \'\' # \xd1\x8d\xd1\x82\xd0\xbe \xd0\xb1\xd1\x83\xd0\xb4\xd0\xb5\xd1\x82 \xd0\xbd\xd0\xbe\xd0\xbc\xd0\xb5\xd1\x80 \xd1\x81\xd1\x82\xd1\x80\xd0\xbe\xd0\xba\xd0\xb8\n    new_line =\'\' # \xd1\x8d\xd1\x82\xd0\xbe \xd0\xb1\xd1\x83\xd0\xb4\xd0\xb5\xd1\x82 \xd0\xb2\xd0\xb0\xd1\x80\xd0\xb8\xd0\xb0\xd0\xbd\xd1\x82\xd0\xbd\xd0\xb0\xd1\x8f \xd1\x81\xd1\x82\xd1\x80\xd0\xbe\xd0\xba\xd0\xb0\n    variants = trymysql(trymysql.variants.title==t).select(orderby=trymysql.variants.line) # \xd0\xb2\xd1\x8b\xd0\xb1\xd0\xb8\xd1\x80\xd0\xb0\xd0\xb5\xd0\xbc \xd0\xb7\xd0\xb0\xd0\xbf\xd0\xb8\xd1\x81\xd0\xb8 \xd0\xbf\xd1\x80\xd0\xbe \xd0\xb2\xd0\xb0\xd1\x80\xd0\xb8\xd0\xb0\xd0\xbd\xd1\x82\xd1\x8b \xd1\x81\xd1\x82\xd1\x80\xd0\xbe\xd0\xba \xd0\xb4\xd0\xbb\xd1\x8f \xd1\x8d\xd1\x82\xd0\xbe\xd0\xb3\xd0\xbe \xd1\x82\xd0\xb5\xd0\xba\xd1\x81\xd1\x82\xd0\xb0 \xd0\xb8\xd0\xb7 \xd0\xb1\xd0\xb0\xd0\xb7\xd1\x8b\n    var_numbers = [all.line for all in variants] # \xd0\xb2\xd1\x8b\xd0\xb1\xd0\xb8\xd1\x80\xd0\xb0\xd0\xb5\xd0\xbc \xd0\xbd\xd0\xbe\xd0\xbc\xd0\xb5\xd1\x80\xd0\xb0 \xd1\x81\xd1\x82\xd1\x80\xd0\xbe\xd0\xba, \xd0\xb3\xd0\xb4\xd0\xb5 \xd0\xb5\xd1\x81\xd1\x82\xd1\x8c \xd0\xb2\xd0\xb0\xd1\x80\xd0\xb8\xd0\xb0\xd0\xbd\xd1\x82\xd1\x8b\n    var_lines = [all.comment_text for all in variants] # \xd0\xb2\xd1\x8b\xd0\xb1\xd0\xb8\xd1\x80\xd0\xb0\xd0\xb5\xd0\xbc \xd0\xb2\xd0\xb0\xd1\x80\xd0\xb8\xd0\xb0\xd0\xbd\xd1\x82\xd0\xbd\xd1\x8b\xd0\xb5 \xd1\x81\xd1\x82\xd1\x80\xd0\xbe\xd0\xba\xd0\xb8 \xd0\xb8\xd0\xb7 \xd0\xb1\xd0\xb0\xd0\xb7\xd1\x8b\n    book = [all.comment_book for all in variants] # \xd0\xb2\xd1\x8b\xd0\xb1\xd0\xb8\xd1\x80\xd0\xb0\xd0\xb5\xd0\xbc \xd0\xb8\xd1\x81\xd1\x82\xd0\xbe\xd1\x87\xd0\xbd\xd0\xb8\xd0\xba\xd0\xb8 \xd0\xb2\xd0\xb0\xd1\x80\xd0\xb8\xd0\xb0\xd0\xbd\xd1\x82\xd0\xbe\xd0\xb2\n    books = [texts.book] # \xd0\xb8\xd1\x81\xd1\x82\xd0\xbe\xd1\x87\xd0\xbd\xd0\xb8\xd0\xba \xd0\xbe\xd1\x81\xd0\xbd\xd0\xbe\xd0\xb2\xd0\xbd\xd0\xbe\xd0\xb9 \xd1\x80\xd0\xb5\xd0\xb4\xd0\xb0\xd0\xba\xd1\x86\xd0\xb8\xd0\xb8 \xd0\xb8\xd0\xb7 trymysql.text1\n    for all in book:\n        books.append(trymysql(trymysql.biblio.id==all).select()[0].short) # \xd1\x81\xd0\xbe\xd0\xba\xd1\x80\xd0\xb0\xd1\x89\xd0\xb5\xd0\xbd\xd0\xbd\xd0\xbe\xd0\xb5 \xd0\xbd\xd0\xb0\xd0\xb7\xd0\xb2\xd0\xb0\xd0\xbd\xd0\xb8\xd0\xb5 \xd0\xb8\xd0\xb7\xd0\xb4\xd0\xb0\xd0\xbd\xd0\xb8\xd0\xb9, \xd1\x81\xd0\xbe\xd0\xb4\xd0\xb5\xd1\x80\xd0\xb6\xd0\xb0\xd1\x89\xd0\xb8\xd1\x85 \xd0\xb2\xd0\xb0\xd1\x80\xd0\xb8\xd0\xb0\xd0\xbd\xd1\x82\xd1\x8b \xd1\x81\xd1\x82\xd1\x80\xd0\xbe\xd0\xba\n    for st in root.iter(\'stanza\'): # \xd0\xbf\xd0\xb0\xd1\x80\xd1\x81\xd0\xb8\xd0\xbc xml\n        strofa = [] # \xd1\x8d\xd1\x82\xd0\xbe \xd0\xb1\xd1\x83\xd0\xb4\xd0\xb5\xd1\x82 \xd1\x81\xd1\x82\xd1\x80\xd0\xbe\xd1\x84\xd0\xb0\n        for l in st.iter(\'line\'):\n            u = l.attrib[\'number\'] # \xd0\xbf\xd1\x80\xd0\xbe\xd0\xb2\xd0\xb5\xd1\x80\xd1\x8f\xd0\xb5\xd0\xbc \xd0\xbd\xd0\xbe\xd0\xbc\xd0\xb5\xd1\x80 \xd0\xb2\xd1\x8b\xd0\xbf\xd0\xb0\xd1\x80\xd1\x81\xd0\xb5\xd0\xbd\xd0\xbd\xd0\xbe\xd0\xb9 \xd1\x81\xd1\x82\xd1\x80\xd0\xbe\xd0\xba\xd0\xb8\n            line =[] # \xd1\x8d\xd1\x82\xd0\xbe \xd0\xb1\xd1\x83\xd0\xb4\xd0\xb5\xd1\x82 \xd1\x81\xd1\x82\xd1\x80\xd0\xbe\xd1\x87\xd0\xba\xd0\xb0\n            for w in l.findall(\'word\'):\n                line.append(w.text)\n            strofa.append([pun(line), u]) # \xd1\x87\xd0\xb8\xd1\x81\xd1\x82\xd0\xb8\xd0\xbc \xd0\xbf\xd1\x80\xd0\xbe\xd0\xb1\xd0\xb5\xd0\xbb\xd1\x8b \xd0\xb2 \xd1\x81\xd1\x82\xd1\x80\xd0\xbe\xd0\xba\xd0\xb5\n            if l.attrib[\'number\'] in var_numbers: # \xd0\xbf\xd1\x80\xd0\xbe\xd0\xb2\xd0\xb5\xd1\x80\xd1\x8f\xd0\xb5\xd0\xbc, \xd0\xb5\xd1\x81\xd1\x82\xd1\x8c \xd0\xbb\xd0\xb8 \xd1\x83 \xd1\x81\xd1\x82\xd1\x80\xd0\xbe\xd0\xba\xd0\xb8 \xd0\xb2\xd0\xb0\xd1\x80\xd0\xb8\xd0\xb0\xd0\xbd\xd1\x82\xd1\x8b \xd0\xbf\xd0\xbe \xd0\xb5\xd0\xb5 \xd0\xbf\xd0\xbe\xd1\x80\xd1\x8f\xd0\xb4\xd0\xba\xd0\xbe\xd0\xb2\xd0\xbe\xd0\xbc\xd1\x83 \xd0\xbd\xd0\xbe\xd0\xbc\xd0\xb5\xd1\x80\xd1\x83 \xd0\xb2 \xd1\x82\xd0\xb5\xd0\xba\xd1\x81\xd1\x82\xd0\xb5\n                new_line = var_lines[var_numbers.index(u)] # \xd0\xb2\xd1\x8b\xd0\xb1\xd0\xb8\xd1\x80\xd0\xb0\xd0\xb5\xd0\xbc \xd0\xb2\xd0\xb0\xd1\x80\xd0\xb8\xd0\xb0\xd0\xbd\xd1\x82\xd0\xbd\xd1\x83\xd1\x8e \xd1\x81\xd1\x82\xd1\x80\xd0\xbe\xd0\xba\xd1\x83 \xd0\xb8\xd0\xb7 \xd1\x81\xd0\xbf\xd0\xb8\xd1\x81\xd0\xba\xd0\xb0\n                strofa.append([\'&\' + new_line, u]) # \xd0\xb4\xd0\xbe\xd0\xb1\xd0\xb0\xd0\xb2\xd0\xbb\xd1\x8f\xd0\xb5\xd0\xbc \xd0\xba \xd1\x81\xd1\x82\xd1\x80\xd0\xbe\xd1\x84\xd0\xb5 \xd0\xb2\xd0\xb0\xd1\x80\xd0\xb8\xd0\xb0\xd0\xbd\xd1\x82\xd0\xbd\xd1\x83\xd1\x8e \xd1\x81\xd1\x82\xd1\x80\xd0\xbe\xd0\xba\xd1\x83\n        s.append(strofa) # \xd0\xb4\xd0\xbe\xd0\xb1\xd0\xb0\xd0\xb2\xd0\xbb\xd1\x8f\xd0\xb5\xd0\xbc \xd1\x80\xd0\xb0\xd1\x81\xd0\xbf\xd0\xb0\xd1\x80\xd1\x81\xd0\xb5\xd0\xbd\xd0\xbd\xd1\x83\xd1\x8e \xd1\x81\xd1\x82\xd1\x80\xd0\xbe\xd1\x84\xd1\x83 \xd0\xba \xd1\x82\xd0\xb5\xd0\xba\xd1\x81\xd1\x82\xd1\x83\n    return dict(s=s, u=u, var_lines=var_lines, var_numbers=var_numbers, books = books, texts=texts)\n\ndef pun(line):\n    l = \' \'.join(line)\n    l = l.replace(\' ,\', \',\')\n    l = l.replace(\' .\', \',\')\n    l = l.replace(\' - \', \'-\')\n    return l\n\ndef show_old(): # \xd0\xbf\xd0\xbe\xd0\xba\xd0\xb0\xd0\xb7\xd1\x8b\xd0\xb2\xd0\xb0\xd0\xb5\xd0\xbc \xd1\x82\xd0\xb5\xd0\xba\xd1\x81\xd1\x82 \xd0\xb2 \xd1\x81\xd1\x82\xd0\xb0\xd1\x80\xd0\xbe\xd0\xb9 \xd0\xbe\xd1\x80\xd1\x84\xd0\xbe\xd0\xb3\xd1\x80\xd0\xb0\xd1\x84\xd0\xb8\xd0\xb8 \xd0\xb8 \xd0\xbf\xd0\xb0\xd1\x80\xd0\xb0\xd0\xbb\xd0\xbb\xd0\xb5\xd0\xbb\xd1\x8c\xd0\xbd\xd0\xbe \xd0\xb2 \xd1\x81\xd0\xbe\xd0\xb2\xd1\x80\xd0\xb5\xd0\xbc\xd0\xb5\xd0\xbd\xd0\xbd\xd0\xbe\xd0\xb9\n    text = trymysql((trymysql.drafts.text==request.args(0))&(trymysql.drafts.book==request.args(1))).select().first()\n    f = open(text.filename, \'rb\')\n    content = f.readlines()\n    f.close()\n    old_text = trymysql((trymysql.old.text==request.args(0))&(trymysql.old.book==request.args(1))).select().first()\n    f1 = open(old_text.filename, \'rb\')\n    ocontent = f1.readlines()\n    f1.close()\n    return dict(text=text, old_text=old_text, content=content, ocontent=ocontent)\n\ndef show_page(): # \xd0\xbf\xd0\xbe\xd0\xba\xd0\xb0\xd0\xb7\xd1\x8b\xd0\xb2\xd0\xb0\xd0\xb5\xd0\xbc \xd1\x81\xd1\x82\xd1\x80\xd0\xb0\xd0\xbd\xd0\xb8\xd1\x86\xd1\x83 \xd0\xba\xd0\xbd\xd0\xb8\xd0\xb3\xd0\xb8, \xd1\x82\xd0\xb5\xd0\xba\xd1\x81\xd1\x82 \xd0\xb2 \xd0\xbe\xd1\x80\xd0\xb8\xd0\xb3\xd0\xb8\xd0\xbd\xd0\xb0\xd0\xbb\xd1\x8c\xd0\xbd\xd0\xbe\xd0\xb9 \xd0\xbe\xd1\x80\xd1\x84\xd0\xbe\xd0\xb3\xd1\x80\xd0\xb0\xd1\x84\xd0\xb8\xd0\xb8 \xd0\xb8 \xd1\x82\xd0\xb5\xd0\xba\xd1\x81\xd1\x82 \xd0\xb2 \xd1\x81\xd1\x82\xd0\xb0\xd1\x80\xd0\xbe\xd0\xb9 \xd0\xbe\xd1\x80\xd1\x84\xd0\xbe\xd0\xb3\xd1\x80\xd0\xb0\xd1\x84\xd0\xb8\xd0\xb8\n    text = trymysql((trymysql.old.text==request.args(0))&(trymysql.old.book==request.args(1))).select().first()\n    with open(text.filename, \'rb\') as f:\n        old = f.readlines()\n    # page = trymysql((trymysql.page.text==request.args(0))&(trymysql.page.book==request.args(1))).select().first()\n    u = \'books/\' + str(request.args(1)) + \'/\' + text.book_page + \'.png\'\n    book = request.args(1)\n    new = trymysql((trymysql.drafts.text==request.args(0))&(trymysql.drafts.book==request.args(1))).select().first()\n    with open(new.filename, \'rb\') as f1:\n        new = f1.readlines()\n    return dict(old=old, new=new, text=text, u=u, book=book)\n\ndef show_book():\n    book = trymysql(trymysql.biblio.id==request.args(0)).select()[0]\n    pages = trymysql(trymysql.page.book==request.args(0)).select()\n    texts = trymysql(trymysql.drafts.book==request.args(0)).select()\n    old = trymysql(trymysql.old.book==request.args(0)).select()\n    obl = \'books/\' + str(book.id) + \'/obl.png\'\n    drafts = []\n    if len(old)==0:\n        drafts = trymysql(trymysql.drafts.book==request.args(0)).select()\n    return dict(book=book, pages=pages, texts=texts, old=old, obl=obl, drafts=drafts)\n\nresponse._vars=response._caller(show1)\n'
p7
sS'snapshot'
p8
(dp9
S'exception'
p10
(dp11
S'__getslice__'
p12
S"<method-wrapper '__getslice__' of exceptions.IOError object>"
p13
sS'__str__'
p14
S"<method-wrapper '__str__' of exceptions.IOError object>"
p15
sS'__reduce__'
p16
S'<built-in method __reduce__ of exceptions.IOError object>'
p17
sS'__dict__'
p18
S'{}'
p19
sS'__sizeof__'
p20
S'<built-in method __sizeof__ of exceptions.IOError object>'
p21
sS'__init__'
p22
S"<method-wrapper '__init__' of exceptions.IOError object>"
p23
sS'__setattr__'
p24
S"<method-wrapper '__setattr__' of exceptions.IOError object>"
p25
sS'__reduce_ex__'
p26
S'<built-in method __reduce_ex__ of exceptions.IOError object>'
p27
sS'__new__'
p28
S'<built-in method __new__ of type object>'
p29
sS'errno'
p30
S'2'
sS'__format__'
p31
S'<built-in method __format__ of exceptions.IOError object>'
p32
sS'__class__'
p33
S"<type 'exceptions.IOError'>"
p34
sS'filename'
p35
S"'/home/concordance/web2py/applications/test/uploads/8__1117.txt'"
p36
sS'__doc__'
p37
S"'I/O operation failed.'"
p38
sS'__getitem__'
p39
S"<method-wrapper '__getitem__' of exceptions.IOError object>"
p40
sS'__setstate__'
p41
S'<built-in method __setstate__ of exceptions.IOError object>'
p42
sS'__getattribute__'
p43
S"<method-wrapper '__getattribute__' of exceptions.IOError object>"
p44
sS'args'
p45
S"(2, 'No such file or directory')"
p46
sS'__subclasshook__'
p47
S'<built-in method __subclasshook__ of type object>'
p48
sS'__unicode__'
p49
S'<built-in method __unicode__ of exceptions.IOError object>'
p50
sS'strerror'
p51
S"'No such file or directory'"
p52
sS'__delattr__'
p53
S"<method-wrapper '__delattr__' of exceptions.IOError object>"
p54
sS'__repr__'
p55
S"<method-wrapper '__repr__' of exceptions.IOError object>"
p56
sS'__hash__'
p57
S"<method-wrapper '__hash__' of exceptions.IOError object>"
p58
ssS'evalue'
p59
S"[Errno 2] No such file or directory: '/home/concordance/web2py/applications/test/uploads/8__1117.txt'"
p60
sS'request'
p61
cgluon.html
XML_unpickle
p62
(S's\nN\x00\x00<div><table><tr><td style="font-weight:bold;vertical-align:top;">ajax</td><td style="vertical-align:top;">:</td><td><div>False</div></td></tr><tr><td style="font-weight:bold;vertical-align:top;">application</td><td style="vertical-align:top;">:</td><td><div>test</div></td></tr><tr><td style="font-weight:bold;vertical-align:top;">args</td><td style="vertical-align:top;">:</td><td><div><table><tr><td><div>1117</div></td></tr></table></div></td></tr><tr><td style="font-weight:bold;vertical-align:top;">cid</td><td style="vertical-align:top;">:</td><td><div>None</div></td></tr><tr><td style="font-weight:bold;vertical-align:top;">client</td><td style="vertical-align:top;">:</td><td><div>85.140.79.157</div></td></tr><tr><td style="font-weight:bold;vertical-align:top;">controller</td><td style="vertical-align:top;">:</td><td><div>show</div></td></tr><tr><td style="font-weight:bold;vertical-align:top;">cookies</td><td style="vertical-align:top;">:</td><td><div><table></table></div></td></tr><tr><td style="font-weight:bold;vertical-align:top;">env</td><td style="vertical-align:top;">:</td><td><div><table><tr><td style="font-weight:bold;vertical-align:top;">CONTENT_LENGTH</td><td style="vertical-align:top;">:</td><td><div></div></td></tr><tr><td style="font-weight:bold;vertical-align:top;">CONTENT_TYPE</td><td style="vertical-align:top;">:</td><td><div></div></td></tr><tr><td style="font-weight:bold;vertical-align:top;">DOCUMENT_ROOT</td><td style="vertical-align:top;">:</td><td><div>/usr/local/openresty/nginx/html</div></td></tr><tr><td style="font-weight:bold;vertical-align:top;">HTTP_ACCEPT</td><td style="vertical-align:top;">:</td><td><div>text/html, application/xhtml+xml, */*</div></td></tr><tr><td style="font-weight:bold;vertical-align:top;">HTTP_ACCEPT_ENCODING</td><td style="vertical-align:top;">:</td><td><div>gzip, deflate</div></td></tr><tr><td style="font-weight:bold;vertical-align:top;">HTTP_ACCEPT_LANGUAGE</td><td style="vertical-align:top;">:</td><td><div>ru</div></td></tr><tr><td style="font-weight:bold;vertical-align:top;">HTTP_CONNECTION</td><td style="vertical-align:top;">:</td><td><div>close</div></td></tr><tr><td style="font-weight:bold;vertical-align:top;">HTTP_DNT</td><td style="vertical-align:top;">:</td><td><div>1</div></td></tr><tr><td style="font-weight:bold;vertical-align:top;">HTTP_HOST</td><td style="vertical-align:top;">:</td><td><div>concordance.pythonanywhere.com</div></td></tr><tr><td style="font-weight:bold;vertical-align:top;">HTTP_REFERER</td><td style="vertical-align:top;">:</td><td><div>http://clck.yandex.ru/jsredir?from=yandex.ru%3Bjsonsearch%3Bsearchapp%3Bwp%3B225%3B1485840382210752-135694-sas1-2604-APPJS2%3B1485840382210752-135694-sas1-2604-APPJS2&amp;text=%D0%B2%20%D0%BD%D0%BE%D1%87%D0%BD%D0%BE%D0%B9%20%D0%BF%D0%BE%D0%BB%D1%83%D0%BC%D0%B3%D0%BB%D0%B5%20%D0%B0%D0%BD%D0%B0%D0%BB%D0%B8%D0%B7&amp;uuid=06adc4642b0caff40c9d929a1731f6d4&amp;state=AiuY0DBWFJ4ePaEse6rgeCPM-MH1jM4y64AgvS4JXu8jAcYMEzjRuE0TOwuklBcLSVZbwWcFFz6UvrH0z9HJ-a1RFenMr_YFeLaOdtSQm9hA9W__jq-0Lz8-r8wS8wM21GGzHRDb8ybzq6Xe26xGtx4DHIeyoThIoI6L4bfagBU4zK2V3UTVnm-lyhBknGyLMpm0-rDTpQ4oQmwPp39-jTaxWgnaR_qhlrE1aeQYq0V_f_5br2jotwsycWz8SiIs0tc2jQJKzhDS5AmhRJc9fqlTZwORpQXt5Q_i3Gmba9K_nPhYHUwG9JB9-2EgkdAUGSUbB5-aMtQYjhnJQa-h6KwcdvINstFui4uuIcWefjU&amp;data=UlNrNmk5WktYejR0eWJFYk1LdmtxdFppWUVRZXZOSkFJdkFWMmx6YVFzR2NRN3pQeXJIazc0ZjZ6TkJXdTNHRVFhRHg0T3VTd19DTFNTRmc1LV9HRHc1a2NfTDlxSVVIdFUtUEo3SnJJSkZUSTM3MzRjaXVFRU9sOTlrZWEzNVM&amp;b64e=2&amp;sign=e5b8e969ea419aa31bab8c3693665c78&amp;keyno=0</div></td></tr><tr><td style="font-weight:bold;vertical-align:top;">HTTP_UA_CPU</td><td style="vertical-align:top;">:</td><td><div>ARM</div></td></tr><tr><td style="font-weight:bold;vertical-align:top;">HTTP_USER_AGENT</td><td style="vertical-align:top;">:</td><td><div>Mozilla/5.0 (Mobile; Windows Phone 8.1; Android 4.0; ARM; Trident/7.0; Touch; rv:11.0; IEMobile/11.0; NOKIA; Lumia 630) like iPhone OS 7_0_3 Mac OS X AppleWebKit/537 (KHTML, like Gecko) Mobile Safari/537</div></td></tr><tr><td style="font-weight:bold;vertical-align:top;">HTTP_X_FORWARDED_FOR</td><td style="vertical-align:top;">:</td><td><div>85.140.79.157</div></td></tr><tr><td style="font-weight:bold;vertical-align:top;">HTTP_X_REAL_IP</td><td style="vertical-align:top;">:</td><td><div>85.140.79.157</div></td></tr><tr><td style="font-weight:bold;vertical-align:top;">PATH_INFO</td><td style="vertical-align:top;">:</td><td><div>/test/show/show1/1117</div></td></tr><tr><td style="font-weight:bold;vertical-align:top;">QUERY_STRING</td><td style="vertical-align:top;">:</td><td><div></div></td></tr><tr><td style="font-weight:bold;vertical-align:top;">REMOTE_ADDR</td><td style="vertical-align:top;">:</td><td><div>10.0.0.14</div></td></tr><tr><td style="font-weight:bold;vertical-align:top;">REMOTE_PORT</td><td style="vertical-align:top;">:</td><td><div>45669</div></td></tr><tr><td style="font-weight:bold;vertical-align:top;">REQUEST_METHOD</td><td style="vertical-align:top;">:</td><td><div>GET</div></td></tr><tr><td style="font-weight:bold;vertical-align:top;">REQUEST_URI</td><td style="vertical-align:top;">:</td><td><div>/test/show/show1/1117</div></td></tr><tr><td style="font-weight:bold;vertical-align:top;">SCRIPT_NAME</td><td style="vertical-align:top;">:</td><td><div></div></td></tr><tr><td style="font-weight:bold;vertical-align:top;">SERVER_NAME</td><td style="vertical-align:top;">:</td><td><div>concordance.pythonanywhere.com</div></td></tr><tr><td style="font-weight:bold;vertical-align:top;">SERVER_PORT</td><td style="vertical-align:top;">:</td><td><div>80</div></td></tr><tr><td style="font-weight:bold;vertical-align:top;">SERVER_PROTOCOL</td><td style="vertical-align:top;">:</td><td><div>HTTP/1.1</div></td></tr><tr><td style="font-weight:bold;vertical-align:top;">app_folders</td><td style="vertical-align:top;">:</td><td><div>set([&#x27;/home/concordance/web2py/applications/examples/&#x27;, &#x27;/home/concordance/web2py/applications/admin/&#x27;, &#x27;/home/concordance/web2py/applications/test/&#x27;])</div></td></tr><tr><td style="font-weight:bold;vertical-align:top;">applications_parent</td><td style="vertical-align:top;">:</td><td><div>/home/concordance/web2py</div></td></tr><tr><td style="font-weight:bold;vertical-align:top;">content_length</td><td style="vertical-align:top;">:</td><td><div></div></td></tr><tr><td style="font-weight:bold;vertical-align:top;">content_type</td><td style="vertical-align:top;">:</td><td><div></div></td></tr><tr><td style="font-weight:bold;vertical-align:top;">db_sessions</td><td style="vertical-align:top;">:</td><td><div>set([])</div></td></tr><tr><td style="font-weight:bold;vertical-align:top;">debugging</td><td style="vertical-align:top;">:</td><td><div>True</div></td></tr><tr><td style="font-weight:bold;vertical-align:top;">document_root</td><td style="vertical-align:top;">:</td><td><div>/usr/local/openresty/nginx/html</div></td></tr><tr><td style="font-weight:bold;vertical-align:top;">gluon_parent</td><td style="vertical-align:top;">:</td><td><div>/home/concordance/web2py</div></td></tr><tr><td style="font-weight:bold;vertical-align:top;">http_accept</td><td style="vertical-align:top;">:</td><td><div>text/html, application/xhtml+xml, */*</div></td></tr><tr><td style="font-weight:bold;vertical-align:top;">http_accept_encoding</td><td style="vertical-align:top;">:</td><td><div>gzip, deflate</div></td></tr><tr><td style="font-weight:bold;vertical-align:top;">http_accept_language</td><td style="vertical-align:top;">:</td><td><div>ru</div></td></tr><tr><td style="font-weight:bold;vertical-align:top;">http_connection</td><td style="vertical-align:top;">:</td><td><div>close</div></td></tr><tr><td style="font-weight:bold;vertical-align:top;">http_dnt</td><td style="vertical-align:top;">:</td><td><div>1</div></td></tr><tr><td style="font-weight:bold;vertical-align:top;">http_host</td><td style="vertical-align:top;">:</td><td><div>concordance.pythonanywhere.com</div></td></tr><tr><td style="font-weight:bold;vertical-align:top;">http_referer</td><td style="vertical-align:top;">:</td><td><div>http://clck.yandex.ru/jsredir?from=yandex.ru%3Bjsonsearch%3Bsearchapp%3Bwp%3B225%3B1485840382210752-135694-sas1-2604-APPJS2%3B1485840382210752-135694-sas1-2604-APPJS2&amp;text=%D0%B2%20%D0%BD%D0%BE%D1%87%D0%BD%D0%BE%D0%B9%20%D0%BF%D0%BE%D0%BB%D1%83%D0%BC%D0%B3%D0%BB%D0%B5%20%D0%B0%D0%BD%D0%B0%D0%BB%D0%B8%D0%B7&amp;uuid=06adc4642b0caff40c9d929a1731f6d4&amp;state=AiuY0DBWFJ4ePaEse6rgeCPM-MH1jM4y64AgvS4JXu8jAcYMEzjRuE0TOwuklBcLSVZbwWcFFz6UvrH0z9HJ-a1RFenMr_YFeLaOdtSQm9hA9W__jq-0Lz8-r8wS8wM21GGzHRDb8ybzq6Xe26xGtx4DHIeyoThIoI6L4bfagBU4zK2V3UTVnm-lyhBknGyLMpm0-rDTpQ4oQmwPp39-jTaxWgnaR_qhlrE1aeQYq0V_f_5br2jotwsycWz8SiIs0tc2jQJKzhDS5AmhRJc9fqlTZwORpQXt5Q_i3Gmba9K_nPhYHUwG9JB9-2EgkdAUGSUbB5-aMtQYjhnJQa-h6KwcdvINstFui4uuIcWefjU&amp;data=UlNrNmk5WktYejR0eWJFYk1LdmtxdFppWUVRZXZOSkFJdkFWMmx6YVFzR2NRN3pQeXJIazc0ZjZ6TkJXdTNHRVFhRHg0T3VTd19DTFNTRmc1LV9HRHc1a2NfTDlxSVVIdFUtUEo3SnJJSkZUSTM3MzRjaXVFRU9sOTlrZWEzNVM&amp;b64e=2&amp;sign=e5b8e969ea419aa31bab8c3693665c78&amp;keyno=0</div></td></tr><tr><td style="font-weight:bold;vertical-align:top;">http_ua_cpu</td><td style="vertical-align:top;">:</td><td><div>ARM</div></td></tr><tr><td style="font-weight:bold;vertical-align:top;">http_user_agent</td><td style="vertical-align:top;">:</td><td><div>Mozilla/5.0 (Mobile; Windows Phone 8.1; Android 4.0; ARM; Trident/7.0; Touch; rv:11.0; IEMobile/11.0; NOKIA; Lumia 630) like iPhone OS 7_0_3 Mac OS X AppleWebKit/537 (KHTML, like Gecko) Mobile Safari/537</div></td></tr><tr><td style="font-weight:bold;vertical-align:top;">http_x_forwarded_for</td><td style="vertical-align:top;">:</td><td><div>85.140.79.157</div></td></tr><tr><td style="font-weight:bold;vertical-align:top;">http_x_real_ip</td><td style="vertical-align:top;">:</td><td><div>85.140.79.157</div></td></tr><tr><td style="font-weight:bold;vertical-align:top;">is_jython</td><td style="vertical-align:top;">:</td><td><div>False</div></td></tr><tr><td style="font-weight:bold;vertical-align:top;">is_pypy</td><td style="vertical-align:top;">:</td><td><div>False</div></td></tr><tr><td style="font-weight:bold;vertical-align:top;">is_source</td><td style="vertical-align:top;">:</td><td><div>True</div></td></tr><tr><td style="font-weight:bold;vertical-align:top;">local_hosts</td><td style="vertical-align:top;">:</td><td><div><table><tr><td><div>::ffff:127.0.0.1</div></td></tr><tr><td><div>::1</div></td></tr><tr><td><div>glenn-liveweb5</div></td></tr><tr><td><div>50.19.109.98</div></td></tr><tr><td><div>localhost</div></td></tr><tr><td><div>concordance.pythonanywhere.com</div></td></tr><tr><td><div>127.0.0.1</div></td></tr></table></div></td></tr><tr><td style="font-weight:bold;vertical-align:top;">path_info</td><td style="vertical-align:top;">:</td><td><div>/test/show/show1/1117</div></td></tr><tr><td style="font-weight:bold;vertical-align:top;">query_string</td><td style="vertical-align:top;">:</td><td><div></div></td></tr><tr><td style="font-weight:bold;vertical-align:top;">remote_addr</td><td style="vertical-align:top;">:</td><td><div>10.0.0.14</div></td></tr><tr><td style="font-weight:bold;vertical-align:top;">remote_port</td><td style="vertical-align:top;">:</td><td><div>45669</div></td></tr><tr><td style="font-weight:bold;vertical-align:top;">request_method</td><td style="vertical-align:top;">:</td><td><div>GET</div></td></tr><tr><td style="font-weight:bold;vertical-align:top;">request_uri</td><td style="vertical-align:top;">:</td><td><div>/test/show/show1/1117</div></td></tr><tr><td style="font-weight:bold;vertical-align:top;">script_name</td><td style="vertical-align:top;">:</td><td><div></div></td></tr><tr><td style="font-weight:bold;vertical-align:top;">server_name</td><td style="vertical-align:top;">:</td><td><div>concordance.pythonanywhere.com</div></td></tr><tr><td style="font-weight:bold;vertical-align:top;">server_port</td><td style="vertical-align:top;">:</td><td><div>80</div></td></tr><tr><td style="font-weight:bold;vertical-align:top;">server_protocol</td><td style="vertical-align:top;">:</td><td><div>HTTP/1.1</div></td></tr><tr><td style="font-weight:bold;vertical-align:top;">uwsgi.node</td><td style="vertical-align:top;">:</td><td><div>glenn-liveweb5</div></td></tr><tr><td style="font-weight:bold;vertical-align:top;">uwsgi.version</td><td style="vertical-align:top;">:</td><td><div>2.0.5.1</div></td></tr><tr><td style="font-weight:bold;vertical-align:top;">uwsgi_node</td><td style="vertical-align:top;">:</td><td><div>glenn-liveweb5</div></td></tr><tr><td style="font-weight:bold;vertical-align:top;">uwsgi_version</td><td style="vertical-align:top;">:</td><td><div>2.0.5.1</div></td></tr><tr><td style="font-weight:bold;vertical-align:top;">web2py_original_uri</td><td style="vertical-align:top;">:</td><td><div>/test/show/show1/1117</div></td></tr><tr><td style="font-weight:bold;vertical-align:top;">web2py_path</td><td style="vertical-align:top;">:</td><td><div>/home/concordance/web2py</div></td></tr><tr><td style="font-weight:bold;vertical-align:top;">web2py_version</td><td style="vertical-align:top;">:</td><td><div>2.9.5-stable+timestamp.2014.03.16.02.35.39</div></td></tr><tr><td style="font-weight:bold;vertical-align:top;">wsgi.errors</td><td style="vertical-align:top;">:</td><td><div>&lt;uwsgi_file__bin_user_wsgi_wrapper.ErrorLogFile object at 0x7f3426ddd150&gt;</div></td></tr><tr><td style="font-weight:bold;vertical-align:top;">wsgi.file_wrapper</td><td style="vertical-align:top;">:</td><td><div>&lt;built-in function uwsgi_sendfile&gt;</div></td></tr><tr><td style="font-weight:bold;vertical-align:top;">wsgi.input</td><td style="vertical-align:top;">:</td><td><div>&lt;uwsgi._Input object at 0x7f3409211540&gt;</div></td></tr><tr><td style="font-weight:bold;vertical-align:top;">wsgi.multiprocess</td><td style="vertical-align:top;">:</td><td><div>True</div></td></tr><tr><td style="font-weight:bold;vertical-align:top;">wsgi.multithread</td><td style="vertical-align:top;">:</td><td><div>False</div></td></tr><tr><td style="font-weight:bold;vertical-align:top;">wsgi.run_once</td><td style="vertical-align:top;">:</td><td><div>False</div></td></tr><tr><td style="font-weight:bold;vertical-align:top;">wsgi.url_scheme</td><td style="vertical-align:top;">:</td><td><div>http</div></td></tr><tr><td style="font-weight:bold;vertical-align:top;">wsgi.version</td><td style="vertical-align:top;">:</td><td><div><table><tr><td><div>1</div></td></tr><tr><td><div>0</div></td></tr></table></div></td></tr><tr><td style="font-weight:bold;vertical-align:top;">wsgi_errors</td><td style="vertical-align:top;">:</td><td><div>&lt;uwsgi_file__bin_user_wsgi_wrapper.ErrorLogFile object at 0x7f3426ddd150&gt;</div></td></tr><tr><td style="font-weight:bold;vertical-align:top;">wsgi_file_wrapper</td><td style="vertical-align:top;">:</td><td><div>&lt;built-in function uwsgi_sendfile&gt;</div></td></tr><tr><td style="font-weight:bold;vertical-align:top;">wsgi_input</td><td style="vertical-align:top;">:</td><td><div>&lt;uwsgi._Input object at 0x7f3409211540&gt;</div></td></tr><tr><td style="font-weight:bold;vertical-align:top;">wsgi_multiprocess</td><td style="vertical-align:top;">:</td><td><div>True</div></td></tr><tr><td style="font-weight:bold;vertical-align:top;">wsgi_multithread</td><td style="vertical-align:top;">:</td><td><div>False</div></td></tr><tr><td style="font-weight:bold;vertical-align:top;">wsgi_run_once</td><td style="vertical-align:top;">:</td><td><div>False</div></td></tr><tr><td style="font-weight:bold;vertical-align:top;">wsgi_url_scheme</td><td style="vertical-align:top;">:</td><td><div>http</div></td></tr><tr><td style="font-weight:bold;vertical-align:top;">wsgi_version</td><td style="vertical-align:top;">:</td><td><div><table><tr><td><div>1</div></td></tr><tr><td><div>0</div></td></tr></table></div></td></tr></table></div></td></tr><tr><td style="font-weight:bold;vertical-align:top;">extension</td><td style="vertical-align:top;">:</td><td><div>html</div></td></tr><tr><td style="font-weight:bold;vertical-align:top;">folder</td><td style="vertical-align:top;">:</td><td><div>/home/concordance/web2py/applications/test/</div></td></tr><tr><td style="font-weight:bold;vertical-align:top;">function</td><td style="vertical-align:top;">:</td><td><div>show1</div></td></tr><tr><td style="font-weight:bold;vertical-align:top;">global_settings</td><td style="vertical-align:top;">:</td><td><div><table><tr><td style="font-weight:bold;vertical-align:top;">app_folders</td><td style="vertical-align:top;">:</td><td><div>set([&#x27;/home/concordance/web2py/applications/examples/&#x27;, &#x27;/home/concordance/web2py/applications/admin/&#x27;, &#x27;/home/concordance/web2py/applications/test/&#x27;])</div></td></tr><tr><td style="font-weight:bold;vertical-align:top;">applications_parent</td><td style="vertical-align:top;">:</td><td><div>/home/concordance/web2py</div></td></tr><tr><td style="font-weight:bold;vertical-align:top;">db_sessions</td><td style="vertical-align:top;">:</td><td><div>set([])</div></td></tr><tr><td style="font-weight:bold;vertical-align:top;">debugging</td><td style="vertical-align:top;">:</td><td><div>True</div></td></tr><tr><td style="font-weight:bold;vertical-align:top;">gluon_parent</td><td style="vertical-align:top;">:</td><td><div>/home/concordance/web2py</div></td></tr><tr><td style="font-weight:bold;vertical-align:top;">is_jython</td><td style="vertical-align:top;">:</td><td><div>False</div></td></tr><tr><td style="font-weight:bold;vertical-align:top;">is_pypy</td><td style="vertical-align:top;">:</td><td><div>False</div></td></tr><tr><td style="font-weight:bold;vertical-align:top;">is_source</td><td style="vertical-align:top;">:</td><td><div>True</div></td></tr><tr><td style="font-weight:bold;vertical-align:top;">local_hosts</td><td style="vertical-align:top;">:</td><td><div><table><tr><td><div>::ffff:127.0.0.1</div></td></tr><tr><td><div>::1</div></td></tr><tr><td><div>glenn-liveweb5</div></td></tr><tr><td><div>50.19.109.98</div></td></tr><tr><td><div>localhost</div></td></tr><tr><td><div>concordance.pythonanywhere.com</div></td></tr><tr><td><div>127.0.0.1</div></td></tr></table></div></td></tr><tr><td style="font-weight:bold;vertical-align:top;">web2py_version</td><td style="vertical-align:top;">:</td><td><div>2.9.5-stable+timestamp.2014.03.16.02.35.39</div></td></tr></table></div></td></tr><tr><td style="font-weight:bold;vertical-align:top;">is_https</td><td style="vertical-align:top;">:</td><td><div>False</div></td></tr><tr><td style="font-weight:bold;vertical-align:top;">is_local</td><td style="vertical-align:top;">:</td><td><div>False</div></td></tr><tr><td style="font-weight:bold;vertical-align:top;">is_restful</td><td style="vertical-align:top;">:</td><td><div>False</div></td></tr><tr><td style="font-weight:bold;vertical-align:top;">now</td><td style="vertical-align:top;">:</td><td><div>datetime.datetime(2017, 1, 31, 5, 33, 39, 103047)</div></td></tr><tr><td style="font-weight:bold;vertical-align:top;">raw_args</td><td style="vertical-align:top;">:</td><td><div>1117</div></td></tr><tr><td style="font-weight:bold;vertical-align:top;">raw_extension</td><td style="vertical-align:top;">:</td><td><div>None</div></td></tr><tr><td style="font-weight:bold;vertical-align:top;">url</td><td style="vertical-align:top;">:</td><td><div>/test/show/show1/1117</div></td></tr><tr><td style="font-weight:bold;vertical-align:top;">utcnow</td><td style="vertical-align:top;">:</td><td><div>datetime.datetime(2017, 1, 31, 5, 33, 39, 103062)</div></td></tr><tr><td style="font-weight:bold;vertical-align:top;">uuid</td><td style="vertical-align:top;">:</td><td><div>test/85.140.79.157.2017-01-31.05-33-39.38508cc5-0edf-4ff8-bd52-318459bc2542</div></td></tr><tr><td style="font-weight:bold;vertical-align:top;">wsgi</td><td style="vertical-align:top;">:</td><td><div>&lt;gluon.main.LazyWSGI object at 0x7f34091b9f90&gt;</div></td></tr></table></div>'
tRp63
sS'frames'
p64
(lp65
(dp66
S'file'
p67
S'/home/concordance/web2py/gluon/restricted.py'
p68
sS'dump'
p69
(dp70
S'environment'
p71
S"{'A': <class 'gluon.html.A'>, 'ANY_OF': <class 'gluon.validators.ANY_OF'>, 'Auth': <class 'gluon.tools.Auth'>, 'B': <class 'gluon.html.B'>, 'BEAUTIFY': <class 'gluon.html.BEAUTIFY'>, 'BODY': <class 'gluon.html.BODY'>, 'BR': <class 'gluon.html.BR'>, 'BUTTON': <class 'gluon.html.BUTTON'>, 'CAT': <class 'gluon.html.CAT'>, 'CENTER': <class 'gluon.html.CENTER'>, ...}"
p72
sS'ccode'
p73
S'<code object <module> at 0x7f3409019b30, file "/...y/applications/test/controllers/show.py", line 3>'
p74
ssS'lnum'
p75
I220
sS'lines'
p76
(dp77
I224
S'        # do not encapsulate (obfuscate) the original RestrictedError'
p78
sI215
S'    try:'
p79
sI216
S'        if isinstance(code, types.CodeType):'
p80
sI217
S'            ccode = code'
p81
sI218
S'        else:'
p82
sI219
S'            ccode = compile2(code, layer)'
p83
sI220
S'        exec ccode in environment'
p84
sI221
S'    except HTTP:'
p85
sI222
S'        raise'
p86
sI223
S'    except RestrictedError:'
p87
ssS'call'
p88
S"(code='# coding: utf8\\n# \\xd0\\xbf\\xd0\\xbe\\xd0\\xbf\\xd1\\x80\\xd0\\xbe\\xd0\\xb1\\xd0\\xbe\\xd0\\xb2\\xd0\\xb0\\xd1\\x82\\xd1\\x8c \\xd1\\x87\\xd1\\x82\\xd0\\xbe-\\xd0...=drafts)\\n\\nresponse._vars=response._caller(show1)\\n', environment={'A': <class 'gluon.html.A'>, 'ANY_OF': <class 'gluon.validators.ANY_OF'>, 'Auth': <class 'gluon.tools.Auth'>, 'B': <class 'gluon.html.B'>, 'BEAUTIFY': <class 'gluon.html.BEAUTIFY'>, 'BODY': <class 'gluon.html.BODY'>, 'BR': <class 'gluon.html.BR'>, 'BUTTON': <class 'gluon.html.BUTTON'>, 'CAT': <class 'gluon.html.CAT'>, 'CENTER': <class 'gluon.html.CENTER'>, ...}, layer='/home/concordance/web2py/applications/test/controllers/show.py')"
p89
sS'func'
p90
S'restricted'
p91
sa(dp92
g67
S'/home/concordance/web2py/applications/test/controllers/show.py'
p93
sg69
(dp94
sg75
I150
sg76
(dp95
I139
S'def show_book():'
p96
sI140
S'    book = trymysql(trymysql.biblio.id==request.args(0)).select()[0]'
p97
sI141
S'    pages = trymysql(trymysql.page.book==request.args(0)).select()'
p98
sI142
S'    texts = trymysql(trymysql.drafts.book==request.args(0)).select()'
p99
sI143
S'    old = trymysql(trymysql.old.book==request.args(0)).select()'
p100
sI144
S"    obl = 'books/' + str(book.id) + '/obl.png'"
p101
sI145
S'    drafts = []'
p102
sI146
S'    if len(old)==0:'
p103
sI147
S'        drafts = trymysql(trymysql.drafts.book==request.args(0)).select()'
p104
sI148
S'    return dict(book=book, pages=pages, texts=texts, old=old, obl=obl, drafts=drafts)'
p105
ssg88
S'()'
p106
sg90
S'<module>'
p107
sa(dp108
g67
S'/home/concordance/web2py/gluon/globals.py'
p109
sg69
(dp110
S'self'
p111
S'undefined'
p112
sS'f'
S'<function show1>'
p113
ssg75
I385
sg76
(dp114
I384
S'        self._vars = None'
p115
sI385
S'        self._caller = lambda f: f()'
p116
sI386
S'        self._view_environment = None'
p117
sI387
S'        self._custom_commit = None'
p118
sI388
S'        self._custom_rollback = None'
p119
sI389
S''
sI380
S'        self.menu = []             # used by the default view layout'
p120
sI381
S'        self.files = []            # used by web2py_ajax.html'
p121
sI382
S'        self.generic_patterns = []  # patterns to allow generic views'
p122
sI383
S"        self.delimiters = ('{{', '}}')"
p123
ssg88
S'(f=<function show1>)'
p124
sg90
S'<lambda>'
p125
sa(dp126
g67
S'/home/concordance/web2py/applications/test/controllers/show.py'
p127
sg69
(dp128
S'texts'
p129
S"<Row {'dmonth_writing': None, 'dyear_writing': N... '', 'v': '', 'epigraph': '', 'group_text': 16L}>"
p130
sS'builtinopen'
p131
S'<built-in function open>'
p132
sS'texts.filename'
p133
S"'/home/concordance/web2py/applications/test/uploads/8__1117.txt'"
p134
sS'f'
g112
ssg75
I9
sg76
(dp135
I4
S'import difflib'
p136
sI5
S'import re'
p137
sI6
S''
sI7
S'def show1():   # show text from file'
p138
sI8
S'    texts = trymysql(trymysql.text1.id==request.args(0)).select().first()'
p139
sI9
S"    f = open(texts.filename, 'rb')"
p140
sI10
S'    content = f.readlines()'
p141
sI11
S'    image = [all.url for all in d(d.pages.text==request.args(0)).select()]'
p142
sI12
S'    return dict(texts=texts, content=content, image=image)'
p143
sI13
S''
ssg88
S'()'
p144
sg90
S'show1'
p145
sasS'pyver'
p146
S'Python 2.7.6: /usr/local/bin/uwsgi (prefix: /usr)'
p147
sS'session'
p148
g62
(S's\x1a\x00\x00\x00<div><table></table></div>'
tRp149
sS'etype'
p150
S"<type 'exceptions.IOError'>"
p151
sS'date'
p152
S'Tue Jan 31 05:33:39 2017'
p153
sS'response'
p154
g62
(S'sB\x1d\x00\x00<div><table><tr><td style="font-weight:bold;vertical-align:top;">body</td><td style="vertical-align:top;">:</td><td><div>&lt;cStringIO.StringO object at 0x7f3408c4cf48&gt;</div></td></tr><tr><td style="font-weight:bold;vertical-align:top;">cookies</td><td style="vertical-align:top;">:</td><td><div><table><tr><td style="font-weight:bold;vertical-align:top;">session_id_test</td><td style="vertical-align:top;">:</td><td><div>85.140.79.157-e9e08986-fc29-4abf-9365-24920816b280<table><tr><td style="font-weight:bold;vertical-align:top;">comment</td><td style="vertical-align:top;">:</td><td><div></div></td></tr><tr><td style="font-weight:bold;vertical-align:top;">domain</td><td style="vertical-align:top;">:</td><td><div></div></td></tr><tr><td style="font-weight:bold;vertical-align:top;">expires</td><td style="vertical-align:top;">:</td><td><div></div></td></tr><tr><td style="font-weight:bold;vertical-align:top;">httponly</td><td style="vertical-align:top;">:</td><td><div></div></td></tr><tr><td style="font-weight:bold;vertical-align:top;">max-age</td><td style="vertical-align:top;">:</td><td><div></div></td></tr><tr><td style="font-weight:bold;vertical-align:top;">path</td><td style="vertical-align:top;">:</td><td><div>/</div></td></tr><tr><td style="font-weight:bold;vertical-align:top;">secure</td><td style="vertical-align:top;">:</td><td><div></div></td></tr><tr><td style="font-weight:bold;vertical-align:top;">version</td><td style="vertical-align:top;">:</td><td><div></div></td></tr></table></div></td></tr></table></div></td></tr><tr><td style="font-weight:bold;vertical-align:top;">delimiters</td><td style="vertical-align:top;">:</td><td><div><table><tr><td><div>{{</div></td></tr><tr><td><div>}}</div></td></tr></table></div></td></tr><tr><td style="font-weight:bold;vertical-align:top;">files</td><td style="vertical-align:top;">:</td><td><div><table></table></div></td></tr><tr><td style="font-weight:bold;vertical-align:top;">flash</td><td style="vertical-align:top;">:</td><td><div></div></td></tr><tr><td style="font-weight:bold;vertical-align:top;">generic_patterns</td><td style="vertical-align:top;">:</td><td><div><table></table></div></td></tr><tr><td style="font-weight:bold;vertical-align:top;">google_analytics_id</td><td style="vertical-align:top;">:</td><td><div>UA-52567545-1</div></td></tr><tr><td style="font-weight:bold;vertical-align:top;">headers</td><td style="vertical-align:top;">:</td><td><div><table><tr><td style="font-weight:bold;vertical-align:top;">X-Powered-By</td><td style="vertical-align:top;">:</td><td><div>web2py</div></td></tr></table></div></td></tr><tr><td style="font-weight:bold;vertical-align:top;">logo</td><td style="vertical-align:top;">:</td><td><div><a class="brand" href="http://concordances.ru"><b>concor<span>dances</span></b>.ru</a></div></td></tr><tr><td style="font-weight:bold;vertical-align:top;">menu</td><td style="vertical-align:top;">:</td><td><div><table><tr><td><div><table><tr><td><div>Home</div></td></tr><tr><td><div>False</div></td></tr><tr><td><div>/test/default/index</div></td></tr><tr><td><div><table></table></div></td></tr></table></div></td></tr><tr><td><div><table><tr><td><div><span class="highlighted">web2py</span></div></td></tr><tr><td><div>False</div></td></tr><tr><td><div>http://concordances.ru</div></td></tr><tr><td><div><table><tr><td><div><table><tr><td><div>\xd0\x9e \xd0\xbf\xd1\x80\xd0\xbe\xd0\xb5\xd0\xba\xd1\x82\xd0\xb5</div></td></tr><tr><td><div>False</div></td></tr><tr><td><div>/admin/default/about/test</div></td></tr></table></div></td></tr><tr><td><div><table><tr><td><div>\xd0\x90\xd0\xb4\xd0\xbc\xd0\xb8\xd0\xbd\xd0\xba\xd0\xb0</div></td></tr><tr><td><div>False</div></td></tr><tr><td><div>/admin/default/edit/test/controllers/show.py</div></td></tr></table></div></td></tr></table></div></td></tr></table></div></td></tr></table></div></td></tr><tr><td style="font-weight:bold;vertical-align:top;">meta</td><td style="vertical-align:top;">:</td><td><div><table><tr><td style="font-weight:bold;vertical-align:top;">author</td><td style="vertical-align:top;">:</td><td><div>Maria Levchenko &lt;marylevchenko@gmail.com&gt;</div></td></tr><tr><td style="font-weight:bold;vertical-align:top;">generator</td><td style="vertical-align:top;">:</td><td><div>\xd0\xa7\xd0\xb0\xd1\x81\xd1\x82\xd0\xbe\xd1\x82\xd0\xbd\xd1\x8b\xd0\xb9 \xd1\x81\xd0\xbb\xd0\xbe\xd0\xb2\xd0\xb0\xd1\x80\xd1\x8c \xd1\x80\xd1\x83\xd1\x81\xd1\x81\xd0\xba\xd0\xbe\xd0\xb9 \xd0\xbb\xd0\xb8\xd1\x82\xd0\xb5\xd1\x80\xd0\xb0\xd1\x82\xd1\x83\xd1\x80\xd1\x8b</div></td></tr><tr><td style="font-weight:bold;vertical-align:top;">keywords</td><td style="vertical-align:top;">:</td><td><div>concordance, natural language processing, critics</div></td></tr></table></div></td></tr><tr><td style="font-weight:bold;vertical-align:top;">models_to_run</td><td style="vertical-align:top;">:</td><td><div><table><tr><td><div>^\\w+\\.py$</div></td></tr><tr><td><div>^show/\\w+\\.py$</div></td></tr><tr><td><div>^show/show1/\\w+\\.py$</div></td></tr></table></div></td></tr><tr><td style="font-weight:bold;vertical-align:top;">postprocessing</td><td style="vertical-align:top;">:</td><td><div><table></table></div></td></tr><tr><td style="font-weight:bold;vertical-align:top;">session_client</td><td style="vertical-align:top;">:</td><td><div>85.140.79.157</div></td></tr><tr><td style="font-weight:bold;vertical-align:top;">session_cookie_compression_level</td><td style="vertical-align:top;">:</td><td><div>None</div></td></tr><tr><td style="font-weight:bold;vertical-align:top;">session_cookie_expires</td><td style="vertical-align:top;">:</td><td><div>None</div></td></tr><tr><td style="font-weight:bold;vertical-align:top;">session_cookie_key</td><td style="vertical-align:top;">:</td><td><div>None</div></td></tr><tr><td style="font-weight:bold;vertical-align:top;">session_data_name</td><td style="vertical-align:top;">:</td><td><div>session_data_test</div></td></tr><tr><td style="font-weight:bold;vertical-align:top;">session_file</td><td style="vertical-align:top;">:</td><td><div>None</div></td></tr><tr><td style="font-weight:bold;vertical-align:top;">session_filename</td><td style="vertical-align:top;">:</td><td><div>/home/concordance/web2py/applications/test/sessions/85.140.79.157-e9e08986-fc29-4abf-9365-24920816b280</div></td></tr><tr><td style="font-weight:bold;vertical-align:top;">session_hash</td><td style="vertical-align:top;">:</td><td><div>106f4c22ca06cc343e42b73a0d8492f6</div></td></tr><tr><td style="font-weight:bold;vertical-align:top;">session_id</td><td style="vertical-align:top;">:</td><td><div>85.140.79.157-e9e08986-fc29-4abf-9365-24920816b280</div></td></tr><tr><td style="font-weight:bold;vertical-align:top;">session_id_name</td><td style="vertical-align:top;">:</td><td><div>session_id_test</div></td></tr><tr><td style="font-weight:bold;vertical-align:top;">session_masterapp</td><td style="vertical-align:top;">:</td><td><div>test</div></td></tr><tr><td style="font-weight:bold;vertical-align:top;">session_new</td><td style="vertical-align:top;">:</td><td><div>True</div></td></tr><tr><td style="font-weight:bold;vertical-align:top;">session_storage_type</td><td style="vertical-align:top;">:</td><td><div>file</div></td></tr><tr><td style="font-weight:bold;vertical-align:top;">status</td><td style="vertical-align:top;">:</td><td><div>200</div></td></tr><tr><td style="font-weight:bold;vertical-align:top;">subtitle</td><td style="vertical-align:top;">:</td><td><div></div></td></tr><tr><td style="font-weight:bold;vertical-align:top;">title</td><td style="vertical-align:top;">:</td><td><div>Test</div></td></tr><tr><td style="font-weight:bold;vertical-align:top;">view</td><td style="vertical-align:top;">:</td><td><div>show/show1.html</div></td></tr></table></div>'
tRp155
sS'locals'
p156
(dp157
S'texts'
p158
S"<Row {'dmonth_writing': None, 'dyear_writing': N... '', 'v': '', 'epigraph': '', 'group_text': 16L}>"
p159
sssS'traceback'
p160
S'Traceback (most recent call last):\n  File "/home/concordance/web2py/gluon/restricted.py", line 220, in restricted\n    exec ccode in environment\n  File "/home/concordance/web2py/applications/test/controllers/show.py", line 150, in <module>\n  File "/home/concordance/web2py/gluon/globals.py", line 385, in <lambda>\n    self._caller = lambda f: f()\n  File "/home/concordance/web2py/applications/test/controllers/show.py", line 9, in show1\n    f = open(texts.filename, \'rb\')\nIOError: [Errno 2] No such file or directory: \'/home/concordance/web2py/applications/test/uploads/8__1117.txt\'\n'
p161
s.